   1              		.syntax unified
   2              		.cpu cortex-m3
   3              		.fpu softvfp
   4              		.eabi_attribute 20, 1
   5              		.eabi_attribute 21, 1
   6              		.eabi_attribute 23, 3
   7              		.eabi_attribute 24, 1
   8              		.eabi_attribute 25, 1
   9              		.eabi_attribute 26, 1
  10              		.eabi_attribute 30, 1
  11              		.eabi_attribute 34, 1
  12              		.eabi_attribute 18, 4
  13              		.thumb
  14              		.file	"led.c"
  15              		.text
  16              	.Ltext0:
  17              		.cfi_sections	.debug_frame
  18              		.section	.text.LED_Off,"ax",%progbits
  19              		.align	2
  20              		.global	LED_Off
  21              		.thumb
  22              		.thumb_func
  24              	LED_Off:
  25              	.LFB66:
  26              		.file 1 "../src/ASF/sam/boards/cw305/led.c"
   1:../src/ASF/sam/boards/cw305/led.c **** /**
   2:../src/ASF/sam/boards/cw305/led.c ****  * \file
   3:../src/ASF/sam/boards/cw305/led.c ****  *
   4:../src/ASF/sam/boards/cw305/led.c ****  * \brief SAM3U-EK LEDs support package.
   5:../src/ASF/sam/boards/cw305/led.c ****  *
   6:../src/ASF/sam/boards/cw305/led.c ****  * Copyright (c) 2011-2012 Atmel Corporation. All rights reserved.
   7:../src/ASF/sam/boards/cw305/led.c ****  *
   8:../src/ASF/sam/boards/cw305/led.c ****  * \asf_license_start
   9:../src/ASF/sam/boards/cw305/led.c ****  *
  10:../src/ASF/sam/boards/cw305/led.c ****  * \page License
  11:../src/ASF/sam/boards/cw305/led.c ****  *
  12:../src/ASF/sam/boards/cw305/led.c ****  * Redistribution and use in source and binary forms, with or without
  13:../src/ASF/sam/boards/cw305/led.c ****  * modification, are permitted provided that the following conditions are met:
  14:../src/ASF/sam/boards/cw305/led.c ****  *
  15:../src/ASF/sam/boards/cw305/led.c ****  * 1. Redistributions of source code must retain the above copyright notice,
  16:../src/ASF/sam/boards/cw305/led.c ****  *    this list of conditions and the following disclaimer.
  17:../src/ASF/sam/boards/cw305/led.c ****  *
  18:../src/ASF/sam/boards/cw305/led.c ****  * 2. Redistributions in binary form must reproduce the above copyright notice,
  19:../src/ASF/sam/boards/cw305/led.c ****  *    this list of conditions and the following disclaimer in the documentation
  20:../src/ASF/sam/boards/cw305/led.c ****  *    and/or other materials provided with the distribution.
  21:../src/ASF/sam/boards/cw305/led.c ****  *
  22:../src/ASF/sam/boards/cw305/led.c ****  * 3. The name of Atmel may not be used to endorse or promote products derived
  23:../src/ASF/sam/boards/cw305/led.c ****  *    from this software without specific prior written permission.
  24:../src/ASF/sam/boards/cw305/led.c ****  *
  25:../src/ASF/sam/boards/cw305/led.c ****  * 4. This software may only be redistributed and used in connection with an
  26:../src/ASF/sam/boards/cw305/led.c ****  *    Atmel microcontroller product.
  27:../src/ASF/sam/boards/cw305/led.c ****  *
  28:../src/ASF/sam/boards/cw305/led.c ****  * THIS SOFTWARE IS PROVIDED BY ATMEL "AS IS" AND ANY EXPRESS OR IMPLIED
  29:../src/ASF/sam/boards/cw305/led.c ****  * WARRANTIES, INCLUDING, BUT NOT LIMITED TO, THE IMPLIED WARRANTIES OF
  30:../src/ASF/sam/boards/cw305/led.c ****  * MERCHANTABILITY, FITNESS FOR A PARTICULAR PURPOSE AND NON-INFRINGEMENT ARE
  31:../src/ASF/sam/boards/cw305/led.c ****  * EXPRESSLY AND SPECIFICALLY DISCLAIMED. IN NO EVENT SHALL ATMEL BE LIABLE FOR
  32:../src/ASF/sam/boards/cw305/led.c ****  * ANY DIRECT, INDIRECT, INCIDENTAL, SPECIAL, EXEMPLARY, OR CONSEQUENTIAL
  33:../src/ASF/sam/boards/cw305/led.c ****  * DAMAGES (INCLUDING, BUT NOT LIMITED TO, PROCUREMENT OF SUBSTITUTE GOODS
  34:../src/ASF/sam/boards/cw305/led.c ****  * OR SERVICES; LOSS OF USE, DATA, OR PROFITS; OR BUSINESS INTERRUPTION)
  35:../src/ASF/sam/boards/cw305/led.c ****  * HOWEVER CAUSED AND ON ANY THEORY OF LIABILITY, WHETHER IN CONTRACT,
  36:../src/ASF/sam/boards/cw305/led.c ****  * STRICT LIABILITY, OR TORT (INCLUDING NEGLIGENCE OR OTHERWISE) ARISING IN
  37:../src/ASF/sam/boards/cw305/led.c ****  * ANY WAY OUT OF THE USE OF THIS SOFTWARE, EVEN IF ADVISED OF THE
  38:../src/ASF/sam/boards/cw305/led.c ****  * POSSIBILITY OF SUCH DAMAGE.
  39:../src/ASF/sam/boards/cw305/led.c ****  *
  40:../src/ASF/sam/boards/cw305/led.c ****  * \asf_license_stop
  41:../src/ASF/sam/boards/cw305/led.c ****  *
  42:../src/ASF/sam/boards/cw305/led.c ****  */
  43:../src/ASF/sam/boards/cw305/led.c **** 
  44:../src/ASF/sam/boards/cw305/led.c **** #include "board.h"
  45:../src/ASF/sam/boards/cw305/led.c **** #include "led.h"
  46:../src/ASF/sam/boards/cw305/led.c **** #include "gpio.h"
  47:../src/ASF/sam/boards/cw305/led.c **** 
  48:../src/ASF/sam/boards/cw305/led.c **** #define ACTIVE_LEVEL_IS_HIGH 1
  49:../src/ASF/sam/boards/cw305/led.c **** 
  50:../src/ASF/sam/boards/cw305/led.c **** typedef const struct
  51:../src/ASF/sam/boards/cw305/led.c **** {
  52:../src/ASF/sam/boards/cw305/led.c ****     uint32_t ul_port_id;      //!< LED GPIO port.
  53:../src/ASF/sam/boards/cw305/led.c ****     uint32_t ul_active_level; //!< Active level of the LED.
  54:../src/ASF/sam/boards/cw305/led.c **** } tLED_DESCRIPTOR;
  55:../src/ASF/sam/boards/cw305/led.c **** 
  56:../src/ASF/sam/boards/cw305/led.c **** //! Hardware descriptors of all LEDs.
  57:../src/ASF/sam/boards/cw305/led.c **** static tLED_DESCRIPTOR LED_DESCRIPTOR[BOARD_NUM_OF_LED] =
  58:../src/ASF/sam/boards/cw305/led.c **** {
  59:../src/ASF/sam/boards/cw305/led.c **** #define INSERT_LED_DESCRIPTOR(LED_NO, unused)      \
  60:../src/ASF/sam/boards/cw305/led.c ****   {                                                \
  61:../src/ASF/sam/boards/cw305/led.c ****     LED##LED_NO##_GPIO, LED##LED_NO##_ACTIVE_LEVEL \
  62:../src/ASF/sam/boards/cw305/led.c ****   },
  63:../src/ASF/sam/boards/cw305/led.c ****   MREPEAT(BOARD_NUM_OF_LED, INSERT_LED_DESCRIPTOR, ~)
  64:../src/ASF/sam/boards/cw305/led.c **** #undef INSERT_LED_DESCRIPTOR
  65:../src/ASF/sam/boards/cw305/led.c **** };
  66:../src/ASF/sam/boards/cw305/led.c **** 
  67:../src/ASF/sam/boards/cw305/led.c **** /*! \brief Turns off the specified LEDs.
  68:../src/ASF/sam/boards/cw305/led.c ****  *
  69:../src/ASF/sam/boards/cw305/led.c ****  * \param led_gpio LED to turn off (LEDx_GPIO).
  70:../src/ASF/sam/boards/cw305/led.c ****  *
  71:../src/ASF/sam/boards/cw305/led.c ****  * \note The pins of the specified LEDs are set to GPIO output mode.
  72:../src/ASF/sam/boards/cw305/led.c ****  */
  73:../src/ASF/sam/boards/cw305/led.c **** void LED_Off(uint32_t led_gpio)
  74:../src/ASF/sam/boards/cw305/led.c **** {
  27              		.loc 1 74 0
  28              		.cfi_startproc
  29              		@ args = 0, pretend = 0, frame = 0
  30              		@ frame_needed = 0, uses_anonymous_args = 0
  31              	.LVL0:
  32 0000 2DE9F041 		push	{r4, r5, r6, r7, r8, lr}
  33              	.LCFI0:
  34              		.cfi_def_cfa_offset 24
  35              		.cfi_offset 4, -24
  36              		.cfi_offset 5, -20
  37              		.cfi_offset 6, -16
  38              		.cfi_offset 7, -12
  39              		.cfi_offset 8, -8
  40              		.cfi_offset 14, -4
  41 0004 0646     		mov	r6, r0
  42              	.LVL1:
  43              		.loc 1 74 0
  44 0006 0024     		movs	r4, #0
  75:../src/ASF/sam/boards/cw305/led.c **** 	uint32_t i;
  76:../src/ASF/sam/boards/cw305/led.c **** 	for (i = 0; i < BOARD_NUM_OF_LED; i++) {
  77:../src/ASF/sam/boards/cw305/led.c **** 		if (led_gpio == LED_DESCRIPTOR[i].ul_port_id) {
  45              		.loc 1 77 0
  46 0008 0A4D     		ldr	r5, .L7
  78:../src/ASF/sam/boards/cw305/led.c **** 			if (LED_DESCRIPTOR[i].ul_active_level == ACTIVE_LEVEL_IS_HIGH) {
  79:../src/ASF/sam/boards/cw305/led.c **** 				gpio_set_pin_low(led_gpio);
  80:../src/ASF/sam/boards/cw305/led.c **** 			} else {
  81:../src/ASF/sam/boards/cw305/led.c **** 				gpio_set_pin_high(led_gpio);
  47              		.loc 1 81 0
  48 000a 0B4F     		ldr	r7, .L7+4
  79:../src/ASF/sam/boards/cw305/led.c **** 			} else {
  49              		.loc 1 79 0
  50 000c DFF82C80 		ldr	r8, .L7+8
  51              	.LVL2:
  52              	.L4:
  77:../src/ASF/sam/boards/cw305/led.c **** 			if (LED_DESCRIPTOR[i].ul_active_level == ACTIVE_LEVEL_IS_HIGH) {
  53              		.loc 1 77 0
  54 0010 6359     		ldr	r3, [r4, r5]
  55 0012 B342     		cmp	r3, r6
  56 0014 08D1     		bne	.L2
  57 0016 2B19     		adds	r3, r5, r4
  78:../src/ASF/sam/boards/cw305/led.c **** 			if (LED_DESCRIPTOR[i].ul_active_level == ACTIVE_LEVEL_IS_HIGH) {
  58              		.loc 1 78 0
  59 0018 5B68     		ldr	r3, [r3, #4]
  60 001a 012B     		cmp	r3, #1
  61 001c 02D1     		bne	.L3
  79:../src/ASF/sam/boards/cw305/led.c **** 			} else {
  62              		.loc 1 79 0
  63 001e 3046     		mov	r0, r6
  64 0020 C047     		blx	r8
  65              	.LVL3:
  66 0022 01E0     		b	.L2
  67              	.L3:
  68              		.loc 1 81 0
  69 0024 3046     		mov	r0, r6
  70 0026 B847     		blx	r7
  71              	.LVL4:
  72              	.L2:
  73 0028 0834     		adds	r4, r4, #8
  76:../src/ASF/sam/boards/cw305/led.c **** 		if (led_gpio == LED_DESCRIPTOR[i].ul_port_id) {
  74              		.loc 1 76 0 discriminator 2
  75 002a 182C     		cmp	r4, #24
  76 002c F0D1     		bne	.L4
  82:../src/ASF/sam/boards/cw305/led.c **** 			}
  83:../src/ASF/sam/boards/cw305/led.c **** 		}
  84:../src/ASF/sam/boards/cw305/led.c **** 	}
  85:../src/ASF/sam/boards/cw305/led.c **** }
  77              		.loc 1 85 0
  78 002e BDE8F081 		pop	{r4, r5, r6, r7, r8, pc}
  79              	.LVL5:
  80              	.L8:
  81 0032 00BF     		.align	2
  82              	.L7:
  83 0034 00000000 		.word	.LANCHOR0
  84 0038 00000000 		.word	pio_set_pin_high
  85 003c 00000000 		.word	pio_set_pin_low
  86              		.cfi_endproc
  87              	.LFE66:
  89              		.section	.text.LED_On,"ax",%progbits
  90              		.align	2
  91              		.global	LED_On
  92              		.thumb
  93              		.thumb_func
  95              	LED_On:
  96              	.LFB67:
  86:../src/ASF/sam/boards/cw305/led.c **** 
  87:../src/ASF/sam/boards/cw305/led.c **** /*! \brief Turns on the specified LEDs.
  88:../src/ASF/sam/boards/cw305/led.c ****  *
  89:../src/ASF/sam/boards/cw305/led.c ****  * \param led_gpio LED to turn on (LEDx_GPIO).
  90:../src/ASF/sam/boards/cw305/led.c ****  *
  91:../src/ASF/sam/boards/cw305/led.c ****  * \note The pins of the specified LEDs are set to GPIO output mode.
  92:../src/ASF/sam/boards/cw305/led.c ****  */
  93:../src/ASF/sam/boards/cw305/led.c **** void LED_On(uint32_t led_gpio)
  94:../src/ASF/sam/boards/cw305/led.c **** {
  97              		.loc 1 94 0
  98              		.cfi_startproc
  99              		@ args = 0, pretend = 0, frame = 0
 100              		@ frame_needed = 0, uses_anonymous_args = 0
 101              	.LVL6:
 102 0000 2DE9F041 		push	{r4, r5, r6, r7, r8, lr}
 103              	.LCFI1:
 104              		.cfi_def_cfa_offset 24
 105              		.cfi_offset 4, -24
 106              		.cfi_offset 5, -20
 107              		.cfi_offset 6, -16
 108              		.cfi_offset 7, -12
 109              		.cfi_offset 8, -8
 110              		.cfi_offset 14, -4
 111 0004 0646     		mov	r6, r0
 112              	.LVL7:
 113              		.loc 1 94 0
 114 0006 0024     		movs	r4, #0
  95:../src/ASF/sam/boards/cw305/led.c **** 	uint32_t i;
  96:../src/ASF/sam/boards/cw305/led.c **** 	for (i = 0; i < BOARD_NUM_OF_LED; i++) {
  97:../src/ASF/sam/boards/cw305/led.c **** 		if (led_gpio == LED_DESCRIPTOR[i].ul_port_id) {
 115              		.loc 1 97 0
 116 0008 0A4D     		ldr	r5, .L15
  98:../src/ASF/sam/boards/cw305/led.c **** 			if (LED_DESCRIPTOR[i].ul_active_level == ACTIVE_LEVEL_IS_HIGH) {
  99:../src/ASF/sam/boards/cw305/led.c **** 				gpio_set_pin_high(led_gpio);
 100:../src/ASF/sam/boards/cw305/led.c **** 			} else {
 101:../src/ASF/sam/boards/cw305/led.c **** 				gpio_set_pin_low(led_gpio);
 117              		.loc 1 101 0
 118 000a 0B4F     		ldr	r7, .L15+4
  99:../src/ASF/sam/boards/cw305/led.c **** 			} else {
 119              		.loc 1 99 0
 120 000c DFF82C80 		ldr	r8, .L15+8
 121              	.LVL8:
 122              	.L12:
  97:../src/ASF/sam/boards/cw305/led.c **** 			if (LED_DESCRIPTOR[i].ul_active_level == ACTIVE_LEVEL_IS_HIGH) {
 123              		.loc 1 97 0
 124 0010 6359     		ldr	r3, [r4, r5]
 125 0012 B342     		cmp	r3, r6
 126 0014 08D1     		bne	.L10
 127 0016 2B19     		adds	r3, r5, r4
  98:../src/ASF/sam/boards/cw305/led.c **** 			if (LED_DESCRIPTOR[i].ul_active_level == ACTIVE_LEVEL_IS_HIGH) {
 128              		.loc 1 98 0
 129 0018 5B68     		ldr	r3, [r3, #4]
 130 001a 012B     		cmp	r3, #1
 131 001c 02D1     		bne	.L11
  99:../src/ASF/sam/boards/cw305/led.c **** 			} else {
 132              		.loc 1 99 0
 133 001e 3046     		mov	r0, r6
 134 0020 C047     		blx	r8
 135              	.LVL9:
 136 0022 01E0     		b	.L10
 137              	.L11:
 138              		.loc 1 101 0
 139 0024 3046     		mov	r0, r6
 140 0026 B847     		blx	r7
 141              	.LVL10:
 142              	.L10:
 143 0028 0834     		adds	r4, r4, #8
  96:../src/ASF/sam/boards/cw305/led.c **** 		if (led_gpio == LED_DESCRIPTOR[i].ul_port_id) {
 144              		.loc 1 96 0 discriminator 2
 145 002a 182C     		cmp	r4, #24
 146 002c F0D1     		bne	.L12
 102:../src/ASF/sam/boards/cw305/led.c **** 			}
 103:../src/ASF/sam/boards/cw305/led.c **** 		}
 104:../src/ASF/sam/boards/cw305/led.c **** 	}
 105:../src/ASF/sam/boards/cw305/led.c **** }
 147              		.loc 1 105 0
 148 002e BDE8F081 		pop	{r4, r5, r6, r7, r8, pc}
 149              	.LVL11:
 150              	.L16:
 151 0032 00BF     		.align	2
 152              	.L15:
 153 0034 00000000 		.word	.LANCHOR0
 154 0038 00000000 		.word	pio_set_pin_low
 155 003c 00000000 		.word	pio_set_pin_high
 156              		.cfi_endproc
 157              	.LFE67:
 159              		.section	.rodata.LED_DESCRIPTOR,"a",%progbits
 160              		.align	2
 161              		.set	.LANCHOR0,. + 0
 164              	LED_DESCRIPTOR:
 165 0000 4F000000 		.word	79
 166 0004 01000000 		.word	1
 167 0008 50000000 		.word	80
 168 000c 01000000 		.word	1
 169 0010 51000000 		.word	81
 170 0014 01000000 		.word	1
 171              		.section	.bss.cpu_irq_critical_section_counter,"aw",%nobits
 172              		.align	2
 175              	cpu_irq_critical_section_counter:
 176 0000 00000000 		.space	4
 177              		.section	.bss.cpu_irq_prev_interrupt_state,"aw",%nobits
 180              	cpu_irq_prev_interrupt_state:
 181 0000 00       		.space	1
 182              		.text
 183              	.Letext0:
 184              		.file 2 "c:\\program files (x86)\\atmel\\studio\\7.0\\toolchain\\arm\\arm-gnu-toolchain\\arm-none-
 185              		.file 3 "c:\\program files (x86)\\atmel\\studio\\7.0\\toolchain\\arm\\arm-gnu-toolchain\\arm-none-
 186              		.file 4 "../src/ASF/common/utils/interrupt/interrupt_sam_nvic.h"
 187              		.file 5 "../src/ASF/thirdparty/CMSIS/Include/core_cm3.h"
DEFINED SYMBOLS
                            *ABS*:00000000 led.c
C:\Users\colin\AppData\Local\Temp\ccQFatPf.s:19     .text.LED_Off:00000000 $t
C:\Users\colin\AppData\Local\Temp\ccQFatPf.s:24     .text.LED_Off:00000000 LED_Off
C:\Users\colin\AppData\Local\Temp\ccQFatPf.s:83     .text.LED_Off:00000034 $d
C:\Users\colin\AppData\Local\Temp\ccQFatPf.s:90     .text.LED_On:00000000 $t
C:\Users\colin\AppData\Local\Temp\ccQFatPf.s:95     .text.LED_On:00000000 LED_On
C:\Users\colin\AppData\Local\Temp\ccQFatPf.s:153    .text.LED_On:00000034 $d
C:\Users\colin\AppData\Local\Temp\ccQFatPf.s:160    .rodata.LED_DESCRIPTOR:00000000 $d
C:\Users\colin\AppData\Local\Temp\ccQFatPf.s:164    .rodata.LED_DESCRIPTOR:00000000 LED_DESCRIPTOR
C:\Users\colin\AppData\Local\Temp\ccQFatPf.s:172    .bss.cpu_irq_critical_section_counter:00000000 $d
C:\Users\colin\AppData\Local\Temp\ccQFatPf.s:175    .bss.cpu_irq_critical_section_counter:00000000 cpu_irq_critical_section_counter
C:\Users\colin\AppData\Local\Temp\ccQFatPf.s:180    .bss.cpu_irq_prev_interrupt_state:00000000 cpu_irq_prev_interrupt_state
C:\Users\colin\AppData\Local\Temp\ccQFatPf.s:181    .bss.cpu_irq_prev_interrupt_state:00000000 $d
                     .debug_frame:00000010 $d
                           .group:00000000 wm4.0.738cd1dff6e476bef2e1e0b99fec4f4f
                           .group:00000000 wm4.stddef.h.39.daafd3d79fe2f3a84d2d73d7d4e706f8
                           .group:00000000 wm4.parts.h.45.afc900689b2c82332e69d798acedc875
                           .group:00000000 wm4.tpaste.h.45.af3ee36765243b162c88f7f944858426
                           .group:00000000 wm4.stringz.h.45.c4f6cbe0005e6c1d2139bc6c0e4f4722
                           .group:00000000 wm4.mrepeat.h.59.c5daaed201a4340b0edf435161d0b77f
                           .group:00000000 wm4.features.h.22.2e382148a0560adabf236cddd4e880f4
                           .group:00000000 wm4._default_types.h.15.933e8edd27a65e0b69af4a865eb623d2
                           .group:00000000 wm4._intsup.h.10.b2832a532eae49c14d45880be6d4ca65
                           .group:00000000 wm4._stdint.h.10.f76354baea1c7088202064e6f3d4f5e3
                           .group:00000000 wm4.stdint.h.23.373a9d32a9e4c2e88fd347156532d281
                           .group:00000000 wm4.sam3u2e.h.224.0dd3d6dd7ebd015c591c55f903ce78e7
                           .group:00000000 wm4.core_cm3.h.32.5c59c312db585622d253fdb887b0afb1
                           .group:00000000 wm4.core_cmInstr.h.25.d8165482ef3061013a2fc83e2d85f3d9
                           .group:00000000 wm4.core_cm3.h.127.b561404f2a159dc517b409bc244d16c1
                           .group:00000000 wm4.component_adc.h.43.d49887380d07d1cd08cc4e37b3485e31
                           .group:00000000 wm4.component_adc12b.h.43.eadc09f1073923fb91f1f393cc397dcb
                           .group:00000000 wm4.component_chipid.h.43.15825c969b1cc9eeea3d9416499874c8
                           .group:00000000 wm4.component_dmac.h.43.cc8187b1cf6bfeadc91b14fdd28b9e8b
                           .group:00000000 wm4.component_efc.h.43.cb1b3997ad9ea3733ad421ecbfd02fdd
                           .group:00000000 wm4.component_gpbr.h.43.49b7e13894fe38b29f2243bbbe530227
                           .group:00000000 wm4.component_hsmci.h.43.7b7194c92e1480c038f3342f7cec440a
                           .group:00000000 wm4.component_matrix.h.43.1d209838fb75b4827119203a357141ee
                           .group:00000000 wm4.component_pdc.h.43.19528a5f9ef5a348234ea06f89069c55
                           .group:00000000 wm4.component_pio.h.43.163b46c3683ccf92e8de39a5554f50e8
                           .group:00000000 wm4.component_pmc.h.43.ee4f030602866917aeed15fb2b948de8
                           .group:00000000 wm4.component_pwm.h.43.ab6262a86f0aea354b43fe6dce7e7eb3
                           .group:00000000 wm4.component_rstc.h.43.4eb59dc2ddcf585fabf251d0c329fcdd
                           .group:00000000 wm4.component_rtc.h.43.ba8ccafc772b11d562a3cceab8b95072
                           .group:00000000 wm4.component_rtt.h.43.3206ef8f067e5e747c3c4c7e719c1429
                           .group:00000000 wm4.component_smc.h.43.907847915f1a5616734199d7e34424fa
                           .group:00000000 wm4.component_spi.h.43.a2a09df64ab768c0a32be55285c74ded
                           .group:00000000 wm4.component_ssc.h.43.d7c78f990c13fc511671b64798c4bcd0
                           .group:00000000 wm4.component_supc.h.43.7d17f8e5ed3ba815e84381152735062f
                           .group:00000000 wm4.component_tc.h.43.662eac8137408372b4f9d26c0b5f8621
                           .group:00000000 wm4.component_twi.h.43.eda18625bd851fc4605861f5b3240c0b
                           .group:00000000 wm4.component_uart.h.43.2d92735c5ea05c973661e1ba99a2f37c
                           .group:00000000 wm4.component_udphs.h.43.21cecd26a4e44df0013037f29f2716e4
                           .group:00000000 wm4.component_usart.h.43.7872f8f455adb38b67b9fbdb15657fbe
                           .group:00000000 wm4.component_wdt.h.43.e31e10a5469b62c3660b49ab250f802f
                           .group:00000000 wm4.instance_hsmci.h.43.e233236cc7fd5a805539a7ecc0e1d8d2
                           .group:00000000 wm4.instance_ssc.h.43.c0cfabc3b9f3bb60745c913111bce965
                           .group:00000000 wm4.instance_spi.h.43.570ae46af19e4179d9796872b9a8b9bc
                           .group:00000000 wm4.instance_tc0.h.43.049b3a82387d2961594190609e896a29
                           .group:00000000 wm4.instance_twi0.h.43.255dc0afa9e0d45eaea0a935eca2f103
                           .group:00000000 wm4.instance_twi1.h.43.652d1d407893f259f2a817544ba662c2
                           .group:00000000 wm4.instance_pwm.h.43.88294acec3ca56d6fc521038521a1567
                           .group:00000000 wm4.instance_usart0.h.43.e26677512aee3dd3bedd71d394410000
                           .group:00000000 wm4.instance_usart1.h.43.1ba97dbc6610d9fb3132b9d845688201
                           .group:00000000 wm4.instance_usart2.h.43.baa1bf30b3c5acdee90c4a1f50fe9ebd
                           .group:00000000 wm4.instance_usart3.h.43.f6638d1b78bcba70ca95fca279d33914
                           .group:00000000 wm4.instance_udphs.h.43.b1ce94181e0d1f22877b81c6040a4363
                           .group:00000000 wm4.instance_adc12b.h.43.d73ed59e867ccdfdb846d9ef32a50c0c
                           .group:00000000 wm4.instance_adc.h.43.2b7611a00afeb4c555339b844d4b8456
                           .group:00000000 wm4.instance_dmac.h.43.ee72691d84889c8f285932be4a075ddb
                           .group:00000000 wm4.instance_smc.h.43.29610fd00979caaaa65821ad40e9da06
                           .group:00000000 wm4.instance_matrix.h.43.01ee474141594385374c41a29daeeefe
                           .group:00000000 wm4.instance_pmc.h.43.37430325ed7b8b24c3fe640c41c29ef5
                           .group:00000000 wm4.instance_uart.h.43.bd378395ba022bc8670c82ebe656fbbd
                           .group:00000000 wm4.instance_chipid.h.43.29cd8fb600f149aa58830fcc78fe36f9
                           .group:00000000 wm4.instance_efc0.h.43.6b85dba20721a7e9fc4350e78d193680
                           .group:00000000 wm4.instance_efc1.h.43.2c5e94fc4d2742678318d73450d08d57
                           .group:00000000 wm4.instance_pioa.h.43.eeb46cc3bfe01a1f28e67aa3a6851ed8
                           .group:00000000 wm4.instance_piob.h.43.652ce26b6c37ac56f9ed42a9216d9aca
                           .group:00000000 wm4.instance_pioc.h.43.d9706cf766637d6b3ed9886aa3ef7261
                           .group:00000000 wm4.instance_rstc.h.43.c5de224364a50a85f237c0b864aa4c8f
                           .group:00000000 wm4.instance_supc.h.43.a5f1a5ca08f468ccf34ed3653e045f1f
                           .group:00000000 wm4.instance_rtt.h.43.8622b192c23334996132415e3095df7f
                           .group:00000000 wm4.instance_wdt.h.43.407ea53e133eacf09acf2c7fcb6b7524
                           .group:00000000 wm4.instance_rtc.h.43.f70b77f9180401c8d9d920cb4a1cd166
                           .group:00000000 wm4.instance_gpbr.h.43.9066cb40d557f6755101368854272348
                           .group:00000000 wm4.sam3u2e.h.318.b69dc6db89bb8a018eede87e67bbc95d
                           .group:00000000 wm4.pio_sam3u2e.h.43.21412830fa1fb9ca8a54ce10fede3251
                           .group:00000000 wm4.sam3u2e.h.456.687e75a22829f9ea89425dc4ee4ff5e3
                           .group:00000000 wm4.newlib.h.8.2702bca278809460f0af6fba1d84eb68
                           .group:00000000 wm4.config.h.220.a09b0b0de3c25be3f39d71990e617bff
                           .group:00000000 wm4._ansi.h.23.9f8fcfa20193763fcf364fb91705c94b
                           .group:00000000 wm4.stdio.h.31.7c0e28c411445f3f9c5b11accf882760
                           .group:00000000 wm4.stddef.h.158.a7efb00f6cbc6f43213b50e183c9830c
                           .group:00000000 wm4.cdefs.h.47.3052445825803de6c3a3b68ec8193866
                           .group:00000000 wm4.stdarg.h.34.3a23a216c0c293b3d2ea2e89281481e6
                           .group:00000000 wm4.lock.h.2.9bc98482741e5e2a9450b12934a684ea
                           .group:00000000 wm4._types.h.54.d3d34a3b7f3cc230cd159baf022b4b08
                           .group:00000000 wm4.stddef.h.158.61317cdbfb4026324507d123a50b0fd6
                           .group:00000000 wm4.reent.h.17.8bd9e4098e0428508c282cad794fae43
                           .group:00000000 wm4.types.h.23.0d949686bbcadd1621462d4fa1f884f9
                           .group:00000000 wm4.types.h.2.e9cec8c90ab35f77d9f499e06ae02400
                           .group:00000000 wm4.types.h.81.ded4e8fbe2d299b79c956dc834e43661
                           .group:00000000 wm4.stdio.h.2.4aa87247282eca6c8f36f9de33d8df1a
                           .group:00000000 wm4.stdio.h.68.a99a2db1e55915cfd1b035cc1e9fcff1
                           .group:00000000 wm4.stdbool.h.29.1c9ee6859ce8145f7838a4f2549ccec2
                           .group:00000000 wm4.stdlib.h.13.4ed386f5c1a80d71e72172885d946ef2
                           .group:00000000 wm4.alloca.h.8.dfc0c703c47ec3e69746825b17d9e66d
                           .group:00000000 wm4.stdlib.h.54.cd3744e0b066087ec8fbb1bdc22d1043
                           .group:00000000 wm4.compiler.h.88.e36be790b5e347a01e6762426f60e643
                           .group:00000000 wm4.interrupt_sam_nvic.h.45.4876da6c127868305d66389e87e0876f
                           .group:00000000 wm4.compiler.h.424.ee053ef8246023ebdcca352464bd827f
                           .group:00000000 wm4.board.h.69.d07c7cef83d71bd4e2867b2e1c379311
                           .group:00000000 wm4.cw305.h.62.dac9fb9dfce9a952db76825701f7d0e3
                           .group:00000000 wm4.pio.h.45.95f22b0ea02ddc698ec54fc56bf6f38c
                           .group:00000000 wm4.sam_gpio.h.50.76a45c51855d665134f8211cd601d693

UNDEFINED SYMBOLS
pio_set_pin_high
pio_set_pin_low
