   1              		.syntax unified
   2              		.cpu cortex-m3
   3              		.fpu softvfp
   4              		.eabi_attribute 20, 1
   5              		.eabi_attribute 21, 1
   6              		.eabi_attribute 23, 3
   7              		.eabi_attribute 24, 1
   8              		.eabi_attribute 25, 1
   9              		.eabi_attribute 26, 1
  10              		.eabi_attribute 30, 1
  11              		.eabi_attribute 34, 1
  12              		.eabi_attribute 18, 4
  13              		.thumb
  14              		.file	"led.c"
  15              		.text
  16              	.Ltext0:
  17              		.cfi_sections	.debug_frame
  18              		.section	.text.LED_Off,"ax",%progbits
  19              		.align	2
  20              		.global	LED_Off
  21              		.thumb
  22              		.thumb_func
  24              	LED_Off:
  25              	.LFB66:
  26              		.file 1 "../src/ASF/sam/boards/cw305/led.c"
   1:../src/ASF/sam/boards/cw305/led.c **** /**
   2:../src/ASF/sam/boards/cw305/led.c ****  * \file
   3:../src/ASF/sam/boards/cw305/led.c ****  *
   4:../src/ASF/sam/boards/cw305/led.c ****  * \brief SAM3U-EK LEDs support package.
   5:../src/ASF/sam/boards/cw305/led.c ****  *
   6:../src/ASF/sam/boards/cw305/led.c ****  * Copyright (c) 2011-2012 Atmel Corporation. All rights reserved.
   7:../src/ASF/sam/boards/cw305/led.c ****  *
   8:../src/ASF/sam/boards/cw305/led.c ****  * \asf_license_start
   9:../src/ASF/sam/boards/cw305/led.c ****  *
  10:../src/ASF/sam/boards/cw305/led.c ****  * \page License
  11:../src/ASF/sam/boards/cw305/led.c ****  *
  12:../src/ASF/sam/boards/cw305/led.c ****  * Redistribution and use in source and binary forms, with or without
  13:../src/ASF/sam/boards/cw305/led.c ****  * modification, are permitted provided that the following conditions are met:
  14:../src/ASF/sam/boards/cw305/led.c ****  *
  15:../src/ASF/sam/boards/cw305/led.c ****  * 1. Redistributions of source code must retain the above copyright notice,
  16:../src/ASF/sam/boards/cw305/led.c ****  *    this list of conditions and the following disclaimer.
  17:../src/ASF/sam/boards/cw305/led.c ****  *
  18:../src/ASF/sam/boards/cw305/led.c ****  * 2. Redistributions in binary form must reproduce the above copyright notice,
  19:../src/ASF/sam/boards/cw305/led.c ****  *    this list of conditions and the following disclaimer in the documentation
  20:../src/ASF/sam/boards/cw305/led.c ****  *    and/or other materials provided with the distribution.
  21:../src/ASF/sam/boards/cw305/led.c ****  *
  22:../src/ASF/sam/boards/cw305/led.c ****  * 3. The name of Atmel may not be used to endorse or promote products derived
  23:../src/ASF/sam/boards/cw305/led.c ****  *    from this software without specific prior written permission.
  24:../src/ASF/sam/boards/cw305/led.c ****  *
  25:../src/ASF/sam/boards/cw305/led.c ****  * 4. This software may only be redistributed and used in connection with an
  26:../src/ASF/sam/boards/cw305/led.c ****  *    Atmel microcontroller product.
  27:../src/ASF/sam/boards/cw305/led.c ****  *
  28:../src/ASF/sam/boards/cw305/led.c ****  * THIS SOFTWARE IS PROVIDED BY ATMEL "AS IS" AND ANY EXPRESS OR IMPLIED
  29:../src/ASF/sam/boards/cw305/led.c ****  * WARRANTIES, INCLUDING, BUT NOT LIMITED TO, THE IMPLIED WARRANTIES OF
  30:../src/ASF/sam/boards/cw305/led.c ****  * MERCHANTABILITY, FITNESS FOR A PARTICULAR PURPOSE AND NON-INFRINGEMENT ARE
  31:../src/ASF/sam/boards/cw305/led.c ****  * EXPRESSLY AND SPECIFICALLY DISCLAIMED. IN NO EVENT SHALL ATMEL BE LIABLE FOR
  32:../src/ASF/sam/boards/cw305/led.c ****  * ANY DIRECT, INDIRECT, INCIDENTAL, SPECIAL, EXEMPLARY, OR CONSEQUENTIAL
  33:../src/ASF/sam/boards/cw305/led.c ****  * DAMAGES (INCLUDING, BUT NOT LIMITED TO, PROCUREMENT OF SUBSTITUTE GOODS
  34:../src/ASF/sam/boards/cw305/led.c ****  * OR SERVICES; LOSS OF USE, DATA, OR PROFITS; OR BUSINESS INTERRUPTION)
  35:../src/ASF/sam/boards/cw305/led.c ****  * HOWEVER CAUSED AND ON ANY THEORY OF LIABILITY, WHETHER IN CONTRACT,
  36:../src/ASF/sam/boards/cw305/led.c ****  * STRICT LIABILITY, OR TORT (INCLUDING NEGLIGENCE OR OTHERWISE) ARISING IN
  37:../src/ASF/sam/boards/cw305/led.c ****  * ANY WAY OUT OF THE USE OF THIS SOFTWARE, EVEN IF ADVISED OF THE
  38:../src/ASF/sam/boards/cw305/led.c ****  * POSSIBILITY OF SUCH DAMAGE.
  39:../src/ASF/sam/boards/cw305/led.c ****  *
  40:../src/ASF/sam/boards/cw305/led.c ****  * \asf_license_stop
  41:../src/ASF/sam/boards/cw305/led.c ****  *
  42:../src/ASF/sam/boards/cw305/led.c ****  */
  43:../src/ASF/sam/boards/cw305/led.c **** 
  44:../src/ASF/sam/boards/cw305/led.c **** #include "board.h"
  45:../src/ASF/sam/boards/cw305/led.c **** #include "led.h"
  46:../src/ASF/sam/boards/cw305/led.c **** #include "gpio.h"
  47:../src/ASF/sam/boards/cw305/led.c **** 
  48:../src/ASF/sam/boards/cw305/led.c **** #define ACTIVE_LEVEL_IS_HIGH 1
  49:../src/ASF/sam/boards/cw305/led.c **** 
  50:../src/ASF/sam/boards/cw305/led.c **** typedef const struct
  51:../src/ASF/sam/boards/cw305/led.c **** {
  52:../src/ASF/sam/boards/cw305/led.c ****     uint32_t ul_port_id;      //!< LED GPIO port.
  53:../src/ASF/sam/boards/cw305/led.c ****     uint32_t ul_active_level; //!< Active level of the LED.
  54:../src/ASF/sam/boards/cw305/led.c **** } tLED_DESCRIPTOR;
  55:../src/ASF/sam/boards/cw305/led.c **** 
  56:../src/ASF/sam/boards/cw305/led.c **** //! Hardware descriptors of all LEDs.
  57:../src/ASF/sam/boards/cw305/led.c **** static tLED_DESCRIPTOR LED_DESCRIPTOR[BOARD_NUM_OF_LED] =
  58:../src/ASF/sam/boards/cw305/led.c **** {
  59:../src/ASF/sam/boards/cw305/led.c **** #define INSERT_LED_DESCRIPTOR(LED_NO, unused)      \
  60:../src/ASF/sam/boards/cw305/led.c ****   {                                                \
  61:../src/ASF/sam/boards/cw305/led.c ****     LED##LED_NO##_GPIO, LED##LED_NO##_ACTIVE_LEVEL \
  62:../src/ASF/sam/boards/cw305/led.c ****   },
  63:../src/ASF/sam/boards/cw305/led.c ****   MREPEAT(BOARD_NUM_OF_LED, INSERT_LED_DESCRIPTOR, ~)
  64:../src/ASF/sam/boards/cw305/led.c **** #undef INSERT_LED_DESCRIPTOR
  65:../src/ASF/sam/boards/cw305/led.c **** };
  66:../src/ASF/sam/boards/cw305/led.c **** 
  67:../src/ASF/sam/boards/cw305/led.c **** /*! \brief Turns off the specified LEDs.
  68:../src/ASF/sam/boards/cw305/led.c ****  *
  69:../src/ASF/sam/boards/cw305/led.c ****  * \param led_gpio LED to turn off (LEDx_GPIO).
  70:../src/ASF/sam/boards/cw305/led.c ****  *
  71:../src/ASF/sam/boards/cw305/led.c ****  * \note The pins of the specified LEDs are set to GPIO output mode.
  72:../src/ASF/sam/boards/cw305/led.c ****  */
  73:../src/ASF/sam/boards/cw305/led.c **** void LED_Off(uint32_t led_gpio)
  74:../src/ASF/sam/boards/cw305/led.c **** {
  27              		.loc 1 74 0
  28              		.cfi_startproc
  29              		@ args = 0, pretend = 0, frame = 0
  30              		@ frame_needed = 0, uses_anonymous_args = 0
  31              	.LVL0:
  32 0000 2DE9F041 		push	{r4, r5, r6, r7, r8, lr}
  33              	.LCFI0:
  34              		.cfi_def_cfa_offset 24
  35              		.cfi_offset 4, -24
  36              		.cfi_offset 5, -20
  37              		.cfi_offset 6, -16
  38              		.cfi_offset 7, -12
  39              		.cfi_offset 8, -8
  40              		.cfi_offset 14, -4
  41 0004 0646     		mov	r6, r0
  42              	.LVL1:
  43              		.loc 1 74 0
  44 0006 0024     		movs	r4, #0
  75:../src/ASF/sam/boards/cw305/led.c **** 	uint32_t i;
  76:../src/ASF/sam/boards/cw305/led.c **** 	for (i = 0; i < BOARD_NUM_OF_LED; i++) {
  77:../src/ASF/sam/boards/cw305/led.c **** 		if (led_gpio == LED_DESCRIPTOR[i].ul_port_id) {
  45              		.loc 1 77 0
  46 0008 0A4D     		ldr	r5, .L7
  78:../src/ASF/sam/boards/cw305/led.c **** 			if (LED_DESCRIPTOR[i].ul_active_level == ACTIVE_LEVEL_IS_HIGH) {
  79:../src/ASF/sam/boards/cw305/led.c **** 				gpio_set_pin_low(led_gpio);
  80:../src/ASF/sam/boards/cw305/led.c **** 			} else {
  81:../src/ASF/sam/boards/cw305/led.c **** 				gpio_set_pin_high(led_gpio);
  47              		.loc 1 81 0
  48 000a 0B4F     		ldr	r7, .L7+4
  79:../src/ASF/sam/boards/cw305/led.c **** 			} else {
  49              		.loc 1 79 0
  50 000c DFF82C80 		ldr	r8, .L7+8
  51              	.LVL2:
  52              	.L4:
  77:../src/ASF/sam/boards/cw305/led.c **** 			if (LED_DESCRIPTOR[i].ul_active_level == ACTIVE_LEVEL_IS_HIGH) {
  53              		.loc 1 77 0
  54 0010 6359     		ldr	r3, [r4, r5]
  55 0012 B342     		cmp	r3, r6
  56 0014 08D1     		bne	.L2
  57 0016 2B19     		adds	r3, r5, r4
  78:../src/ASF/sam/boards/cw305/led.c **** 			if (LED_DESCRIPTOR[i].ul_active_level == ACTIVE_LEVEL_IS_HIGH) {
  58              		.loc 1 78 0
  59 0018 5B68     		ldr	r3, [r3, #4]
  60 001a 012B     		cmp	r3, #1
  61 001c 02D1     		bne	.L3
  79:../src/ASF/sam/boards/cw305/led.c **** 			} else {
  62              		.loc 1 79 0
  63 001e 3046     		mov	r0, r6
  64 0020 C047     		blx	r8
  65              	.LVL3:
  66 0022 01E0     		b	.L2
  67              	.L3:
  68              		.loc 1 81 0
  69 0024 3046     		mov	r0, r6
  70 0026 B847     		blx	r7
  71              	.LVL4:
  72              	.L2:
  73 0028 0834     		adds	r4, r4, #8
  76:../src/ASF/sam/boards/cw305/led.c **** 		if (led_gpio == LED_DESCRIPTOR[i].ul_port_id) {
  74              		.loc 1 76 0 discriminator 2
  75 002a 182C     		cmp	r4, #24
  76 002c F0D1     		bne	.L4
  82:../src/ASF/sam/boards/cw305/led.c **** 			}
  83:../src/ASF/sam/boards/cw305/led.c **** 		}
  84:../src/ASF/sam/boards/cw305/led.c **** 	}
  85:../src/ASF/sam/boards/cw305/led.c **** }
  77              		.loc 1 85 0
  78 002e BDE8F081 		pop	{r4, r5, r6, r7, r8, pc}
  79              	.LVL5:
  80              	.L8:
  81 0032 00BF     		.align	2
  82              	.L7:
  83 0034 00000000 		.word	.LANCHOR0
  84 0038 00000000 		.word	pio_set_pin_high
  85 003c 00000000 		.word	pio_set_pin_low
  86              		.cfi_endproc
  87              	.LFE66:
  89              		.section	.text.LED_On,"ax",%progbits
  90              		.align	2
  91              		.global	LED_On
  92              		.thumb
  93              		.thumb_func
  95              	LED_On:
  96              	.LFB67:
  86:../src/ASF/sam/boards/cw305/led.c **** 
  87:../src/ASF/sam/boards/cw305/led.c **** /*! \brief Turns on the specified LEDs.
  88:../src/ASF/sam/boards/cw305/led.c ****  *
  89:../src/ASF/sam/boards/cw305/led.c ****  * \param led_gpio LED to turn on (LEDx_GPIO).
  90:../src/ASF/sam/boards/cw305/led.c ****  *
  91:../src/ASF/sam/boards/cw305/led.c ****  * \note The pins of the specified LEDs are set to GPIO output mode.
  92:../src/ASF/sam/boards/cw305/led.c ****  */
  93:../src/ASF/sam/boards/cw305/led.c **** void LED_On(uint32_t led_gpio)
  94:../src/ASF/sam/boards/cw305/led.c **** {
  97              		.loc 1 94 0
  98              		.cfi_startproc
  99              		@ args = 0, pretend = 0, frame = 0
 100              		@ frame_needed = 0, uses_anonymous_args = 0
 101              	.LVL6:
 102 0000 2DE9F041 		push	{r4, r5, r6, r7, r8, lr}
 103              	.LCFI1:
 104              		.cfi_def_cfa_offset 24
 105              		.cfi_offset 4, -24
 106              		.cfi_offset 5, -20
 107              		.cfi_offset 6, -16
 108              		.cfi_offset 7, -12
 109              		.cfi_offset 8, -8
 110              		.cfi_offset 14, -4
 111 0004 0646     		mov	r6, r0
 112              	.LVL7:
 113              		.loc 1 94 0
 114 0006 0024     		movs	r4, #0
  95:../src/ASF/sam/boards/cw305/led.c **** 	uint32_t i;
  96:../src/ASF/sam/boards/cw305/led.c **** 	for (i = 0; i < BOARD_NUM_OF_LED; i++) {
  97:../src/ASF/sam/boards/cw305/led.c **** 		if (led_gpio == LED_DESCRIPTOR[i].ul_port_id) {
 115              		.loc 1 97 0
 116 0008 0A4D     		ldr	r5, .L15
  98:../src/ASF/sam/boards/cw305/led.c **** 			if (LED_DESCRIPTOR[i].ul_active_level == ACTIVE_LEVEL_IS_HIGH) {
  99:../src/ASF/sam/boards/cw305/led.c **** 				gpio_set_pin_high(led_gpio);
 100:../src/ASF/sam/boards/cw305/led.c **** 			} else {
 101:../src/ASF/sam/boards/cw305/led.c **** 				gpio_set_pin_low(led_gpio);
 117              		.loc 1 101 0
 118 000a 0B4F     		ldr	r7, .L15+4
  99:../src/ASF/sam/boards/cw305/led.c **** 			} else {
 119              		.loc 1 99 0
 120 000c DFF82C80 		ldr	r8, .L15+8
 121              	.LVL8:
 122              	.L12:
  97:../src/ASF/sam/boards/cw305/led.c **** 			if (LED_DESCRIPTOR[i].ul_active_level == ACTIVE_LEVEL_IS_HIGH) {
 123              		.loc 1 97 0
 124 0010 6359     		ldr	r3, [r4, r5]
 125 0012 B342     		cmp	r3, r6
 126 0014 08D1     		bne	.L10
 127 0016 2B19     		adds	r3, r5, r4
  98:../src/ASF/sam/boards/cw305/led.c **** 			if (LED_DESCRIPTOR[i].ul_active_level == ACTIVE_LEVEL_IS_HIGH) {
 128              		.loc 1 98 0
 129 0018 5B68     		ldr	r3, [r3, #4]
 130 001a 012B     		cmp	r3, #1
 131 001c 02D1     		bne	.L11
  99:../src/ASF/sam/boards/cw305/led.c **** 			} else {
 132              		.loc 1 99 0
 133 001e 3046     		mov	r0, r6
 134 0020 C047     		blx	r8
 135              	.LVL9:
 136 0022 01E0     		b	.L10
 137              	.L11:
 138              		.loc 1 101 0
 139 0024 3046     		mov	r0, r6
 140 0026 B847     		blx	r7
 141              	.LVL10:
 142              	.L10:
 143 0028 0834     		adds	r4, r4, #8
  96:../src/ASF/sam/boards/cw305/led.c **** 		if (led_gpio == LED_DESCRIPTOR[i].ul_port_id) {
 144              		.loc 1 96 0 discriminator 2
 145 002a 182C     		cmp	r4, #24
 146 002c F0D1     		bne	.L12
 102:../src/ASF/sam/boards/cw305/led.c **** 			}
 103:../src/ASF/sam/boards/cw305/led.c **** 		}
 104:../src/ASF/sam/boards/cw305/led.c **** 	}
 105:../src/ASF/sam/boards/cw305/led.c **** }
 147              		.loc 1 105 0
 148 002e BDE8F081 		pop	{r4, r5, r6, r7, r8, pc}
 149              	.LVL11:
 150              	.L16:
 151 0032 00BF     		.align	2
 152              	.L15:
 153 0034 00000000 		.word	.LANCHOR0
 154 0038 00000000 		.word	pio_set_pin_low
 155 003c 00000000 		.word	pio_set_pin_high
 156              		.cfi_endproc
 157              	.LFE67:
 159              		.section	.rodata.LED_DESCRIPTOR,"a",%progbits
 160              		.align	2
 161              		.set	.LANCHOR0,. + 0
 164              	LED_DESCRIPTOR:
 165 0000 4F000000 		.word	79
 166 0004 01000000 		.word	1
 167 0008 50000000 		.word	80
 168 000c 01000000 		.word	1
 169 0010 51000000 		.word	81
 170 0014 01000000 		.word	1
 171              		.section	.bss.cpu_irq_critical_section_counter,"aw",%nobits
 172              		.align	2
 175              	cpu_irq_critical_section_counter:
 176 0000 00000000 		.space	4
 177              		.section	.bss.cpu_irq_prev_interrupt_state,"aw",%nobits
 180              	cpu_irq_prev_interrupt_state:
 181 0000 00       		.space	1
 182              		.text
 183              	.Letext0:
 184              		.file 2 "c:\\program files (x86)\\atmel\\studio\\7.0\\toolchain\\arm\\arm-gnu-toolchain\\arm-none-
 185              		.file 3 "c:\\program files (x86)\\atmel\\studio\\7.0\\toolchain\\arm\\arm-gnu-toolchain\\arm-none-
 186              		.file 4 "../src/ASF/common/utils/interrupt/interrupt_sam_nvic.h"
 187              		.file 5 "../src/ASF/thirdparty/CMSIS/Include/core_cm3.h"