   1              		.syntax unified
   2              		.cpu cortex-m3
   3              		.fpu softvfp
   4              		.eabi_attribute 20, 1
   5              		.eabi_attribute 21, 1
   6              		.eabi_attribute 23, 3
   7              		.eabi_attribute 24, 1
   8              		.eabi_attribute 25, 1
   9              		.eabi_attribute 26, 1
  10              		.eabi_attribute 30, 1
  11              		.eabi_attribute 34, 1
  12              		.eabi_attribute 18, 4
  13              		.thumb
  14              		.file	"ui_cw305.c"
  15              		.text
  16              	.Ltext0:
  17              		.cfi_sections	.debug_frame
  18              		.section	.text.ui_init,"ax",%progbits
  19              		.align	2
  20              		.global	ui_init
  21              		.thumb
  22              		.thumb_func
  24              	ui_init:
  25              	.LFB178:
  26              		.file 1 "../src/ASF/common/services/usb/class/vendor/device/example/sam3u4e_sam3u_ek/ui_cw305.c"
   1:../src/ASF/common/services/usb/class/vendor/device/example/sam3u4e_sam3u_ek/ui_cw305.c **** /**
   2:../src/ASF/common/services/usb/class/vendor/device/example/sam3u4e_sam3u_ek/ui_cw305.c ****  * \file
   3:../src/ASF/common/services/usb/class/vendor/device/example/sam3u4e_sam3u_ek/ui_cw305.c ****  *
   4:../src/ASF/common/services/usb/class/vendor/device/example/sam3u4e_sam3u_ek/ui_cw305.c ****  * \brief User Interface
   5:../src/ASF/common/services/usb/class/vendor/device/example/sam3u4e_sam3u_ek/ui_cw305.c ****  *
   6:../src/ASF/common/services/usb/class/vendor/device/example/sam3u4e_sam3u_ek/ui_cw305.c ****  * Copyright (c) 2012 Atmel Corporation. All rights reserved.
   7:../src/ASF/common/services/usb/class/vendor/device/example/sam3u4e_sam3u_ek/ui_cw305.c ****  *
   8:../src/ASF/common/services/usb/class/vendor/device/example/sam3u4e_sam3u_ek/ui_cw305.c ****  * \asf_license_start
   9:../src/ASF/common/services/usb/class/vendor/device/example/sam3u4e_sam3u_ek/ui_cw305.c ****  *
  10:../src/ASF/common/services/usb/class/vendor/device/example/sam3u4e_sam3u_ek/ui_cw305.c ****  * \page License
  11:../src/ASF/common/services/usb/class/vendor/device/example/sam3u4e_sam3u_ek/ui_cw305.c ****  *
  12:../src/ASF/common/services/usb/class/vendor/device/example/sam3u4e_sam3u_ek/ui_cw305.c ****  * Redistribution and use in source and binary forms, with or without
  13:../src/ASF/common/services/usb/class/vendor/device/example/sam3u4e_sam3u_ek/ui_cw305.c ****  * modification, are permitted provided that the following conditions are met:
  14:../src/ASF/common/services/usb/class/vendor/device/example/sam3u4e_sam3u_ek/ui_cw305.c ****  *
  15:../src/ASF/common/services/usb/class/vendor/device/example/sam3u4e_sam3u_ek/ui_cw305.c ****  * 1. Redistributions of source code must retain the above copyright notice,
  16:../src/ASF/common/services/usb/class/vendor/device/example/sam3u4e_sam3u_ek/ui_cw305.c ****  *    this list of conditions and the following disclaimer.
  17:../src/ASF/common/services/usb/class/vendor/device/example/sam3u4e_sam3u_ek/ui_cw305.c ****  *
  18:../src/ASF/common/services/usb/class/vendor/device/example/sam3u4e_sam3u_ek/ui_cw305.c ****  * 2. Redistributions in binary form must reproduce the above copyright notice,
  19:../src/ASF/common/services/usb/class/vendor/device/example/sam3u4e_sam3u_ek/ui_cw305.c ****  *    this list of conditions and the following disclaimer in the documentation
  20:../src/ASF/common/services/usb/class/vendor/device/example/sam3u4e_sam3u_ek/ui_cw305.c ****  *    and/or other materials provided with the distribution.
  21:../src/ASF/common/services/usb/class/vendor/device/example/sam3u4e_sam3u_ek/ui_cw305.c ****  *
  22:../src/ASF/common/services/usb/class/vendor/device/example/sam3u4e_sam3u_ek/ui_cw305.c ****  * 3. The name of Atmel may not be used to endorse or promote products derived
  23:../src/ASF/common/services/usb/class/vendor/device/example/sam3u4e_sam3u_ek/ui_cw305.c ****  *    from this software without specific prior written permission.
  24:../src/ASF/common/services/usb/class/vendor/device/example/sam3u4e_sam3u_ek/ui_cw305.c ****  *
  25:../src/ASF/common/services/usb/class/vendor/device/example/sam3u4e_sam3u_ek/ui_cw305.c ****  * 4. This software may only be redistributed and used in connection with an
  26:../src/ASF/common/services/usb/class/vendor/device/example/sam3u4e_sam3u_ek/ui_cw305.c ****  *    Atmel microcontroller product.
  27:../src/ASF/common/services/usb/class/vendor/device/example/sam3u4e_sam3u_ek/ui_cw305.c ****  *
  28:../src/ASF/common/services/usb/class/vendor/device/example/sam3u4e_sam3u_ek/ui_cw305.c ****  * THIS SOFTWARE IS PROVIDED BY ATMEL "AS IS" AND ANY EXPRESS OR IMPLIED
  29:../src/ASF/common/services/usb/class/vendor/device/example/sam3u4e_sam3u_ek/ui_cw305.c ****  * WARRANTIES, INCLUDING, BUT NOT LIMITED TO, THE IMPLIED WARRANTIES OF
  30:../src/ASF/common/services/usb/class/vendor/device/example/sam3u4e_sam3u_ek/ui_cw305.c ****  * MERCHANTABILITY, FITNESS FOR A PARTICULAR PURPOSE AND NON-INFRINGEMENT ARE
  31:../src/ASF/common/services/usb/class/vendor/device/example/sam3u4e_sam3u_ek/ui_cw305.c ****  * EXPRESSLY AND SPECIFICALLY DISCLAIMED. IN NO EVENT SHALL ATMEL BE LIABLE FOR
  32:../src/ASF/common/services/usb/class/vendor/device/example/sam3u4e_sam3u_ek/ui_cw305.c ****  * ANY DIRECT, INDIRECT, INCIDENTAL, SPECIAL, EXEMPLARY, OR CONSEQUENTIAL
  33:../src/ASF/common/services/usb/class/vendor/device/example/sam3u4e_sam3u_ek/ui_cw305.c ****  * DAMAGES (INCLUDING, BUT NOT LIMITED TO, PROCUREMENT OF SUBSTITUTE GOODS
  34:../src/ASF/common/services/usb/class/vendor/device/example/sam3u4e_sam3u_ek/ui_cw305.c ****  * OR SERVICES; LOSS OF USE, DATA, OR PROFITS; OR BUSINESS INTERRUPTION)
  35:../src/ASF/common/services/usb/class/vendor/device/example/sam3u4e_sam3u_ek/ui_cw305.c ****  * HOWEVER CAUSED AND ON ANY THEORY OF LIABILITY, WHETHER IN CONTRACT,
  36:../src/ASF/common/services/usb/class/vendor/device/example/sam3u4e_sam3u_ek/ui_cw305.c ****  * STRICT LIABILITY, OR TORT (INCLUDING NEGLIGENCE OR OTHERWISE) ARISING IN
  37:../src/ASF/common/services/usb/class/vendor/device/example/sam3u4e_sam3u_ek/ui_cw305.c ****  * ANY WAY OUT OF THE USE OF THIS SOFTWARE, EVEN IF ADVISED OF THE
  38:../src/ASF/common/services/usb/class/vendor/device/example/sam3u4e_sam3u_ek/ui_cw305.c ****  * POSSIBILITY OF SUCH DAMAGE.
  39:../src/ASF/common/services/usb/class/vendor/device/example/sam3u4e_sam3u_ek/ui_cw305.c ****  *
  40:../src/ASF/common/services/usb/class/vendor/device/example/sam3u4e_sam3u_ek/ui_cw305.c ****  * \asf_license_stop
  41:../src/ASF/common/services/usb/class/vendor/device/example/sam3u4e_sam3u_ek/ui_cw305.c ****  *
  42:../src/ASF/common/services/usb/class/vendor/device/example/sam3u4e_sam3u_ek/ui_cw305.c ****  */
  43:../src/ASF/common/services/usb/class/vendor/device/example/sam3u4e_sam3u_ek/ui_cw305.c **** 
  44:../src/ASF/common/services/usb/class/vendor/device/example/sam3u4e_sam3u_ek/ui_cw305.c **** #include <asf.h>
  45:../src/ASF/common/services/usb/class/vendor/device/example/sam3u4e_sam3u_ek/ui_cw305.c **** #include "ui.h"
  46:../src/ASF/common/services/usb/class/vendor/device/example/sam3u4e_sam3u_ek/ui_cw305.c **** #include "tasks.h"
  47:../src/ASF/common/services/usb/class/vendor/device/example/sam3u4e_sam3u_ek/ui_cw305.c **** 
  48:../src/ASF/common/services/usb/class/vendor/device/example/sam3u4e_sam3u_ek/ui_cw305.c **** void ui_init(void)
  49:../src/ASF/common/services/usb/class/vendor/device/example/sam3u4e_sam3u_ek/ui_cw305.c **** {
  27              		.loc 1 49 0
  28              		.cfi_startproc
  29              		@ args = 0, pretend = 0, frame = 0
  30              		@ frame_needed = 0, uses_anonymous_args = 0
  31 0000 10B5     		push	{r4, lr}
  32              	.LCFI0:
  33              		.cfi_def_cfa_offset 8
  34              		.cfi_offset 4, -8
  35              		.cfi_offset 14, -4
  50:../src/ASF/common/services/usb/class/vendor/device/example/sam3u4e_sam3u_ek/ui_cw305.c **** 	// Initialize LEDs
  51:../src/ASF/common/services/usb/class/vendor/device/example/sam3u4e_sam3u_ek/ui_cw305.c **** 	LED_Off(LED0_GPIO);
  36              		.loc 1 51 0
  37 0002 4F20     		movs	r0, #79
  38 0004 034C     		ldr	r4, .L3
  39 0006 A047     		blx	r4
  40              	.LVL0:
  52:../src/ASF/common/services/usb/class/vendor/device/example/sam3u4e_sam3u_ek/ui_cw305.c **** 	LED_Off(LED1_GPIO);
  41              		.loc 1 52 0
  42 0008 5020     		movs	r0, #80
  43 000a A047     		blx	r4
  44              	.LVL1:
  53:../src/ASF/common/services/usb/class/vendor/device/example/sam3u4e_sam3u_ek/ui_cw305.c **** 	LED_Off(LED2_GPIO);
  45              		.loc 1 53 0
  46 000c 5120     		movs	r0, #81
  47 000e A047     		blx	r4
  48              	.LVL2:
  49 0010 10BD     		pop	{r4, pc}
  50              	.L4:
  51 0012 00BF     		.align	2
  52              	.L3:
  53 0014 00000000 		.word	LED_Off
  54              		.cfi_endproc
  55              	.LFE178:
  57              		.section	.text.ui_powerdown,"ax",%progbits
  58              		.align	2
  59              		.global	ui_powerdown
  60              		.thumb
  61              		.thumb_func
  63              	ui_powerdown:
  64              	.LFB179:
  54:../src/ASF/common/services/usb/class/vendor/device/example/sam3u4e_sam3u_ek/ui_cw305.c **** }
  55:../src/ASF/common/services/usb/class/vendor/device/example/sam3u4e_sam3u_ek/ui_cw305.c **** 
  56:../src/ASF/common/services/usb/class/vendor/device/example/sam3u4e_sam3u_ek/ui_cw305.c **** void ui_powerdown(void)
  57:../src/ASF/common/services/usb/class/vendor/device/example/sam3u4e_sam3u_ek/ui_cw305.c **** {
  65              		.loc 1 57 0
  66              		.cfi_startproc
  67              		@ args = 0, pretend = 0, frame = 0
  68              		@ frame_needed = 0, uses_anonymous_args = 0
  69 0000 10B5     		push	{r4, lr}
  70              	.LCFI1:
  71              		.cfi_def_cfa_offset 8
  72              		.cfi_offset 4, -8
  73              		.cfi_offset 14, -4
  58:../src/ASF/common/services/usb/class/vendor/device/example/sam3u4e_sam3u_ek/ui_cw305.c **** 	LED_Off(LED0_GPIO);
  74              		.loc 1 58 0
  75 0002 4F20     		movs	r0, #79
  76 0004 044C     		ldr	r4, .L7
  77 0006 A047     		blx	r4
  78              	.LVL3:
  59:../src/ASF/common/services/usb/class/vendor/device/example/sam3u4e_sam3u_ek/ui_cw305.c **** 	LED_Off(LED1_GPIO);
  79              		.loc 1 59 0
  80 0008 5020     		movs	r0, #80
  81 000a A047     		blx	r4
  82              	.LVL4:
  60:../src/ASF/common/services/usb/class/vendor/device/example/sam3u4e_sam3u_ek/ui_cw305.c **** 	LED_Off(LED2_GPIO);
  83              		.loc 1 60 0
  84 000c 5120     		movs	r0, #81
  85 000e A047     		blx	r4
  86              	.LVL5:
  61:../src/ASF/common/services/usb/class/vendor/device/example/sam3u4e_sam3u_ek/ui_cw305.c **** 	
  62:../src/ASF/common/services/usb/class/vendor/device/example/sam3u4e_sam3u_ek/ui_cw305.c **** 	// Power off FPGA
  63:../src/ASF/common/services/usb/class/vendor/device/example/sam3u4e_sam3u_ek/ui_cw305.c **** 	board_power(0);
  87              		.loc 1 63 0
  88 0010 3F20     		movs	r0, #63
  89 0012 024B     		ldr	r3, .L7+4
  90 0014 9847     		blx	r3
  91              	.LVL6:
  92 0016 10BD     		pop	{r4, pc}
  93              	.L8:
  94              		.align	2
  95              	.L7:
  96 0018 00000000 		.word	LED_Off
  97 001c 00000000 		.word	pio_set_pin_low
  98              		.cfi_endproc
  99              	.LFE179:
 101              		.section	.text.ui_wakeup,"ax",%progbits
 102              		.align	2
 103              		.global	ui_wakeup
 104              		.thumb
 105              		.thumb_func
 107              	ui_wakeup:
 108              	.LFB180:
  64:../src/ASF/common/services/usb/class/vendor/device/example/sam3u4e_sam3u_ek/ui_cw305.c **** 		
  65:../src/ASF/common/services/usb/class/vendor/device/example/sam3u4e_sam3u_ek/ui_cw305.c **** }
  66:../src/ASF/common/services/usb/class/vendor/device/example/sam3u4e_sam3u_ek/ui_cw305.c **** 
  67:../src/ASF/common/services/usb/class/vendor/device/example/sam3u4e_sam3u_ek/ui_cw305.c **** void ui_wakeup(void)
  68:../src/ASF/common/services/usb/class/vendor/device/example/sam3u4e_sam3u_ek/ui_cw305.c **** {
 109              		.loc 1 68 0
 110              		.cfi_startproc
 111              		@ args = 0, pretend = 0, frame = 0
 112              		@ frame_needed = 0, uses_anonymous_args = 0
 113 0000 08B5     		push	{r3, lr}
 114              	.LCFI2:
 115              		.cfi_def_cfa_offset 8
 116              		.cfi_offset 3, -8
 117              		.cfi_offset 14, -4
  69:../src/ASF/common/services/usb/class/vendor/device/example/sam3u4e_sam3u_ek/ui_cw305.c **** 	LED_On(LED0_GPIO);
 118              		.loc 1 69 0
 119 0002 4F20     		movs	r0, #79
 120 0004 024B     		ldr	r3, .L11
 121 0006 9847     		blx	r3
 122              	.LVL7:
  70:../src/ASF/common/services/usb/class/vendor/device/example/sam3u4e_sam3u_ek/ui_cw305.c **** 	board_power(1);
 123              		.loc 1 70 0
 124 0008 3F20     		movs	r0, #63
 125 000a 024B     		ldr	r3, .L11+4
 126 000c 9847     		blx	r3
 127              	.LVL8:
 128 000e 08BD     		pop	{r3, pc}
 129              	.L12:
 130              		.align	2
 131              	.L11:
 132 0010 00000000 		.word	LED_On
 133 0014 00000000 		.word	pio_set_pin_high
 134              		.cfi_endproc
 135              	.LFE180:
 137              		.section	.text.ui_loop_back_state,"ax",%progbits
 138              		.align	2
 139              		.global	ui_loop_back_state
 140              		.thumb
 141              		.thumb_func
 143              	ui_loop_back_state:
 144              	.LFB181:
  71:../src/ASF/common/services/usb/class/vendor/device/example/sam3u4e_sam3u_ek/ui_cw305.c **** }
  72:../src/ASF/common/services/usb/class/vendor/device/example/sam3u4e_sam3u_ek/ui_cw305.c **** 
  73:../src/ASF/common/services/usb/class/vendor/device/example/sam3u4e_sam3u_ek/ui_cw305.c **** void ui_loop_back_state(bool b_started)
  74:../src/ASF/common/services/usb/class/vendor/device/example/sam3u4e_sam3u_ek/ui_cw305.c **** {
 145              		.loc 1 74 0
 146              		.cfi_startproc
 147              		@ args = 0, pretend = 0, frame = 0
 148              		@ frame_needed = 0, uses_anonymous_args = 0
 149              	.LVL9:
 150 0000 08B5     		push	{r3, lr}
 151              	.LCFI3:
 152              		.cfi_def_cfa_offset 8
 153              		.cfi_offset 3, -8
 154              		.cfi_offset 14, -4
  75:../src/ASF/common/services/usb/class/vendor/device/example/sam3u4e_sam3u_ek/ui_cw305.c **** 	if (b_started) {
 155              		.loc 1 75 0
 156 0002 18B1     		cbz	r0, .L14
  76:../src/ASF/common/services/usb/class/vendor/device/example/sam3u4e_sam3u_ek/ui_cw305.c **** 		LED_On(LED1_GPIO);
 157              		.loc 1 76 0
 158 0004 5020     		movs	r0, #80
 159              	.LVL10:
 160 0006 034B     		ldr	r3, .L17
 161 0008 9847     		blx	r3
 162              	.LVL11:
 163 000a 08BD     		pop	{r3, pc}
 164              	.LVL12:
 165              	.L14:
  77:../src/ASF/common/services/usb/class/vendor/device/example/sam3u4e_sam3u_ek/ui_cw305.c **** 	} else {
  78:../src/ASF/common/services/usb/class/vendor/device/example/sam3u4e_sam3u_ek/ui_cw305.c **** 		LED_Off(LED1_GPIO);
 166              		.loc 1 78 0
 167 000c 5020     		movs	r0, #80
 168              	.LVL13:
 169 000e 024B     		ldr	r3, .L17+4
 170 0010 9847     		blx	r3
 171              	.LVL14:
 172 0012 08BD     		pop	{r3, pc}
 173              	.L18:
 174              		.align	2
 175              	.L17:
 176 0014 00000000 		.word	LED_On
 177 0018 00000000 		.word	LED_Off
 178              		.cfi_endproc
 179              	.LFE181:
 181              		.section	.text.ui_process,"ax",%progbits
 182              		.align	2
 183              		.global	ui_process
 184              		.thumb
 185              		.thumb_func
 187              	ui_process:
 188              	.LFB182:
  79:../src/ASF/common/services/usb/class/vendor/device/example/sam3u4e_sam3u_ek/ui_cw305.c **** 	}
  80:../src/ASF/common/services/usb/class/vendor/device/example/sam3u4e_sam3u_ek/ui_cw305.c **** }
  81:../src/ASF/common/services/usb/class/vendor/device/example/sam3u4e_sam3u_ek/ui_cw305.c **** 
  82:../src/ASF/common/services/usb/class/vendor/device/example/sam3u4e_sam3u_ek/ui_cw305.c **** void ui_process(uint16_t framenumber)
  83:../src/ASF/common/services/usb/class/vendor/device/example/sam3u4e_sam3u_ek/ui_cw305.c **** {
 189              		.loc 1 83 0
 190              		.cfi_startproc
 191              		@ args = 0, pretend = 0, frame = 0
 192              		@ frame_needed = 0, uses_anonymous_args = 0
 193              	.LVL15:
 194 0000 08B5     		push	{r3, lr}
 195              	.LCFI4:
 196              		.cfi_def_cfa_offset 8
 197              		.cfi_offset 3, -8
 198              		.cfi_offset 14, -4
  84:../src/ASF/common/services/usb/class/vendor/device/example/sam3u4e_sam3u_ek/ui_cw305.c **** 	if ((framenumber % 1000) == 0) {
 199              		.loc 1 84 0
 200 0002 0C4B     		ldr	r3, .L23
 201 0004 A3FB0023 		umull	r2, r3, r3, r0
 202 0008 9B09     		lsrs	r3, r3, #6
 203 000a 4FF47A72 		mov	r2, #1000
 204 000e 02FB1300 		mls	r0, r2, r3, r0
 205              	.LVL16:
 206 0012 80B2     		uxth	r0, r0
 207 0014 18B9     		cbnz	r0, .L20
  85:../src/ASF/common/services/usb/class/vendor/device/example/sam3u4e_sam3u_ek/ui_cw305.c **** 		LED_On(LED0_GPIO);
 208              		.loc 1 85 0
 209 0016 4F20     		movs	r0, #79
 210 0018 074B     		ldr	r3, .L23+4
 211 001a 9847     		blx	r3
 212              	.LVL17:
 213 001c 05E0     		b	.L21
 214              	.L20:
  86:../src/ASF/common/services/usb/class/vendor/device/example/sam3u4e_sam3u_ek/ui_cw305.c **** 	}
  87:../src/ASF/common/services/usb/class/vendor/device/example/sam3u4e_sam3u_ek/ui_cw305.c **** 	if ((framenumber % 1000) == 500) {
 215              		.loc 1 87 0
 216 001e B0F5FA7F 		cmp	r0, #500
 217 0022 02D1     		bne	.L21
  88:../src/ASF/common/services/usb/class/vendor/device/example/sam3u4e_sam3u_ek/ui_cw305.c **** 		LED_Off(LED0_GPIO);
 218              		.loc 1 88 0
 219 0024 4F20     		movs	r0, #79
 220 0026 054B     		ldr	r3, .L23+8
 221 0028 9847     		blx	r3
 222              	.LVL18:
 223              	.L21:
  89:../src/ASF/common/services/usb/class/vendor/device/example/sam3u4e_sam3u_ek/ui_cw305.c **** 	}
  90:../src/ASF/common/services/usb/class/vendor/device/example/sam3u4e_sam3u_ek/ui_cw305.c **** 	
  91:../src/ASF/common/services/usb/class/vendor/device/example/sam3u4e_sam3u_ek/ui_cw305.c **** 	task_tickCnt++;
 224              		.loc 1 91 0
 225 002a 054A     		ldr	r2, .L23+12
 226 002c 1368     		ldr	r3, [r2]
 227 002e 0133     		adds	r3, r3, #1
 228 0030 1360     		str	r3, [r2]
 229 0032 08BD     		pop	{r3, pc}
 230              	.L24:
 231              		.align	2
 232              	.L23:
 233 0034 D34D6210 		.word	274877907
 234 0038 00000000 		.word	LED_On
 235 003c 00000000 		.word	LED_Off
 236 0040 00000000 		.word	task_tickCnt
 237              		.cfi_endproc
 238              	.LFE182:
 240              		.section	.bss.cpu_irq_critical_section_counter,"aw",%nobits
 241              		.align	2
 244              	cpu_irq_critical_section_counter:
 245 0000 00000000 		.space	4
 246              		.section	.bss.cpu_irq_prev_interrupt_state,"aw",%nobits
 249              	cpu_irq_prev_interrupt_state:
 250 0000 00       		.space	1
 251              		.text
 252              	.Letext0:
 253              		.file 2 "c:\\program files (x86)\\atmel\\studio\\7.0\\toolchain\\arm\\arm-gnu-toolchain\\arm-none-
 254              		.file 3 "c:\\program files (x86)\\atmel\\studio\\7.0\\toolchain\\arm\\arm-gnu-toolchain\\arm-none-
 255              		.file 4 "../src/ASF/common/utils/interrupt/interrupt_sam_nvic.h"
 256              		.file 5 "../src/ASF/thirdparty/CMSIS/Include/core_cm3.h"
 257              		.file 6 "../src/ASF/common/services/sleepmgr/sam/sleepmgr.h"
 258              		.file 7 "../src/tasks.h"