   1              	 .cpu cortex-m3
   2              	 .eabi_attribute 20,1
   3              	 .eabi_attribute 21,1
   4              	 .eabi_attribute 23,3
   5              	 .eabi_attribute 24,1
   6              	 .eabi_attribute 25,1
   7              	 .eabi_attribute 26,1
   8              	 .eabi_attribute 30,6
   9              	 .eabi_attribute 34,1
  10              	 .eabi_attribute 18,4
  11              	 .file "chipid.c"
  12              	 .text
  13              	.Ltext0:
  14              	 .cfi_sections .debug_frame
  15              	 .section .bss.cpu_irq_critical_section_counter,"aw",%nobits
  16              	 .align 2
  19              	cpu_irq_critical_section_counter:
  20 0000 00000000 	 .space 4
  21              	 .section .bss.cpu_irq_prev_interrupt_state,"aw",%nobits
  24              	cpu_irq_prev_interrupt_state:
  25 0000 00       	 .space 1
  26              	 .section .text.chipid_read,"ax",%progbits
  27              	 .align 1
  28              	 .global chipid_read
  29              	 .arch armv7-m
  30              	 .syntax unified
  31              	 .thumb
  32              	 .thumb_func
  33              	 .fpu softvfp
  35              	chipid_read:
  36              	.LFB69:
  37              	 .file 1 ".././hal/sam3u1c/chipid.c"
   1:.././hal/sam3u1c/chipid.c **** /**
   2:.././hal/sam3u1c/chipid.c ****  * \file
   3:.././hal/sam3u1c/chipid.c ****  *
   4:.././hal/sam3u1c/chipid.c ****  * \brief Chip Identifier (CHIPID) driver for SAM.
   5:.././hal/sam3u1c/chipid.c ****  *
   6:.././hal/sam3u1c/chipid.c ****  * Copyright (c) 2011-2013 Atmel Corporation. All rights reserved.
   7:.././hal/sam3u1c/chipid.c ****  *
   8:.././hal/sam3u1c/chipid.c ****  * \asf_license_start
   9:.././hal/sam3u1c/chipid.c ****  *
  10:.././hal/sam3u1c/chipid.c ****  * \page License
  11:.././hal/sam3u1c/chipid.c ****  *
  12:.././hal/sam3u1c/chipid.c ****  * Redistribution and use in source and binary forms, with or without
  13:.././hal/sam3u1c/chipid.c ****  * modification, are permitted provided that the following conditions are met:
  14:.././hal/sam3u1c/chipid.c ****  *
  15:.././hal/sam3u1c/chipid.c ****  * 1. Redistributions of source code must retain the above copyright notice,
  16:.././hal/sam3u1c/chipid.c ****  *    this list of conditions and the following disclaimer.
  17:.././hal/sam3u1c/chipid.c ****  *
  18:.././hal/sam3u1c/chipid.c ****  * 2. Redistributions in binary form must reproduce the above copyright notice,
  19:.././hal/sam3u1c/chipid.c ****  *    this list of conditions and the following disclaimer in the documentation
  20:.././hal/sam3u1c/chipid.c ****  *    and/or other materials provided with the distribution.
  21:.././hal/sam3u1c/chipid.c ****  *
  22:.././hal/sam3u1c/chipid.c ****  * 3. The name of Atmel may not be used to endorse or promote products derived
  23:.././hal/sam3u1c/chipid.c ****  *    from this software without specific prior written permission.
  24:.././hal/sam3u1c/chipid.c ****  *
  25:.././hal/sam3u1c/chipid.c ****  * 4. This software may only be redistributed and used in connection with an
  26:.././hal/sam3u1c/chipid.c ****  *    Atmel microcontroller product.
  27:.././hal/sam3u1c/chipid.c ****  *
  28:.././hal/sam3u1c/chipid.c ****  * THIS SOFTWARE IS PROVIDED BY ATMEL "AS IS" AND ANY EXPRESS OR IMPLIED
  29:.././hal/sam3u1c/chipid.c ****  * WARRANTIES, INCLUDING, BUT NOT LIMITED TO, THE IMPLIED WARRANTIES OF
  30:.././hal/sam3u1c/chipid.c ****  * MERCHANTABILITY, FITNESS FOR A PARTICULAR PURPOSE AND NON-INFRINGEMENT ARE
  31:.././hal/sam3u1c/chipid.c ****  * EXPRESSLY AND SPECIFICALLY DISCLAIMED. IN NO EVENT SHALL ATMEL BE LIABLE FOR
  32:.././hal/sam3u1c/chipid.c ****  * ANY DIRECT, INDIRECT, INCIDENTAL, SPECIAL, EXEMPLARY, OR CONSEQUENTIAL
  33:.././hal/sam3u1c/chipid.c ****  * DAMAGES (INCLUDING, BUT NOT LIMITED TO, PROCUREMENT OF SUBSTITUTE GOODS
  34:.././hal/sam3u1c/chipid.c ****  * OR SERVICES; LOSS OF USE, DATA, OR PROFITS; OR BUSINESS INTERRUPTION)
  35:.././hal/sam3u1c/chipid.c ****  * HOWEVER CAUSED AND ON ANY THEORY OF LIABILITY, WHETHER IN CONTRACT,
  36:.././hal/sam3u1c/chipid.c ****  * STRICT LIABILITY, OR TORT (INCLUDING NEGLIGENCE OR OTHERWISE) ARISING IN
  37:.././hal/sam3u1c/chipid.c ****  * ANY WAY OUT OF THE USE OF THIS SOFTWARE, EVEN IF ADVISED OF THE
  38:.././hal/sam3u1c/chipid.c ****  * POSSIBILITY OF SUCH DAMAGE.
  39:.././hal/sam3u1c/chipid.c ****  *
  40:.././hal/sam3u1c/chipid.c ****  * \asf_license_stop
  41:.././hal/sam3u1c/chipid.c ****  *
  42:.././hal/sam3u1c/chipid.c ****  */
  43:.././hal/sam3u1c/chipid.c **** 
  44:.././hal/sam3u1c/chipid.c **** #include "chipid.h"
  45:.././hal/sam3u1c/chipid.c **** 
  46:.././hal/sam3u1c/chipid.c **** /// @cond 0
  47:.././hal/sam3u1c/chipid.c **** /**INDENT-OFF**/
  48:.././hal/sam3u1c/chipid.c **** #ifdef __cplusplus
  49:.././hal/sam3u1c/chipid.c **** extern "C" {
  50:.././hal/sam3u1c/chipid.c **** #endif
  51:.././hal/sam3u1c/chipid.c **** /**INDENT-ON**/
  52:.././hal/sam3u1c/chipid.c **** /// @endcond
  53:.././hal/sam3u1c/chipid.c **** 
  54:.././hal/sam3u1c/chipid.c **** /**
  55:.././hal/sam3u1c/chipid.c ****  * \defgroup sam_drivers_chipid_group Chip Identifier (CHIPID)
  56:.././hal/sam3u1c/chipid.c ****  *
  57:.././hal/sam3u1c/chipid.c ****  * \par Purpose
  58:.././hal/sam3u1c/chipid.c ****  *
  59:.././hal/sam3u1c/chipid.c ****  * Driver for the Chip Identifier. This driver provides access to the main 
  60:.././hal/sam3u1c/chipid.c ****  * features of the CHIPID.
  61:.././hal/sam3u1c/chipid.c ****  *
  62:.././hal/sam3u1c/chipid.c ****  * \par Usage
  63:.././hal/sam3u1c/chipid.c ****  *
  64:.././hal/sam3u1c/chipid.c ****  * -# Read whole Chip ID information to a struct using \ref chipid_read().
  65:.././hal/sam3u1c/chipid.c ****  *    The read data is defined using \ref chipid_data_t.
  66:.././hal/sam3u1c/chipid.c ****  * -# Read Chip ID fields using following functions:
  67:.././hal/sam3u1c/chipid.c ****  *    - Device version: \ref chipid_read_version();
  68:.././hal/sam3u1c/chipid.c ****  *    - Embedded processor: \ref chipid_read_processor();
  69:.././hal/sam3u1c/chipid.c ****  *    - Non volatile program memory size: \ref chipid_read_sramsize();
  70:.././hal/sam3u1c/chipid.c ****  *    - Second non volatile program memory size: \ref chipid_read_nvpm2size();
  71:.././hal/sam3u1c/chipid.c ****  *    - Internal SRAM size: \ref chipid_read_sramsize();
  72:.././hal/sam3u1c/chipid.c ****  *    - Architecture Identifier: \ref chipid_read_arch();
  73:.././hal/sam3u1c/chipid.c ****  *    - Non volatile program memory type: \ref chipid_read_nvpmtype();
  74:.././hal/sam3u1c/chipid.c ****  *    - Extension flag: \ref chipid_read_extchipid().
  75:.././hal/sam3u1c/chipid.c ****  *
  76:.././hal/sam3u1c/chipid.c ****  * \section dependencies Dependencies
  77:.././hal/sam3u1c/chipid.c ****  * This driver does not depend on other modules.
  78:.././hal/sam3u1c/chipid.c ****  *
  79:.././hal/sam3u1c/chipid.c ****  * @{
  80:.././hal/sam3u1c/chipid.c ****  */
  81:.././hal/sam3u1c/chipid.c **** 
  82:.././hal/sam3u1c/chipid.c **** /**
  83:.././hal/sam3u1c/chipid.c ****  * \brief Get chip identifier information.
  84:.././hal/sam3u1c/chipid.c ****  *
  85:.././hal/sam3u1c/chipid.c ****  * \param p_chipid Pointer to a CHIPID instance.
  86:.././hal/sam3u1c/chipid.c ****  * \param p_chipid_data Pointer to a data structure to store chip information.
  87:.././hal/sam3u1c/chipid.c ****  *
  88:.././hal/sam3u1c/chipid.c ****  * \return 0 on success.
  89:.././hal/sam3u1c/chipid.c ****  */
  90:.././hal/sam3u1c/chipid.c **** uint32_t chipid_read(Chipid *p_chipid, chipid_data_t *p_chipid_data)
  91:.././hal/sam3u1c/chipid.c **** {
  38              	 .loc 1 91 1
  39              	 .cfi_startproc
  40              	 
  41              	 
  42              	 
  43 0000 80B4     	 push {r7}
  44              	.LCFI0:
  45              	 .cfi_def_cfa_offset 4
  46              	 .cfi_offset 7,-4
  47 0002 83B0     	 sub sp,sp,#12
  48              	.LCFI1:
  49              	 .cfi_def_cfa_offset 16
  50 0004 00AF     	 add r7,sp,#0
  51              	.LCFI2:
  52              	 .cfi_def_cfa_register 7
  53 0006 7860     	 str r0,[r7,#4]
  54 0008 3960     	 str r1,[r7]
  92:.././hal/sam3u1c/chipid.c **** 	if (NULL == p_chipid_data) {
  55              	 .loc 1 92 5
  56 000a 3B68     	 ldr r3,[r7]
  57 000c 002B     	 cmp r3,#0
  58 000e 02D1     	 bne .L2
  93:.././hal/sam3u1c/chipid.c **** 		return 0xFFFFFFFF;
  59              	 .loc 1 93 10
  60 0010 4FF0FF33 	 mov r3,#-1
  61 0014 3CE0     	 b .L3
  62              	.L2:
  94:.././hal/sam3u1c/chipid.c **** 	}
  95:.././hal/sam3u1c/chipid.c **** 	
  96:.././hal/sam3u1c/chipid.c **** 	p_chipid_data->ul_version =
  97:.././hal/sam3u1c/chipid.c **** 		(p_chipid->CHIPID_CIDR & CHIPID_CIDR_VERSION_Msk) >>
  63              	 .loc 1 97 12
  64 0016 7B68     	 ldr r3,[r7,#4]
  65 0018 1B68     	 ldr r3,[r3]
  66              	 .loc 1 97 53
  67 001a 03F01F02 	 and r2,r3,#31
  96:.././hal/sam3u1c/chipid.c **** 		(p_chipid->CHIPID_CIDR & CHIPID_CIDR_VERSION_Msk) >>
  68              	 .loc 1 96 28
  69 001e 3B68     	 ldr r3,[r7]
  70 0020 1A60     	 str r2,[r3]
  98:.././hal/sam3u1c/chipid.c **** 			CHIPID_CIDR_VERSION_Pos;
  99:.././hal/sam3u1c/chipid.c **** 	p_chipid_data->ul_eproc =
 100:.././hal/sam3u1c/chipid.c **** 		(p_chipid->CHIPID_CIDR & CHIPID_CIDR_EPROC_Msk) >>
  71              	 .loc 1 100 12
  72 0022 7B68     	 ldr r3,[r7,#4]
  73 0024 1B68     	 ldr r3,[r3]
  74              	 .loc 1 100 51
  75 0026 5B09     	 lsrs r3,r3,#5
  76 0028 03F00702 	 and r2,r3,#7
  99:.././hal/sam3u1c/chipid.c **** 		(p_chipid->CHIPID_CIDR & CHIPID_CIDR_EPROC_Msk) >>
  77              	 .loc 1 99 26
  78 002c 3B68     	 ldr r3,[r7]
  79 002e 5A60     	 str r2,[r3,#4]
 101:.././hal/sam3u1c/chipid.c **** 			CHIPID_CIDR_EPROC_Pos;
 102:.././hal/sam3u1c/chipid.c **** 	p_chipid_data->ul_nvpsiz =
 103:.././hal/sam3u1c/chipid.c **** 		(p_chipid->CHIPID_CIDR & CHIPID_CIDR_NVPSIZ_Msk) >>
  80              	 .loc 1 103 12
  81 0030 7B68     	 ldr r3,[r7,#4]
  82 0032 1B68     	 ldr r3,[r3]
  83              	 .loc 1 103 52
  84 0034 1B0A     	 lsrs r3,r3,#8
  85 0036 03F00F02 	 and r2,r3,#15
 102:.././hal/sam3u1c/chipid.c **** 		(p_chipid->CHIPID_CIDR & CHIPID_CIDR_NVPSIZ_Msk) >>
  86              	 .loc 1 102 27
  87 003a 3B68     	 ldr r3,[r7]
  88 003c 9A60     	 str r2,[r3,#8]
 104:.././hal/sam3u1c/chipid.c **** 			CHIPID_CIDR_NVPSIZ_Pos;
 105:.././hal/sam3u1c/chipid.c **** 	p_chipid_data->ul_nvpsiz2 =
 106:.././hal/sam3u1c/chipid.c **** 		(p_chipid->CHIPID_CIDR & CHIPID_CIDR_NVPSIZ2_Pos) >>
  89              	 .loc 1 106 12
  90 003e 7B68     	 ldr r3,[r7,#4]
  91 0040 1B68     	 ldr r3,[r3]
 105:.././hal/sam3u1c/chipid.c **** 		(p_chipid->CHIPID_CIDR & CHIPID_CIDR_NVPSIZ2_Pos) >>
  92              	 .loc 1 105 28
  93 0042 3B68     	 ldr r3,[r7]
  94 0044 0022     	 movs r2,#0
  95 0046 DA60     	 str r2,[r3,#12]
 107:.././hal/sam3u1c/chipid.c **** 			CHIPID_CIDR_NVPSIZ2_Pos;
 108:.././hal/sam3u1c/chipid.c **** 	p_chipid_data->ul_sramsiz =
 109:.././hal/sam3u1c/chipid.c **** 		(p_chipid->CHIPID_CIDR & CHIPID_CIDR_SRAMSIZ_Msk) >>
  96              	 .loc 1 109 12
  97 0048 7B68     	 ldr r3,[r7,#4]
  98 004a 1B68     	 ldr r3,[r3]
  99              	 .loc 1 109 53
 100 004c 1B0C     	 lsrs r3,r3,#16
 101 004e 03F00F02 	 and r2,r3,#15
 108:.././hal/sam3u1c/chipid.c **** 		(p_chipid->CHIPID_CIDR & CHIPID_CIDR_SRAMSIZ_Msk) >>
 102              	 .loc 1 108 28
 103 0052 3B68     	 ldr r3,[r7]
 104 0054 1A61     	 str r2,[r3,#16]
 110:.././hal/sam3u1c/chipid.c **** 			CHIPID_CIDR_SRAMSIZ_Pos;
 111:.././hal/sam3u1c/chipid.c **** 	p_chipid_data->ul_arch =
 112:.././hal/sam3u1c/chipid.c **** 		(p_chipid->CHIPID_CIDR & CHIPID_CIDR_ARCH_Msk) >>
 105              	 .loc 1 112 12
 106 0056 7B68     	 ldr r3,[r7,#4]
 107 0058 1B68     	 ldr r3,[r3]
 108              	 .loc 1 112 50
 109 005a 1B0D     	 lsrs r3,r3,#20
 110 005c DAB2     	 uxtb r2,r3
 111:.././hal/sam3u1c/chipid.c **** 		(p_chipid->CHIPID_CIDR & CHIPID_CIDR_ARCH_Msk) >>
 111              	 .loc 1 111 25
 112 005e 3B68     	 ldr r3,[r7]
 113 0060 5A61     	 str r2,[r3,#20]
 113:.././hal/sam3u1c/chipid.c **** 			CHIPID_CIDR_ARCH_Pos;
 114:.././hal/sam3u1c/chipid.c **** 	p_chipid_data->ul_nvptyp =
 115:.././hal/sam3u1c/chipid.c **** 		(p_chipid->CHIPID_CIDR & CHIPID_CIDR_NVPTYP_Msk) >>
 114              	 .loc 1 115 12
 115 0062 7B68     	 ldr r3,[r7,#4]
 116 0064 1B68     	 ldr r3,[r3]
 117              	 .loc 1 115 52
 118 0066 1B0F     	 lsrs r3,r3,#28
 119 0068 03F00702 	 and r2,r3,#7
 114:.././hal/sam3u1c/chipid.c **** 		(p_chipid->CHIPID_CIDR & CHIPID_CIDR_NVPTYP_Msk) >>
 120              	 .loc 1 114 27
 121 006c 3B68     	 ldr r3,[r7]
 122 006e 9A61     	 str r2,[r3,#24]
 116:.././hal/sam3u1c/chipid.c **** 			CHIPID_CIDR_NVPTYP_Pos;
 117:.././hal/sam3u1c/chipid.c **** 	p_chipid_data->ul_extflag =
 118:.././hal/sam3u1c/chipid.c **** 		(p_chipid->CHIPID_CIDR & CHIPID_CIDR_EXT) >> 31;
 123              	 .loc 1 118 12
 124 0070 7B68     	 ldr r3,[r7,#4]
 125 0072 1B68     	 ldr r3,[r3]
 126              	 .loc 1 118 45
 127 0074 DB0F     	 lsrs r3,r3,#31
 128 0076 03F00102 	 and r2,r3,#1
 117:.././hal/sam3u1c/chipid.c **** 		(p_chipid->CHIPID_CIDR & CHIPID_CIDR_EXT) >> 31;
 129              	 .loc 1 117 28
 130 007a 3B68     	 ldr r3,[r7]
 131 007c DA61     	 str r2,[r3,#28]
 119:.././hal/sam3u1c/chipid.c **** 		
 120:.././hal/sam3u1c/chipid.c **** 	if (p_chipid_data->ul_extflag) {
 132              	 .loc 1 120 19
 133 007e 3B68     	 ldr r3,[r7]
 134 0080 DB69     	 ldr r3,[r3,#28]
 135              	 .loc 1 120 5
 136 0082 002B     	 cmp r3,#0
 137 0084 03D0     	 beq .L4
 121:.././hal/sam3u1c/chipid.c **** 		p_chipid_data->ul_extid =
 122:.././hal/sam3u1c/chipid.c **** 			p_chipid->CHIPID_EXID & CHIPID_EXID_EXID_Msk;
 138              	 .loc 1 122 12
 139 0086 7B68     	 ldr r3,[r7,#4]
 140 0088 5A68     	 ldr r2,[r3,#4]
 121:.././hal/sam3u1c/chipid.c **** 		p_chipid_data->ul_extid =
 141              	 .loc 1 121 27
 142 008a 3B68     	 ldr r3,[r7]
 143 008c 1A62     	 str r2,[r3,#32]
 144              	.L4:
 123:.././hal/sam3u1c/chipid.c **** 	}
 124:.././hal/sam3u1c/chipid.c **** 	return 0;
 145              	 .loc 1 124 9
 146 008e 0023     	 movs r3,#0
 147              	.L3:
 125:.././hal/sam3u1c/chipid.c **** }
 148              	 .loc 1 125 1
 149 0090 1846     	 mov r0,r3
 150 0092 0C37     	 adds r7,r7,#12
 151              	.LCFI3:
 152              	 .cfi_def_cfa_offset 4
 153 0094 BD46     	 mov sp,r7
 154              	.LCFI4:
 155              	 .cfi_def_cfa_register 13
 156              	 
 157 0096 80BC     	 pop {r7}
 158              	.LCFI5:
 159              	 .cfi_restore 7
 160              	 .cfi_def_cfa_offset 0
 161 0098 7047     	 bx lr
 162              	 .cfi_endproc
 163              	.LFE69:
 165              	 .section .text.chipid_read_version,"ax",%progbits
 166              	 .align 1
 167              	 .global chipid_read_version
 168              	 .syntax unified
 169              	 .thumb
 170              	 .thumb_func
 171              	 .fpu softvfp
 173              	chipid_read_version:
 174              	.LFB70:
 126:.././hal/sam3u1c/chipid.c **** 
 127:.././hal/sam3u1c/chipid.c **** /**
 128:.././hal/sam3u1c/chipid.c ****  * \brief Get the revision number of the silicon.
 129:.././hal/sam3u1c/chipid.c ****  *
 130:.././hal/sam3u1c/chipid.c ****  * \param p_chipid Pointer to a CHIPID instance.
 131:.././hal/sam3u1c/chipid.c ****  *
 132:.././hal/sam3u1c/chipid.c ****  * \return Revision number of the silicon.
 133:.././hal/sam3u1c/chipid.c ****  */
 134:.././hal/sam3u1c/chipid.c **** uint32_t chipid_read_version(Chipid *p_chipid)
 135:.././hal/sam3u1c/chipid.c **** {
 175              	 .loc 1 135 1
 176              	 .cfi_startproc
 177              	 
 178              	 
 179              	 
 180 0000 80B4     	 push {r7}
 181              	.LCFI6:
 182              	 .cfi_def_cfa_offset 4
 183              	 .cfi_offset 7,-4
 184 0002 83B0     	 sub sp,sp,#12
 185              	.LCFI7:
 186              	 .cfi_def_cfa_offset 16
 187 0004 00AF     	 add r7,sp,#0
 188              	.LCFI8:
 189              	 .cfi_def_cfa_register 7
 190 0006 7860     	 str r0,[r7,#4]
 136:.././hal/sam3u1c/chipid.c **** 	return p_chipid->CHIPID_CIDR & CHIPID_CIDR_VERSION_Msk;
 191              	 .loc 1 136 17
 192 0008 7B68     	 ldr r3,[r7,#4]
 193 000a 1B68     	 ldr r3,[r3]
 194              	 .loc 1 136 31
 195 000c 03F01F03 	 and r3,r3,#31
 137:.././hal/sam3u1c/chipid.c **** }
 196              	 .loc 1 137 1
 197 0010 1846     	 mov r0,r3
 198 0012 0C37     	 adds r7,r7,#12
 199              	.LCFI9:
 200              	 .cfi_def_cfa_offset 4
 201 0014 BD46     	 mov sp,r7
 202              	.LCFI10:
 203              	 .cfi_def_cfa_register 13
 204              	 
 205 0016 80BC     	 pop {r7}
 206              	.LCFI11:
 207              	 .cfi_restore 7
 208              	 .cfi_def_cfa_offset 0
 209 0018 7047     	 bx lr
 210              	 .cfi_endproc
 211              	.LFE70:
 213              	 .section .text.chipid_read_processor,"ax",%progbits
 214              	 .align 1
 215              	 .global chipid_read_processor
 216              	 .syntax unified
 217              	 .thumb
 218              	 .thumb_func
 219              	 .fpu softvfp
 221              	chipid_read_processor:
 222              	.LFB71:
 138:.././hal/sam3u1c/chipid.c **** 
 139:.././hal/sam3u1c/chipid.c **** /**
 140:.././hal/sam3u1c/chipid.c ****  * \brief Get the version of the embedded ARM processor.
 141:.././hal/sam3u1c/chipid.c ****  *
 142:.././hal/sam3u1c/chipid.c ****  * \param p_chipid Pointer to a CHIPID instance.
 143:.././hal/sam3u1c/chipid.c ****  *
 144:.././hal/sam3u1c/chipid.c ****  * \return Version of the embedded ARM processor.
 145:.././hal/sam3u1c/chipid.c ****  */
 146:.././hal/sam3u1c/chipid.c **** uint32_t chipid_read_processor(Chipid *p_chipid)
 147:.././hal/sam3u1c/chipid.c **** {
 223              	 .loc 1 147 1
 224              	 .cfi_startproc
 225              	 
 226              	 
 227              	 
 228 0000 80B4     	 push {r7}
 229              	.LCFI12:
 230              	 .cfi_def_cfa_offset 4
 231              	 .cfi_offset 7,-4
 232 0002 83B0     	 sub sp,sp,#12
 233              	.LCFI13:
 234              	 .cfi_def_cfa_offset 16
 235 0004 00AF     	 add r7,sp,#0
 236              	.LCFI14:
 237              	 .cfi_def_cfa_register 7
 238 0006 7860     	 str r0,[r7,#4]
 148:.././hal/sam3u1c/chipid.c **** 	return p_chipid->CHIPID_CIDR & CHIPID_CIDR_EPROC_Msk;
 239              	 .loc 1 148 17
 240 0008 7B68     	 ldr r3,[r7,#4]
 241 000a 1B68     	 ldr r3,[r3]
 242              	 .loc 1 148 31
 243 000c 03F0E003 	 and r3,r3,#224
 149:.././hal/sam3u1c/chipid.c **** }
 244              	 .loc 1 149 1
 245 0010 1846     	 mov r0,r3
 246 0012 0C37     	 adds r7,r7,#12
 247              	.LCFI15:
 248              	 .cfi_def_cfa_offset 4
 249 0014 BD46     	 mov sp,r7
 250              	.LCFI16:
 251              	 .cfi_def_cfa_register 13
 252              	 
 253 0016 80BC     	 pop {r7}
 254              	.LCFI17:
 255              	 .cfi_restore 7
 256              	 .cfi_def_cfa_offset 0
 257 0018 7047     	 bx lr
 258              	 .cfi_endproc
 259              	.LFE71:
 261              	 .section .text.chipid_read_arch,"ax",%progbits
 262              	 .align 1
 263              	 .global chipid_read_arch
 264              	 .syntax unified
 265              	 .thumb
 266              	 .thumb_func
 267              	 .fpu softvfp
 269              	chipid_read_arch:
 270              	.LFB72:
 150:.././hal/sam3u1c/chipid.c **** 
 151:.././hal/sam3u1c/chipid.c **** /**
 152:.././hal/sam3u1c/chipid.c ****  * \brief Get the identifier of the architecture.
 153:.././hal/sam3u1c/chipid.c ****  *
 154:.././hal/sam3u1c/chipid.c ****  * \param p_chipid Pointer to a CHIPID instance.
 155:.././hal/sam3u1c/chipid.c ****  *
 156:.././hal/sam3u1c/chipid.c ****  * \return Identifier of the architecture.
 157:.././hal/sam3u1c/chipid.c ****  */
 158:.././hal/sam3u1c/chipid.c **** uint32_t chipid_read_arch(Chipid *p_chipid)
 159:.././hal/sam3u1c/chipid.c **** {
 271              	 .loc 1 159 1
 272              	 .cfi_startproc
 273              	 
 274              	 
 275              	 
 276 0000 80B4     	 push {r7}
 277              	.LCFI18:
 278              	 .cfi_def_cfa_offset 4
 279              	 .cfi_offset 7,-4
 280 0002 83B0     	 sub sp,sp,#12
 281              	.LCFI19:
 282              	 .cfi_def_cfa_offset 16
 283 0004 00AF     	 add r7,sp,#0
 284              	.LCFI20:
 285              	 .cfi_def_cfa_register 7
 286 0006 7860     	 str r0,[r7,#4]
 160:.././hal/sam3u1c/chipid.c **** 	return p_chipid->CHIPID_CIDR & CHIPID_CIDR_ARCH_Msk;
 287              	 .loc 1 160 17
 288 0008 7B68     	 ldr r3,[r7,#4]
 289 000a 1B68     	 ldr r3,[r3]
 290              	 .loc 1 160 31
 291 000c 03F07F63 	 and r3,r3,#267386880
 161:.././hal/sam3u1c/chipid.c **** }
 292              	 .loc 1 161 1
 293 0010 1846     	 mov r0,r3
 294 0012 0C37     	 adds r7,r7,#12
 295              	.LCFI21:
 296              	 .cfi_def_cfa_offset 4
 297 0014 BD46     	 mov sp,r7
 298              	.LCFI22:
 299              	 .cfi_def_cfa_register 13
 300              	 
 301 0016 80BC     	 pop {r7}
 302              	.LCFI23:
 303              	 .cfi_restore 7
 304              	 .cfi_def_cfa_offset 0
 305 0018 7047     	 bx lr
 306              	 .cfi_endproc
 307              	.LFE72:
 309              	 .section .text.chipid_read_sramsize,"ax",%progbits
 310              	 .align 1
 311              	 .global chipid_read_sramsize
 312              	 .syntax unified
 313              	 .thumb
 314              	 .thumb_func
 315              	 .fpu softvfp
 317              	chipid_read_sramsize:
 318              	.LFB73:
 162:.././hal/sam3u1c/chipid.c **** 
 163:.././hal/sam3u1c/chipid.c **** /**
 164:.././hal/sam3u1c/chipid.c ****  * \brief Get the size of the embedded SRAM.
 165:.././hal/sam3u1c/chipid.c ****  *
 166:.././hal/sam3u1c/chipid.c ****  * \param p_chipid Pointer to a CHIPID instance.
 167:.././hal/sam3u1c/chipid.c ****  *
 168:.././hal/sam3u1c/chipid.c ****  * \return SRAM size value.
 169:.././hal/sam3u1c/chipid.c ****  */
 170:.././hal/sam3u1c/chipid.c **** uint32_t chipid_read_sramsize(Chipid *p_chipid)
 171:.././hal/sam3u1c/chipid.c **** {
 319              	 .loc 1 171 1
 320              	 .cfi_startproc
 321              	 
 322              	 
 323              	 
 324 0000 80B4     	 push {r7}
 325              	.LCFI24:
 326              	 .cfi_def_cfa_offset 4
 327              	 .cfi_offset 7,-4
 328 0002 83B0     	 sub sp,sp,#12
 329              	.LCFI25:
 330              	 .cfi_def_cfa_offset 16
 331 0004 00AF     	 add r7,sp,#0
 332              	.LCFI26:
 333              	 .cfi_def_cfa_register 7
 334 0006 7860     	 str r0,[r7,#4]
 172:.././hal/sam3u1c/chipid.c **** 	return p_chipid->CHIPID_CIDR & CHIPID_CIDR_SRAMSIZ_Msk;
 335              	 .loc 1 172 17
 336 0008 7B68     	 ldr r3,[r7,#4]
 337 000a 1B68     	 ldr r3,[r3]
 338              	 .loc 1 172 31
 339 000c 03F47023 	 and r3,r3,#983040
 173:.././hal/sam3u1c/chipid.c **** }
 340              	 .loc 1 173 1
 341 0010 1846     	 mov r0,r3
 342 0012 0C37     	 adds r7,r7,#12
 343              	.LCFI27:
 344              	 .cfi_def_cfa_offset 4
 345 0014 BD46     	 mov sp,r7
 346              	.LCFI28:
 347              	 .cfi_def_cfa_register 13
 348              	 
 349 0016 80BC     	 pop {r7}
 350              	.LCFI29:
 351              	 .cfi_restore 7
 352              	 .cfi_def_cfa_offset 0
 353 0018 7047     	 bx lr
 354              	 .cfi_endproc
 355              	.LFE73:
 357              	 .section .text.chipid_read_nvpmsize,"ax",%progbits
 358              	 .align 1
 359              	 .global chipid_read_nvpmsize
 360              	 .syntax unified
 361              	 .thumb
 362              	 .thumb_func
 363              	 .fpu softvfp
 365              	chipid_read_nvpmsize:
 366              	.LFB74:
 174:.././hal/sam3u1c/chipid.c **** 
 175:.././hal/sam3u1c/chipid.c **** /**
 176:.././hal/sam3u1c/chipid.c ****  * \brief Get the size of the first non-volatile program memory.
 177:.././hal/sam3u1c/chipid.c ****  *
 178:.././hal/sam3u1c/chipid.c ****  * \param p_chipid Pointer to a CHIPID instance.
 179:.././hal/sam3u1c/chipid.c ****  *
 180:.././hal/sam3u1c/chipid.c ****  * \return Memory size value.
 181:.././hal/sam3u1c/chipid.c ****  */
 182:.././hal/sam3u1c/chipid.c **** uint32_t chipid_read_nvpmsize(Chipid *p_chipid)
 183:.././hal/sam3u1c/chipid.c **** {
 367              	 .loc 1 183 1
 368              	 .cfi_startproc
 369              	 
 370              	 
 371              	 
 372 0000 80B4     	 push {r7}
 373              	.LCFI30:
 374              	 .cfi_def_cfa_offset 4
 375              	 .cfi_offset 7,-4
 376 0002 83B0     	 sub sp,sp,#12
 377              	.LCFI31:
 378              	 .cfi_def_cfa_offset 16
 379 0004 00AF     	 add r7,sp,#0
 380              	.LCFI32:
 381              	 .cfi_def_cfa_register 7
 382 0006 7860     	 str r0,[r7,#4]
 184:.././hal/sam3u1c/chipid.c **** 	return p_chipid->CHIPID_CIDR & CHIPID_CIDR_NVPSIZ_Msk;
 383              	 .loc 1 184 17
 384 0008 7B68     	 ldr r3,[r7,#4]
 385 000a 1B68     	 ldr r3,[r3]
 386              	 .loc 1 184 31
 387 000c 03F47063 	 and r3,r3,#3840
 185:.././hal/sam3u1c/chipid.c **** }
 388              	 .loc 1 185 1
 389 0010 1846     	 mov r0,r3
 390 0012 0C37     	 adds r7,r7,#12
 391              	.LCFI33:
 392              	 .cfi_def_cfa_offset 4
 393 0014 BD46     	 mov sp,r7
 394              	.LCFI34:
 395              	 .cfi_def_cfa_register 13
 396              	 
 397 0016 80BC     	 pop {r7}
 398              	.LCFI35:
 399              	 .cfi_restore 7
 400              	 .cfi_def_cfa_offset 0
 401 0018 7047     	 bx lr
 402              	 .cfi_endproc
 403              	.LFE74:
 405              	 .section .text.chipid_read_nvpm2size,"ax",%progbits
 406              	 .align 1
 407              	 .global chipid_read_nvpm2size
 408              	 .syntax unified
 409              	 .thumb
 410              	 .thumb_func
 411              	 .fpu softvfp
 413              	chipid_read_nvpm2size:
 414              	.LFB75:
 186:.././hal/sam3u1c/chipid.c **** 
 187:.././hal/sam3u1c/chipid.c **** /**
 188:.././hal/sam3u1c/chipid.c ****  * \brief Get the size of the second non-volatile program memory.
 189:.././hal/sam3u1c/chipid.c ****  *
 190:.././hal/sam3u1c/chipid.c ****  * \param p_chipid Pointer to a CHIPID instance.
 191:.././hal/sam3u1c/chipid.c ****  *
 192:.././hal/sam3u1c/chipid.c ****  * \return Memory size value.
 193:.././hal/sam3u1c/chipid.c ****  */
 194:.././hal/sam3u1c/chipid.c **** uint32_t chipid_read_nvpm2size(Chipid *p_chipid)
 195:.././hal/sam3u1c/chipid.c **** {
 415              	 .loc 1 195 1
 416              	 .cfi_startproc
 417              	 
 418              	 
 419              	 
 420 0000 80B4     	 push {r7}
 421              	.LCFI36:
 422              	 .cfi_def_cfa_offset 4
 423              	 .cfi_offset 7,-4
 424 0002 83B0     	 sub sp,sp,#12
 425              	.LCFI37:
 426              	 .cfi_def_cfa_offset 16
 427 0004 00AF     	 add r7,sp,#0
 428              	.LCFI38:
 429              	 .cfi_def_cfa_register 7
 430 0006 7860     	 str r0,[r7,#4]
 196:.././hal/sam3u1c/chipid.c **** 	return p_chipid->CHIPID_CIDR & CHIPID_CIDR_NVPSIZ2_Pos;
 431              	 .loc 1 196 17
 432 0008 7B68     	 ldr r3,[r7,#4]
 433 000a 1B68     	 ldr r3,[r3]
 434              	 .loc 1 196 31
 435 000c 03F00C03 	 and r3,r3,#12
 197:.././hal/sam3u1c/chipid.c **** }
 436              	 .loc 1 197 1
 437 0010 1846     	 mov r0,r3
 438 0012 0C37     	 adds r7,r7,#12
 439              	.LCFI39:
 440              	 .cfi_def_cfa_offset 4
 441 0014 BD46     	 mov sp,r7
 442              	.LCFI40:
 443              	 .cfi_def_cfa_register 13
 444              	 
 445 0016 80BC     	 pop {r7}
 446              	.LCFI41:
 447              	 .cfi_restore 7
 448              	 .cfi_def_cfa_offset 0
 449 0018 7047     	 bx lr
 450              	 .cfi_endproc
 451              	.LFE75:
 453              	 .section .text.chipid_read_nvpmtype,"ax",%progbits
 454              	 .align 1
 455              	 .global chipid_read_nvpmtype
 456              	 .syntax unified
 457              	 .thumb
 458              	 .thumb_func
 459              	 .fpu softvfp
 461              	chipid_read_nvpmtype:
 462              	.LFB76:
 198:.././hal/sam3u1c/chipid.c **** 
 199:.././hal/sam3u1c/chipid.c **** /**
 200:.././hal/sam3u1c/chipid.c ****  * \brief Get the type of non-volatile program memory.
 201:.././hal/sam3u1c/chipid.c ****  *
 202:.././hal/sam3u1c/chipid.c ****  * \param p_chipid Pointer to a CHIPID instance.
 203:.././hal/sam3u1c/chipid.c ****  *
 204:.././hal/sam3u1c/chipid.c ****  * \return Memory type.
 205:.././hal/sam3u1c/chipid.c ****  */
 206:.././hal/sam3u1c/chipid.c **** uint32_t chipid_read_nvpmtype(Chipid *p_chipid)
 207:.././hal/sam3u1c/chipid.c **** {
 463              	 .loc 1 207 1
 464              	 .cfi_startproc
 465              	 
 466              	 
 467              	 
 468 0000 80B4     	 push {r7}
 469              	.LCFI42:
 470              	 .cfi_def_cfa_offset 4
 471              	 .cfi_offset 7,-4
 472 0002 83B0     	 sub sp,sp,#12
 473              	.LCFI43:
 474              	 .cfi_def_cfa_offset 16
 475 0004 00AF     	 add r7,sp,#0
 476              	.LCFI44:
 477              	 .cfi_def_cfa_register 7
 478 0006 7860     	 str r0,[r7,#4]
 208:.././hal/sam3u1c/chipid.c **** 	return p_chipid->CHIPID_CIDR & CHIPID_CIDR_NVPTYP_Msk;
 479              	 .loc 1 208 17
 480 0008 7B68     	 ldr r3,[r7,#4]
 481 000a 1B68     	 ldr r3,[r3]
 482              	 .loc 1 208 31
 483 000c 03F0E043 	 and r3,r3,#1879048192
 209:.././hal/sam3u1c/chipid.c **** }
 484              	 .loc 1 209 1
 485 0010 1846     	 mov r0,r3
 486 0012 0C37     	 adds r7,r7,#12
 487              	.LCFI45:
 488              	 .cfi_def_cfa_offset 4
 489 0014 BD46     	 mov sp,r7
 490              	.LCFI46:
 491              	 .cfi_def_cfa_register 13
 492              	 
 493 0016 80BC     	 pop {r7}
 494              	.LCFI47:
 495              	 .cfi_restore 7
 496              	 .cfi_def_cfa_offset 0
 497 0018 7047     	 bx lr
 498              	 .cfi_endproc
 499              	.LFE76:
 501              	 .section .text.chipid_read_extchipid,"ax",%progbits
 502              	 .align 1
 503              	 .global chipid_read_extchipid
 504              	 .syntax unified
 505              	 .thumb
 506              	 .thumb_func
 507              	 .fpu softvfp
 509              	chipid_read_extchipid:
 510              	.LFB77:
 210:.././hal/sam3u1c/chipid.c **** 
 211:.././hal/sam3u1c/chipid.c **** /**
 212:.././hal/sam3u1c/chipid.c ****  * \brief Get the chip extension identifier.
 213:.././hal/sam3u1c/chipid.c ****  *
 214:.././hal/sam3u1c/chipid.c ****  * \param p_chipid Pointer to a CHIPID instance.
 215:.././hal/sam3u1c/chipid.c ****  *
 216:.././hal/sam3u1c/chipid.c ****  * \return Chip extension identifier if available, else 0.
 217:.././hal/sam3u1c/chipid.c ****  */
 218:.././hal/sam3u1c/chipid.c **** uint32_t chipid_read_extchipid(Chipid *p_chipid)
 219:.././hal/sam3u1c/chipid.c **** {
 511              	 .loc 1 219 1
 512              	 .cfi_startproc
 513              	 
 514              	 
 515              	 
 516 0000 80B4     	 push {r7}
 517              	.LCFI48:
 518              	 .cfi_def_cfa_offset 4
 519              	 .cfi_offset 7,-4
 520 0002 83B0     	 sub sp,sp,#12
 521              	.LCFI49:
 522              	 .cfi_def_cfa_offset 16
 523 0004 00AF     	 add r7,sp,#0
 524              	.LCFI50:
 525              	 .cfi_def_cfa_register 7
 526 0006 7860     	 str r0,[r7,#4]
 220:.././hal/sam3u1c/chipid.c **** 	if ((p_chipid->CHIPID_CIDR) & CHIPID_CIDR_EXT)
 527              	 .loc 1 220 15
 528 0008 7B68     	 ldr r3,[r7,#4]
 529 000a 1B68     	 ldr r3,[r3]
 530              	 .loc 1 220 5
 531 000c 002B     	 cmp r3,#0
 532 000e 02DA     	 bge .L20
 221:.././hal/sam3u1c/chipid.c **** 		return p_chipid->CHIPID_EXID & CHIPID_EXID_EXID_Msk;
 533              	 .loc 1 221 32
 534 0010 7B68     	 ldr r3,[r7,#4]
 535 0012 5B68     	 ldr r3,[r3,#4]
 536 0014 00E0     	 b .L21
 537              	.L20:
 222:.././hal/sam3u1c/chipid.c **** 	else
 223:.././hal/sam3u1c/chipid.c **** 		return 0;
 538              	 .loc 1 223 10
 539 0016 0023     	 movs r3,#0
 540              	.L21:
 224:.././hal/sam3u1c/chipid.c **** }
 541              	 .loc 1 224 1
 542 0018 1846     	 mov r0,r3
 543 001a 0C37     	 adds r7,r7,#12
 544              	.LCFI51:
 545              	 .cfi_def_cfa_offset 4
 546 001c BD46     	 mov sp,r7
 547              	.LCFI52:
 548              	 .cfi_def_cfa_register 13
 549              	 
 550 001e 80BC     	 pop {r7}
 551              	.LCFI53:
 552              	 .cfi_restore 7
 553              	 .cfi_def_cfa_offset 0
 554 0020 7047     	 bx lr
 555              	 .cfi_endproc
 556              	.LFE77:
 558              	 .text
 559              	.Letext0:
 560              	 .file 2 "c:\\program files (x86)\\gnu tools arm embedded\\8 2018-q4-major\\arm-none-eabi\\include\\machine\\_default_types.h"
 561              	 .file 3 "c:\\program files (x86)\\gnu tools arm embedded\\8 2018-q4-major\\arm-none-eabi\\include\\sys\\_stdint.h"
 562              	 .file 4 ".././hal/sam3u1c/inc/sam3u1c.h"
 563              	 .file 5 ".././hal/sam3u1c/inc/core_cm3.h"
 564              	 .file 6 ".././hal/sam3u1c/inc/system_sam3u.h"
 565              	 .file 7 ".././hal/sam3u1c/inc/component/component_chipid.h"
 566              	 .file 8 "c:\\program files (x86)\\gnu tools arm embedded\\8 2018-q4-major\\arm-none-eabi\\include\\sys\\lock.h"
 567              	 .file 9 "c:\\program files (x86)\\gnu tools arm embedded\\8 2018-q4-major\\arm-none-eabi\\include\\sys\\_types.h"
 568              	 .file 10 "c:\\program files (x86)\\gnu tools arm embedded\\8 2018-q4-major\\lib\\gcc\\arm-none-eabi\\8.2.1\\include\\stddef.h"
 569              	 .file 11 "c:\\program files (x86)\\gnu tools arm embedded\\8 2018-q4-major\\arm-none-eabi\\include\\sys\\reent.h"
 570              	 .file 12 "c:\\program files (x86)\\gnu tools arm embedded\\8 2018-q4-major\\arm-none-eabi\\include\\stdlib.h"
 571              	 .file 13 ".././hal/sam3u1c/inc/interrupt/interrupt_sam_nvic.h"
 572              	 .file 14 ".././hal/sam3u1c/inc/chipid.h"