   1              	 .cpu cortex-m3
   2              	 .eabi_attribute 20,1
   3              	 .eabi_attribute 21,1
   4              	 .eabi_attribute 23,3
   5              	 .eabi_attribute 24,1
   6              	 .eabi_attribute 25,1
   7              	 .eabi_attribute 26,1
   8              	 .eabi_attribute 30,6
   9              	 .eabi_attribute 34,1
  10              	 .eabi_attribute 18,4
  11              	 .file "efc.c"
  12              	 .text
  13              	.Ltext0:
  14              	 .cfi_sections .debug_frame
  15              	 .section .bss.cpu_irq_critical_section_counter,"aw",%nobits
  16              	 .align 2
  19              	cpu_irq_critical_section_counter:
  20 0000 00000000 	 .space 4
  21              	 .section .bss.cpu_irq_prev_interrupt_state,"aw",%nobits
  24              	cpu_irq_prev_interrupt_state:
  25 0000 00       	 .space 1
  26              	 .section .text.cpu_irq_save,"ax",%progbits
  27              	 .align 1
  28              	 .arch armv7-m
  29              	 .syntax unified
  30              	 .thumb
  31              	 .thumb_func
  32              	 .fpu softvfp
  34              	cpu_irq_save:
  35              	.LFB59:
  36              	 .file 1 ".././hal/sam3u1c/inc/interrupt/interrupt_sam_nvic.h"
   1:.././hal/sam3u1c/inc/interrupt/interrupt_sam_nvic.h **** /**
   2:.././hal/sam3u1c/inc/interrupt/interrupt_sam_nvic.h ****  * \file
   3:.././hal/sam3u1c/inc/interrupt/interrupt_sam_nvic.h ****  *
   4:.././hal/sam3u1c/inc/interrupt/interrupt_sam_nvic.h ****  * \brief Global interrupt management for SAM D20, SAM3 and SAM4 (NVIC based)
   5:.././hal/sam3u1c/inc/interrupt/interrupt_sam_nvic.h ****  *
   6:.././hal/sam3u1c/inc/interrupt/interrupt_sam_nvic.h ****  * Copyright (c) 2012-2014 Atmel Corporation. All rights reserved.
   7:.././hal/sam3u1c/inc/interrupt/interrupt_sam_nvic.h ****  *
   8:.././hal/sam3u1c/inc/interrupt/interrupt_sam_nvic.h ****  * \asf_license_start
   9:.././hal/sam3u1c/inc/interrupt/interrupt_sam_nvic.h ****  *
  10:.././hal/sam3u1c/inc/interrupt/interrupt_sam_nvic.h ****  * \page License
  11:.././hal/sam3u1c/inc/interrupt/interrupt_sam_nvic.h ****  *
  12:.././hal/sam3u1c/inc/interrupt/interrupt_sam_nvic.h ****  * Redistribution and use in source and binary forms, with or without
  13:.././hal/sam3u1c/inc/interrupt/interrupt_sam_nvic.h ****  * modification, are permitted provided that the following conditions are met:
  14:.././hal/sam3u1c/inc/interrupt/interrupt_sam_nvic.h ****  *
  15:.././hal/sam3u1c/inc/interrupt/interrupt_sam_nvic.h ****  * 1. Redistributions of source code must retain the above copyright notice,
  16:.././hal/sam3u1c/inc/interrupt/interrupt_sam_nvic.h ****  *    this list of conditions and the following disclaimer.
  17:.././hal/sam3u1c/inc/interrupt/interrupt_sam_nvic.h ****  *
  18:.././hal/sam3u1c/inc/interrupt/interrupt_sam_nvic.h ****  * 2. Redistributions in binary form must reproduce the above copyright notice,
  19:.././hal/sam3u1c/inc/interrupt/interrupt_sam_nvic.h ****  *    this list of conditions and the following disclaimer in the documentation
  20:.././hal/sam3u1c/inc/interrupt/interrupt_sam_nvic.h ****  *    and/or other materials provided with the distribution.
  21:.././hal/sam3u1c/inc/interrupt/interrupt_sam_nvic.h ****  *
  22:.././hal/sam3u1c/inc/interrupt/interrupt_sam_nvic.h ****  * 3. The name of Atmel may not be used to endorse or promote products derived
  23:.././hal/sam3u1c/inc/interrupt/interrupt_sam_nvic.h ****  *    from this software without specific prior written permission.
  24:.././hal/sam3u1c/inc/interrupt/interrupt_sam_nvic.h ****  *
  25:.././hal/sam3u1c/inc/interrupt/interrupt_sam_nvic.h ****  * 4. This software may only be redistributed and used in connection with an
  26:.././hal/sam3u1c/inc/interrupt/interrupt_sam_nvic.h ****  *    Atmel microcontroller product.
  27:.././hal/sam3u1c/inc/interrupt/interrupt_sam_nvic.h ****  *
  28:.././hal/sam3u1c/inc/interrupt/interrupt_sam_nvic.h ****  * THIS SOFTWARE IS PROVIDED BY ATMEL "AS IS" AND ANY EXPRESS OR IMPLIED
  29:.././hal/sam3u1c/inc/interrupt/interrupt_sam_nvic.h ****  * WARRANTIES, INCLUDING, BUT NOT LIMITED TO, THE IMPLIED WARRANTIES OF
  30:.././hal/sam3u1c/inc/interrupt/interrupt_sam_nvic.h ****  * MERCHANTABILITY, FITNESS FOR A PARTICULAR PURPOSE AND NON-INFRINGEMENT ARE
  31:.././hal/sam3u1c/inc/interrupt/interrupt_sam_nvic.h ****  * EXPRESSLY AND SPECIFICALLY DISCLAIMED. IN NO EVENT SHALL ATMEL BE LIABLE FOR
  32:.././hal/sam3u1c/inc/interrupt/interrupt_sam_nvic.h ****  * ANY DIRECT, INDIRECT, INCIDENTAL, SPECIAL, EXEMPLARY, OR CONSEQUENTIAL
  33:.././hal/sam3u1c/inc/interrupt/interrupt_sam_nvic.h ****  * DAMAGES (INCLUDING, BUT NOT LIMITED TO, PROCUREMENT OF SUBSTITUTE GOODS
  34:.././hal/sam3u1c/inc/interrupt/interrupt_sam_nvic.h ****  * OR SERVICES; LOSS OF USE, DATA, OR PROFITS; OR BUSINESS INTERRUPTION)
  35:.././hal/sam3u1c/inc/interrupt/interrupt_sam_nvic.h ****  * HOWEVER CAUSED AND ON ANY THEORY OF LIABILITY, WHETHER IN CONTRACT,
  36:.././hal/sam3u1c/inc/interrupt/interrupt_sam_nvic.h ****  * STRICT LIABILITY, OR TORT (INCLUDING NEGLIGENCE OR OTHERWISE) ARISING IN
  37:.././hal/sam3u1c/inc/interrupt/interrupt_sam_nvic.h ****  * ANY WAY OUT OF THE USE OF THIS SOFTWARE, EVEN IF ADVISED OF THE
  38:.././hal/sam3u1c/inc/interrupt/interrupt_sam_nvic.h ****  * POSSIBILITY OF SUCH DAMAGE.
  39:.././hal/sam3u1c/inc/interrupt/interrupt_sam_nvic.h ****  *
  40:.././hal/sam3u1c/inc/interrupt/interrupt_sam_nvic.h ****  * \asf_license_stop
  41:.././hal/sam3u1c/inc/interrupt/interrupt_sam_nvic.h ****  *
  42:.././hal/sam3u1c/inc/interrupt/interrupt_sam_nvic.h ****  */
  43:.././hal/sam3u1c/inc/interrupt/interrupt_sam_nvic.h **** 
  44:.././hal/sam3u1c/inc/interrupt/interrupt_sam_nvic.h **** #ifndef UTILS_INTERRUPT_INTERRUPT_H
  45:.././hal/sam3u1c/inc/interrupt/interrupt_sam_nvic.h **** #define UTILS_INTERRUPT_INTERRUPT_H
  46:.././hal/sam3u1c/inc/interrupt/interrupt_sam_nvic.h **** 
  47:.././hal/sam3u1c/inc/interrupt/interrupt_sam_nvic.h **** #include <compiler.h>
  48:.././hal/sam3u1c/inc/interrupt/interrupt_sam_nvic.h **** #include <parts.h>
  49:.././hal/sam3u1c/inc/interrupt/interrupt_sam_nvic.h **** 
  50:.././hal/sam3u1c/inc/interrupt/interrupt_sam_nvic.h **** #ifdef __cplusplus
  51:.././hal/sam3u1c/inc/interrupt/interrupt_sam_nvic.h **** extern "C" {
  52:.././hal/sam3u1c/inc/interrupt/interrupt_sam_nvic.h **** #endif
  53:.././hal/sam3u1c/inc/interrupt/interrupt_sam_nvic.h **** 
  54:.././hal/sam3u1c/inc/interrupt/interrupt_sam_nvic.h **** /**
  55:.././hal/sam3u1c/inc/interrupt/interrupt_sam_nvic.h ****  * \weakgroup interrupt_group
  56:.././hal/sam3u1c/inc/interrupt/interrupt_sam_nvic.h ****  *
  57:.././hal/sam3u1c/inc/interrupt/interrupt_sam_nvic.h ****  * @{
  58:.././hal/sam3u1c/inc/interrupt/interrupt_sam_nvic.h ****  */
  59:.././hal/sam3u1c/inc/interrupt/interrupt_sam_nvic.h **** 
  60:.././hal/sam3u1c/inc/interrupt/interrupt_sam_nvic.h **** /**
  61:.././hal/sam3u1c/inc/interrupt/interrupt_sam_nvic.h ****  * \name Interrupt Service Routine definition
  62:.././hal/sam3u1c/inc/interrupt/interrupt_sam_nvic.h ****  *
  63:.././hal/sam3u1c/inc/interrupt/interrupt_sam_nvic.h ****  * @{
  64:.././hal/sam3u1c/inc/interrupt/interrupt_sam_nvic.h ****  */
  65:.././hal/sam3u1c/inc/interrupt/interrupt_sam_nvic.h **** 
  66:.././hal/sam3u1c/inc/interrupt/interrupt_sam_nvic.h **** /**
  67:.././hal/sam3u1c/inc/interrupt/interrupt_sam_nvic.h ****  * \brief Define service routine
  68:.././hal/sam3u1c/inc/interrupt/interrupt_sam_nvic.h ****  *
  69:.././hal/sam3u1c/inc/interrupt/interrupt_sam_nvic.h ****  * \note For NVIC devices the interrupt service routines are predefined to
  70:.././hal/sam3u1c/inc/interrupt/interrupt_sam_nvic.h ****  *       add to vector table in binary generation, so there is no service
  71:.././hal/sam3u1c/inc/interrupt/interrupt_sam_nvic.h ****  *       register at run time. The routine collections are in exceptions.h.
  72:.././hal/sam3u1c/inc/interrupt/interrupt_sam_nvic.h ****  *
  73:.././hal/sam3u1c/inc/interrupt/interrupt_sam_nvic.h ****  * Usage:
  74:.././hal/sam3u1c/inc/interrupt/interrupt_sam_nvic.h ****  * \code
  75:.././hal/sam3u1c/inc/interrupt/interrupt_sam_nvic.h **** 	ISR(foo_irq_handler)
  76:.././hal/sam3u1c/inc/interrupt/interrupt_sam_nvic.h **** 	{
  77:.././hal/sam3u1c/inc/interrupt/interrupt_sam_nvic.h **** 	     // Function definition
  78:.././hal/sam3u1c/inc/interrupt/interrupt_sam_nvic.h **** 	     ...
  79:.././hal/sam3u1c/inc/interrupt/interrupt_sam_nvic.h **** 	}
  80:.././hal/sam3u1c/inc/interrupt/interrupt_sam_nvic.h **** \endcode
  81:.././hal/sam3u1c/inc/interrupt/interrupt_sam_nvic.h ****  *
  82:.././hal/sam3u1c/inc/interrupt/interrupt_sam_nvic.h ****  * \param func Name for the function.
  83:.././hal/sam3u1c/inc/interrupt/interrupt_sam_nvic.h ****  */
  84:.././hal/sam3u1c/inc/interrupt/interrupt_sam_nvic.h **** #  define ISR(func)   \
  85:.././hal/sam3u1c/inc/interrupt/interrupt_sam_nvic.h **** 	void func (void)
  86:.././hal/sam3u1c/inc/interrupt/interrupt_sam_nvic.h **** 
  87:.././hal/sam3u1c/inc/interrupt/interrupt_sam_nvic.h **** /**
  88:.././hal/sam3u1c/inc/interrupt/interrupt_sam_nvic.h ****  * \brief Initialize interrupt vectors
  89:.././hal/sam3u1c/inc/interrupt/interrupt_sam_nvic.h ****  *
  90:.././hal/sam3u1c/inc/interrupt/interrupt_sam_nvic.h ****  * For NVIC the interrupt vectors are put in vector table. So nothing
  91:.././hal/sam3u1c/inc/interrupt/interrupt_sam_nvic.h ****  * to do to initialize them, except defined the vector function with
  92:.././hal/sam3u1c/inc/interrupt/interrupt_sam_nvic.h ****  * right name.
  93:.././hal/sam3u1c/inc/interrupt/interrupt_sam_nvic.h ****  *
  94:.././hal/sam3u1c/inc/interrupt/interrupt_sam_nvic.h ****  * This must be called prior to \ref irq_register_handler.
  95:.././hal/sam3u1c/inc/interrupt/interrupt_sam_nvic.h ****  */
  96:.././hal/sam3u1c/inc/interrupt/interrupt_sam_nvic.h **** #  define irq_initialize_vectors()   \
  97:.././hal/sam3u1c/inc/interrupt/interrupt_sam_nvic.h **** 	do {                             \
  98:.././hal/sam3u1c/inc/interrupt/interrupt_sam_nvic.h **** 	} while(0)
  99:.././hal/sam3u1c/inc/interrupt/interrupt_sam_nvic.h **** 
 100:.././hal/sam3u1c/inc/interrupt/interrupt_sam_nvic.h **** /**
 101:.././hal/sam3u1c/inc/interrupt/interrupt_sam_nvic.h ****  * \brief Register handler for interrupt
 102:.././hal/sam3u1c/inc/interrupt/interrupt_sam_nvic.h ****  *
 103:.././hal/sam3u1c/inc/interrupt/interrupt_sam_nvic.h ****  * For NVIC the interrupt vectors are put in vector table. So nothing
 104:.././hal/sam3u1c/inc/interrupt/interrupt_sam_nvic.h ****  * to do to register them, except defined the vector function with
 105:.././hal/sam3u1c/inc/interrupt/interrupt_sam_nvic.h ****  * right name.
 106:.././hal/sam3u1c/inc/interrupt/interrupt_sam_nvic.h ****  *
 107:.././hal/sam3u1c/inc/interrupt/interrupt_sam_nvic.h ****  * Usage:
 108:.././hal/sam3u1c/inc/interrupt/interrupt_sam_nvic.h ****  * \code
 109:.././hal/sam3u1c/inc/interrupt/interrupt_sam_nvic.h **** 	irq_initialize_vectors();
 110:.././hal/sam3u1c/inc/interrupt/interrupt_sam_nvic.h **** 	irq_register_handler(foo_irq_handler);
 111:.././hal/sam3u1c/inc/interrupt/interrupt_sam_nvic.h **** \endcode
 112:.././hal/sam3u1c/inc/interrupt/interrupt_sam_nvic.h ****  *
 113:.././hal/sam3u1c/inc/interrupt/interrupt_sam_nvic.h ****  * \note The function \a func must be defined with the \ref ISR macro.
 114:.././hal/sam3u1c/inc/interrupt/interrupt_sam_nvic.h ****  * \note The functions prototypes can be found in the device exception header
 115:.././hal/sam3u1c/inc/interrupt/interrupt_sam_nvic.h ****  *       files (exceptions.h).
 116:.././hal/sam3u1c/inc/interrupt/interrupt_sam_nvic.h ****  */
 117:.././hal/sam3u1c/inc/interrupt/interrupt_sam_nvic.h **** #  define irq_register_handler(int_num, int_prio)                      \
 118:.././hal/sam3u1c/inc/interrupt/interrupt_sam_nvic.h **** 	NVIC_ClearPendingIRQ(    (IRQn_Type)int_num);                      \
 119:.././hal/sam3u1c/inc/interrupt/interrupt_sam_nvic.h **** 	NVIC_SetPriority(    (IRQn_Type)int_num, int_prio);                \
 120:.././hal/sam3u1c/inc/interrupt/interrupt_sam_nvic.h **** 	NVIC_EnableIRQ(      (IRQn_Type)int_num);                          \
 121:.././hal/sam3u1c/inc/interrupt/interrupt_sam_nvic.h **** 
 122:.././hal/sam3u1c/inc/interrupt/interrupt_sam_nvic.h **** //@}
 123:.././hal/sam3u1c/inc/interrupt/interrupt_sam_nvic.h **** 
 124:.././hal/sam3u1c/inc/interrupt/interrupt_sam_nvic.h **** #  define cpu_irq_enable()                     \
 125:.././hal/sam3u1c/inc/interrupt/interrupt_sam_nvic.h **** 	do {                                       \
 126:.././hal/sam3u1c/inc/interrupt/interrupt_sam_nvic.h **** 		g_interrupt_enabled = true;            \
 127:.././hal/sam3u1c/inc/interrupt/interrupt_sam_nvic.h **** 		__DMB();                               \
 128:.././hal/sam3u1c/inc/interrupt/interrupt_sam_nvic.h **** 		__enable_irq();                        \
 129:.././hal/sam3u1c/inc/interrupt/interrupt_sam_nvic.h **** 	} while (0)
 130:.././hal/sam3u1c/inc/interrupt/interrupt_sam_nvic.h **** #  define cpu_irq_disable()                    \
 131:.././hal/sam3u1c/inc/interrupt/interrupt_sam_nvic.h **** 	do {                                       \
 132:.././hal/sam3u1c/inc/interrupt/interrupt_sam_nvic.h **** 		__disable_irq();                       \
 133:.././hal/sam3u1c/inc/interrupt/interrupt_sam_nvic.h **** 		__DMB();                               \
 134:.././hal/sam3u1c/inc/interrupt/interrupt_sam_nvic.h **** 		g_interrupt_enabled = false;           \
 135:.././hal/sam3u1c/inc/interrupt/interrupt_sam_nvic.h **** 	} while (0)
 136:.././hal/sam3u1c/inc/interrupt/interrupt_sam_nvic.h **** 
 137:.././hal/sam3u1c/inc/interrupt/interrupt_sam_nvic.h **** typedef uint32_t irqflags_t;
 138:.././hal/sam3u1c/inc/interrupt/interrupt_sam_nvic.h **** 
 139:.././hal/sam3u1c/inc/interrupt/interrupt_sam_nvic.h **** #if !defined(__DOXYGEN__)
 140:.././hal/sam3u1c/inc/interrupt/interrupt_sam_nvic.h **** extern volatile bool g_interrupt_enabled;
 141:.././hal/sam3u1c/inc/interrupt/interrupt_sam_nvic.h **** #endif
 142:.././hal/sam3u1c/inc/interrupt/interrupt_sam_nvic.h **** 
 143:.././hal/sam3u1c/inc/interrupt/interrupt_sam_nvic.h **** #define cpu_irq_is_enabled()    (__get_PRIMASK() == 0)
 144:.././hal/sam3u1c/inc/interrupt/interrupt_sam_nvic.h **** 
 145:.././hal/sam3u1c/inc/interrupt/interrupt_sam_nvic.h **** static volatile uint32_t cpu_irq_critical_section_counter;
 146:.././hal/sam3u1c/inc/interrupt/interrupt_sam_nvic.h **** static volatile bool     cpu_irq_prev_interrupt_state;
 147:.././hal/sam3u1c/inc/interrupt/interrupt_sam_nvic.h **** 
 148:.././hal/sam3u1c/inc/interrupt/interrupt_sam_nvic.h **** static inline irqflags_t cpu_irq_save(void)
 149:.././hal/sam3u1c/inc/interrupt/interrupt_sam_nvic.h **** {
  37              	 .loc 1 149 1
  38              	 .cfi_startproc
  39              	 
  40              	 
  41              	 
  42 0000 80B4     	 push {r7}
  43              	.LCFI0:
  44              	 .cfi_def_cfa_offset 4
  45              	 .cfi_offset 7,-4
  46 0002 83B0     	 sub sp,sp,#12
  47              	.LCFI1:
  48              	 .cfi_def_cfa_offset 16
  49 0004 00AF     	 add r7,sp,#0
  50              	.LCFI2:
  51              	 .cfi_def_cfa_register 7
  52              	.LBB12:
  53              	.LBB13:
  54              	 .file 2 ".././hal/sam3u1c/inc/core_cmFunc.h"
   1:.././hal/sam3u1c/inc/core_cmFunc.h **** /**************************************************************************//**
   2:.././hal/sam3u1c/inc/core_cmFunc.h ****  * @file     core_cmFunc.h
   3:.././hal/sam3u1c/inc/core_cmFunc.h ****  * @brief    CMSIS Cortex-M Core Function Access Header File
   4:.././hal/sam3u1c/inc/core_cmFunc.h ****  * @version  V3.00
   5:.././hal/sam3u1c/inc/core_cmFunc.h ****  * @date     19. January 2012
   6:.././hal/sam3u1c/inc/core_cmFunc.h ****  *
   7:.././hal/sam3u1c/inc/core_cmFunc.h ****  * @note
   8:.././hal/sam3u1c/inc/core_cmFunc.h ****  * Copyright (C) 2009-2012 ARM Limited. All rights reserved.
   9:.././hal/sam3u1c/inc/core_cmFunc.h ****  *
  10:.././hal/sam3u1c/inc/core_cmFunc.h ****  * @par
  11:.././hal/sam3u1c/inc/core_cmFunc.h ****  * ARM Limited (ARM) is supplying this software for use with Cortex-M 
  12:.././hal/sam3u1c/inc/core_cmFunc.h ****  * processor based microcontrollers.  This file can be freely distributed 
  13:.././hal/sam3u1c/inc/core_cmFunc.h ****  * within development tools that are supporting such ARM based processors. 
  14:.././hal/sam3u1c/inc/core_cmFunc.h ****  *
  15:.././hal/sam3u1c/inc/core_cmFunc.h ****  * @par
  16:.././hal/sam3u1c/inc/core_cmFunc.h ****  * THIS SOFTWARE IS PROVIDED "AS IS".  NO WARRANTIES, WHETHER EXPRESS, IMPLIED
  17:.././hal/sam3u1c/inc/core_cmFunc.h ****  * OR STATUTORY, INCLUDING, BUT NOT LIMITED TO, IMPLIED WARRANTIES OF
  18:.././hal/sam3u1c/inc/core_cmFunc.h ****  * MERCHANTABILITY AND FITNESS FOR A PARTICULAR PURPOSE APPLY TO THIS SOFTWARE.
  19:.././hal/sam3u1c/inc/core_cmFunc.h ****  * ARM SHALL NOT, IN ANY CIRCUMSTANCES, BE LIABLE FOR SPECIAL, INCIDENTAL, OR
  20:.././hal/sam3u1c/inc/core_cmFunc.h ****  * CONSEQUENTIAL DAMAGES, FOR ANY REASON WHATSOEVER.
  21:.././hal/sam3u1c/inc/core_cmFunc.h ****  *
  22:.././hal/sam3u1c/inc/core_cmFunc.h ****  ******************************************************************************/
  23:.././hal/sam3u1c/inc/core_cmFunc.h **** 
  24:.././hal/sam3u1c/inc/core_cmFunc.h **** #ifndef __CORE_CMFUNC_H
  25:.././hal/sam3u1c/inc/core_cmFunc.h **** #define __CORE_CMFUNC_H
  26:.././hal/sam3u1c/inc/core_cmFunc.h **** 
  27:.././hal/sam3u1c/inc/core_cmFunc.h **** 
  28:.././hal/sam3u1c/inc/core_cmFunc.h **** /* ###########################  Core Function Access  ########################### */
  29:.././hal/sam3u1c/inc/core_cmFunc.h **** /** \ingroup  CMSIS_Core_FunctionInterface   
  30:.././hal/sam3u1c/inc/core_cmFunc.h ****     \defgroup CMSIS_Core_RegAccFunctions CMSIS Core Register Access Functions
  31:.././hal/sam3u1c/inc/core_cmFunc.h ****   @{
  32:.././hal/sam3u1c/inc/core_cmFunc.h ****  */
  33:.././hal/sam3u1c/inc/core_cmFunc.h **** 
  34:.././hal/sam3u1c/inc/core_cmFunc.h **** #if   defined ( __CC_ARM ) /*------------------RealView Compiler -----------------*/
  35:.././hal/sam3u1c/inc/core_cmFunc.h **** /* ARM armcc specific functions */
  36:.././hal/sam3u1c/inc/core_cmFunc.h **** 
  37:.././hal/sam3u1c/inc/core_cmFunc.h **** #if (__ARMCC_VERSION < 400677)
  38:.././hal/sam3u1c/inc/core_cmFunc.h ****   #error "Please use ARM Compiler Toolchain V4.0.677 or later!"
  39:.././hal/sam3u1c/inc/core_cmFunc.h **** #endif
  40:.././hal/sam3u1c/inc/core_cmFunc.h **** 
  41:.././hal/sam3u1c/inc/core_cmFunc.h **** /* intrinsic void __enable_irq();     */
  42:.././hal/sam3u1c/inc/core_cmFunc.h **** /* intrinsic void __disable_irq();    */
  43:.././hal/sam3u1c/inc/core_cmFunc.h **** 
  44:.././hal/sam3u1c/inc/core_cmFunc.h **** /** \brief  Get Control Register
  45:.././hal/sam3u1c/inc/core_cmFunc.h **** 
  46:.././hal/sam3u1c/inc/core_cmFunc.h ****     This function returns the content of the Control Register.
  47:.././hal/sam3u1c/inc/core_cmFunc.h **** 
  48:.././hal/sam3u1c/inc/core_cmFunc.h ****     \return               Control Register value
  49:.././hal/sam3u1c/inc/core_cmFunc.h ****  */
  50:.././hal/sam3u1c/inc/core_cmFunc.h **** __STATIC_INLINE uint32_t __get_CONTROL(void)
  51:.././hal/sam3u1c/inc/core_cmFunc.h **** {
  52:.././hal/sam3u1c/inc/core_cmFunc.h ****   register uint32_t __regControl         __ASM("control");
  53:.././hal/sam3u1c/inc/core_cmFunc.h ****   return(__regControl);
  54:.././hal/sam3u1c/inc/core_cmFunc.h **** }
  55:.././hal/sam3u1c/inc/core_cmFunc.h **** 
  56:.././hal/sam3u1c/inc/core_cmFunc.h **** 
  57:.././hal/sam3u1c/inc/core_cmFunc.h **** /** \brief  Set Control Register
  58:.././hal/sam3u1c/inc/core_cmFunc.h **** 
  59:.././hal/sam3u1c/inc/core_cmFunc.h ****     This function writes the given value to the Control Register.
  60:.././hal/sam3u1c/inc/core_cmFunc.h **** 
  61:.././hal/sam3u1c/inc/core_cmFunc.h ****     \param [in]    control  Control Register value to set
  62:.././hal/sam3u1c/inc/core_cmFunc.h ****  */
  63:.././hal/sam3u1c/inc/core_cmFunc.h **** __STATIC_INLINE void __set_CONTROL(uint32_t control)
  64:.././hal/sam3u1c/inc/core_cmFunc.h **** {
  65:.././hal/sam3u1c/inc/core_cmFunc.h ****   register uint32_t __regControl         __ASM("control");
  66:.././hal/sam3u1c/inc/core_cmFunc.h ****   __regControl = control;
  67:.././hal/sam3u1c/inc/core_cmFunc.h **** }
  68:.././hal/sam3u1c/inc/core_cmFunc.h **** 
  69:.././hal/sam3u1c/inc/core_cmFunc.h **** 
  70:.././hal/sam3u1c/inc/core_cmFunc.h **** /** \brief  Get IPSR Register
  71:.././hal/sam3u1c/inc/core_cmFunc.h **** 
  72:.././hal/sam3u1c/inc/core_cmFunc.h ****     This function returns the content of the IPSR Register.
  73:.././hal/sam3u1c/inc/core_cmFunc.h **** 
  74:.././hal/sam3u1c/inc/core_cmFunc.h ****     \return               IPSR Register value
  75:.././hal/sam3u1c/inc/core_cmFunc.h ****  */
  76:.././hal/sam3u1c/inc/core_cmFunc.h **** __STATIC_INLINE uint32_t __get_IPSR(void)
  77:.././hal/sam3u1c/inc/core_cmFunc.h **** {
  78:.././hal/sam3u1c/inc/core_cmFunc.h ****   register uint32_t __regIPSR          __ASM("ipsr");
  79:.././hal/sam3u1c/inc/core_cmFunc.h ****   return(__regIPSR);
  80:.././hal/sam3u1c/inc/core_cmFunc.h **** }
  81:.././hal/sam3u1c/inc/core_cmFunc.h **** 
  82:.././hal/sam3u1c/inc/core_cmFunc.h **** 
  83:.././hal/sam3u1c/inc/core_cmFunc.h **** /** \brief  Get APSR Register
  84:.././hal/sam3u1c/inc/core_cmFunc.h **** 
  85:.././hal/sam3u1c/inc/core_cmFunc.h ****     This function returns the content of the APSR Register.
  86:.././hal/sam3u1c/inc/core_cmFunc.h **** 
  87:.././hal/sam3u1c/inc/core_cmFunc.h ****     \return               APSR Register value
  88:.././hal/sam3u1c/inc/core_cmFunc.h ****  */
  89:.././hal/sam3u1c/inc/core_cmFunc.h **** __STATIC_INLINE uint32_t __get_APSR(void)
  90:.././hal/sam3u1c/inc/core_cmFunc.h **** {
  91:.././hal/sam3u1c/inc/core_cmFunc.h ****   register uint32_t __regAPSR          __ASM("apsr");
  92:.././hal/sam3u1c/inc/core_cmFunc.h ****   return(__regAPSR);
  93:.././hal/sam3u1c/inc/core_cmFunc.h **** }
  94:.././hal/sam3u1c/inc/core_cmFunc.h **** 
  95:.././hal/sam3u1c/inc/core_cmFunc.h **** 
  96:.././hal/sam3u1c/inc/core_cmFunc.h **** /** \brief  Get xPSR Register
  97:.././hal/sam3u1c/inc/core_cmFunc.h **** 
  98:.././hal/sam3u1c/inc/core_cmFunc.h ****     This function returns the content of the xPSR Register.
  99:.././hal/sam3u1c/inc/core_cmFunc.h **** 
 100:.././hal/sam3u1c/inc/core_cmFunc.h ****     \return               xPSR Register value
 101:.././hal/sam3u1c/inc/core_cmFunc.h ****  */
 102:.././hal/sam3u1c/inc/core_cmFunc.h **** __STATIC_INLINE uint32_t __get_xPSR(void)
 103:.././hal/sam3u1c/inc/core_cmFunc.h **** {
 104:.././hal/sam3u1c/inc/core_cmFunc.h ****   register uint32_t __regXPSR          __ASM("xpsr");
 105:.././hal/sam3u1c/inc/core_cmFunc.h ****   return(__regXPSR);
 106:.././hal/sam3u1c/inc/core_cmFunc.h **** }
 107:.././hal/sam3u1c/inc/core_cmFunc.h **** 
 108:.././hal/sam3u1c/inc/core_cmFunc.h **** 
 109:.././hal/sam3u1c/inc/core_cmFunc.h **** /** \brief  Get Process Stack Pointer
 110:.././hal/sam3u1c/inc/core_cmFunc.h **** 
 111:.././hal/sam3u1c/inc/core_cmFunc.h ****     This function returns the current value of the Process Stack Pointer (PSP).
 112:.././hal/sam3u1c/inc/core_cmFunc.h **** 
 113:.././hal/sam3u1c/inc/core_cmFunc.h ****     \return               PSP Register value
 114:.././hal/sam3u1c/inc/core_cmFunc.h ****  */
 115:.././hal/sam3u1c/inc/core_cmFunc.h **** __STATIC_INLINE uint32_t __get_PSP(void)
 116:.././hal/sam3u1c/inc/core_cmFunc.h **** {
 117:.././hal/sam3u1c/inc/core_cmFunc.h ****   register uint32_t __regProcessStackPointer  __ASM("psp");
 118:.././hal/sam3u1c/inc/core_cmFunc.h ****   return(__regProcessStackPointer);
 119:.././hal/sam3u1c/inc/core_cmFunc.h **** }
 120:.././hal/sam3u1c/inc/core_cmFunc.h **** 
 121:.././hal/sam3u1c/inc/core_cmFunc.h **** 
 122:.././hal/sam3u1c/inc/core_cmFunc.h **** /** \brief  Set Process Stack Pointer
 123:.././hal/sam3u1c/inc/core_cmFunc.h **** 
 124:.././hal/sam3u1c/inc/core_cmFunc.h ****     This function assigns the given value to the Process Stack Pointer (PSP).
 125:.././hal/sam3u1c/inc/core_cmFunc.h **** 
 126:.././hal/sam3u1c/inc/core_cmFunc.h ****     \param [in]    topOfProcStack  Process Stack Pointer value to set
 127:.././hal/sam3u1c/inc/core_cmFunc.h ****  */
 128:.././hal/sam3u1c/inc/core_cmFunc.h **** __STATIC_INLINE void __set_PSP(uint32_t topOfProcStack)
 129:.././hal/sam3u1c/inc/core_cmFunc.h **** {
 130:.././hal/sam3u1c/inc/core_cmFunc.h ****   register uint32_t __regProcessStackPointer  __ASM("psp");
 131:.././hal/sam3u1c/inc/core_cmFunc.h ****   __regProcessStackPointer = topOfProcStack;
 132:.././hal/sam3u1c/inc/core_cmFunc.h **** }
 133:.././hal/sam3u1c/inc/core_cmFunc.h **** 
 134:.././hal/sam3u1c/inc/core_cmFunc.h **** 
 135:.././hal/sam3u1c/inc/core_cmFunc.h **** /** \brief  Get Main Stack Pointer
 136:.././hal/sam3u1c/inc/core_cmFunc.h **** 
 137:.././hal/sam3u1c/inc/core_cmFunc.h ****     This function returns the current value of the Main Stack Pointer (MSP).
 138:.././hal/sam3u1c/inc/core_cmFunc.h **** 
 139:.././hal/sam3u1c/inc/core_cmFunc.h ****     \return               MSP Register value
 140:.././hal/sam3u1c/inc/core_cmFunc.h ****  */
 141:.././hal/sam3u1c/inc/core_cmFunc.h **** __STATIC_INLINE uint32_t __get_MSP(void)
 142:.././hal/sam3u1c/inc/core_cmFunc.h **** {
 143:.././hal/sam3u1c/inc/core_cmFunc.h ****   register uint32_t __regMainStackPointer     __ASM("msp");
 144:.././hal/sam3u1c/inc/core_cmFunc.h ****   return(__regMainStackPointer);
 145:.././hal/sam3u1c/inc/core_cmFunc.h **** }
 146:.././hal/sam3u1c/inc/core_cmFunc.h **** 
 147:.././hal/sam3u1c/inc/core_cmFunc.h **** 
 148:.././hal/sam3u1c/inc/core_cmFunc.h **** /** \brief  Set Main Stack Pointer
 149:.././hal/sam3u1c/inc/core_cmFunc.h **** 
 150:.././hal/sam3u1c/inc/core_cmFunc.h ****     This function assigns the given value to the Main Stack Pointer (MSP).
 151:.././hal/sam3u1c/inc/core_cmFunc.h **** 
 152:.././hal/sam3u1c/inc/core_cmFunc.h ****     \param [in]    topOfMainStack  Main Stack Pointer value to set
 153:.././hal/sam3u1c/inc/core_cmFunc.h ****  */
 154:.././hal/sam3u1c/inc/core_cmFunc.h **** __STATIC_INLINE void __set_MSP(uint32_t topOfMainStack)
 155:.././hal/sam3u1c/inc/core_cmFunc.h **** {
 156:.././hal/sam3u1c/inc/core_cmFunc.h ****   register uint32_t __regMainStackPointer     __ASM("msp");
 157:.././hal/sam3u1c/inc/core_cmFunc.h ****   __regMainStackPointer = topOfMainStack;
 158:.././hal/sam3u1c/inc/core_cmFunc.h **** }
 159:.././hal/sam3u1c/inc/core_cmFunc.h **** 
 160:.././hal/sam3u1c/inc/core_cmFunc.h **** 
 161:.././hal/sam3u1c/inc/core_cmFunc.h **** /** \brief  Get Priority Mask
 162:.././hal/sam3u1c/inc/core_cmFunc.h **** 
 163:.././hal/sam3u1c/inc/core_cmFunc.h ****     This function returns the current state of the priority mask bit from the Priority Mask Registe
 164:.././hal/sam3u1c/inc/core_cmFunc.h **** 
 165:.././hal/sam3u1c/inc/core_cmFunc.h ****     \return               Priority Mask value
 166:.././hal/sam3u1c/inc/core_cmFunc.h ****  */
 167:.././hal/sam3u1c/inc/core_cmFunc.h **** __STATIC_INLINE uint32_t __get_PRIMASK(void)
 168:.././hal/sam3u1c/inc/core_cmFunc.h **** {
 169:.././hal/sam3u1c/inc/core_cmFunc.h ****   register uint32_t __regPriMask         __ASM("primask");
 170:.././hal/sam3u1c/inc/core_cmFunc.h ****   return(__regPriMask);
 171:.././hal/sam3u1c/inc/core_cmFunc.h **** }
 172:.././hal/sam3u1c/inc/core_cmFunc.h **** 
 173:.././hal/sam3u1c/inc/core_cmFunc.h **** 
 174:.././hal/sam3u1c/inc/core_cmFunc.h **** /** \brief  Set Priority Mask
 175:.././hal/sam3u1c/inc/core_cmFunc.h **** 
 176:.././hal/sam3u1c/inc/core_cmFunc.h ****     This function assigns the given value to the Priority Mask Register.
 177:.././hal/sam3u1c/inc/core_cmFunc.h **** 
 178:.././hal/sam3u1c/inc/core_cmFunc.h ****     \param [in]    priMask  Priority Mask
 179:.././hal/sam3u1c/inc/core_cmFunc.h ****  */
 180:.././hal/sam3u1c/inc/core_cmFunc.h **** __STATIC_INLINE void __set_PRIMASK(uint32_t priMask)
 181:.././hal/sam3u1c/inc/core_cmFunc.h **** {
 182:.././hal/sam3u1c/inc/core_cmFunc.h ****   register uint32_t __regPriMask         __ASM("primask");
 183:.././hal/sam3u1c/inc/core_cmFunc.h ****   __regPriMask = (priMask);
 184:.././hal/sam3u1c/inc/core_cmFunc.h **** }
 185:.././hal/sam3u1c/inc/core_cmFunc.h ****  
 186:.././hal/sam3u1c/inc/core_cmFunc.h **** 
 187:.././hal/sam3u1c/inc/core_cmFunc.h **** #if       (__CORTEX_M >= 0x03)
 188:.././hal/sam3u1c/inc/core_cmFunc.h **** 
 189:.././hal/sam3u1c/inc/core_cmFunc.h **** /** \brief  Enable FIQ
 190:.././hal/sam3u1c/inc/core_cmFunc.h **** 
 191:.././hal/sam3u1c/inc/core_cmFunc.h ****     This function enables FIQ interrupts by clearing the F-bit in the CPSR.
 192:.././hal/sam3u1c/inc/core_cmFunc.h ****     Can only be executed in Privileged modes.
 193:.././hal/sam3u1c/inc/core_cmFunc.h ****  */
 194:.././hal/sam3u1c/inc/core_cmFunc.h **** #define __enable_fault_irq                __enable_fiq
 195:.././hal/sam3u1c/inc/core_cmFunc.h **** 
 196:.././hal/sam3u1c/inc/core_cmFunc.h **** 
 197:.././hal/sam3u1c/inc/core_cmFunc.h **** /** \brief  Disable FIQ
 198:.././hal/sam3u1c/inc/core_cmFunc.h **** 
 199:.././hal/sam3u1c/inc/core_cmFunc.h ****     This function disables FIQ interrupts by setting the F-bit in the CPSR.
 200:.././hal/sam3u1c/inc/core_cmFunc.h ****     Can only be executed in Privileged modes.
 201:.././hal/sam3u1c/inc/core_cmFunc.h ****  */
 202:.././hal/sam3u1c/inc/core_cmFunc.h **** #define __disable_fault_irq               __disable_fiq
 203:.././hal/sam3u1c/inc/core_cmFunc.h **** 
 204:.././hal/sam3u1c/inc/core_cmFunc.h **** 
 205:.././hal/sam3u1c/inc/core_cmFunc.h **** /** \brief  Get Base Priority
 206:.././hal/sam3u1c/inc/core_cmFunc.h **** 
 207:.././hal/sam3u1c/inc/core_cmFunc.h ****     This function returns the current value of the Base Priority register.
 208:.././hal/sam3u1c/inc/core_cmFunc.h **** 
 209:.././hal/sam3u1c/inc/core_cmFunc.h ****     \return               Base Priority register value
 210:.././hal/sam3u1c/inc/core_cmFunc.h ****  */
 211:.././hal/sam3u1c/inc/core_cmFunc.h **** __STATIC_INLINE uint32_t  __get_BASEPRI(void)
 212:.././hal/sam3u1c/inc/core_cmFunc.h **** {
 213:.././hal/sam3u1c/inc/core_cmFunc.h ****   register uint32_t __regBasePri         __ASM("basepri");
 214:.././hal/sam3u1c/inc/core_cmFunc.h ****   return(__regBasePri);
 215:.././hal/sam3u1c/inc/core_cmFunc.h **** }
 216:.././hal/sam3u1c/inc/core_cmFunc.h **** 
 217:.././hal/sam3u1c/inc/core_cmFunc.h **** 
 218:.././hal/sam3u1c/inc/core_cmFunc.h **** /** \brief  Set Base Priority
 219:.././hal/sam3u1c/inc/core_cmFunc.h **** 
 220:.././hal/sam3u1c/inc/core_cmFunc.h ****     This function assigns the given value to the Base Priority register.
 221:.././hal/sam3u1c/inc/core_cmFunc.h **** 
 222:.././hal/sam3u1c/inc/core_cmFunc.h ****     \param [in]    basePri  Base Priority value to set
 223:.././hal/sam3u1c/inc/core_cmFunc.h ****  */
 224:.././hal/sam3u1c/inc/core_cmFunc.h **** __STATIC_INLINE void __set_BASEPRI(uint32_t basePri)
 225:.././hal/sam3u1c/inc/core_cmFunc.h **** {
 226:.././hal/sam3u1c/inc/core_cmFunc.h ****   register uint32_t __regBasePri         __ASM("basepri");
 227:.././hal/sam3u1c/inc/core_cmFunc.h ****   __regBasePri = (basePri & 0xff);
 228:.././hal/sam3u1c/inc/core_cmFunc.h **** }
 229:.././hal/sam3u1c/inc/core_cmFunc.h ****  
 230:.././hal/sam3u1c/inc/core_cmFunc.h **** 
 231:.././hal/sam3u1c/inc/core_cmFunc.h **** /** \brief  Get Fault Mask
 232:.././hal/sam3u1c/inc/core_cmFunc.h **** 
 233:.././hal/sam3u1c/inc/core_cmFunc.h ****     This function returns the current value of the Fault Mask register.
 234:.././hal/sam3u1c/inc/core_cmFunc.h **** 
 235:.././hal/sam3u1c/inc/core_cmFunc.h ****     \return               Fault Mask register value
 236:.././hal/sam3u1c/inc/core_cmFunc.h ****  */
 237:.././hal/sam3u1c/inc/core_cmFunc.h **** __STATIC_INLINE uint32_t __get_FAULTMASK(void)
 238:.././hal/sam3u1c/inc/core_cmFunc.h **** {
 239:.././hal/sam3u1c/inc/core_cmFunc.h ****   register uint32_t __regFaultMask       __ASM("faultmask");
 240:.././hal/sam3u1c/inc/core_cmFunc.h ****   return(__regFaultMask);
 241:.././hal/sam3u1c/inc/core_cmFunc.h **** }
 242:.././hal/sam3u1c/inc/core_cmFunc.h **** 
 243:.././hal/sam3u1c/inc/core_cmFunc.h **** 
 244:.././hal/sam3u1c/inc/core_cmFunc.h **** /** \brief  Set Fault Mask
 245:.././hal/sam3u1c/inc/core_cmFunc.h **** 
 246:.././hal/sam3u1c/inc/core_cmFunc.h ****     This function assigns the given value to the Fault Mask register.
 247:.././hal/sam3u1c/inc/core_cmFunc.h **** 
 248:.././hal/sam3u1c/inc/core_cmFunc.h ****     \param [in]    faultMask  Fault Mask value to set
 249:.././hal/sam3u1c/inc/core_cmFunc.h ****  */
 250:.././hal/sam3u1c/inc/core_cmFunc.h **** __STATIC_INLINE void __set_FAULTMASK(uint32_t faultMask)
 251:.././hal/sam3u1c/inc/core_cmFunc.h **** {
 252:.././hal/sam3u1c/inc/core_cmFunc.h ****   register uint32_t __regFaultMask       __ASM("faultmask");
 253:.././hal/sam3u1c/inc/core_cmFunc.h ****   __regFaultMask = (faultMask & (uint32_t)1);
 254:.././hal/sam3u1c/inc/core_cmFunc.h **** }
 255:.././hal/sam3u1c/inc/core_cmFunc.h **** 
 256:.././hal/sam3u1c/inc/core_cmFunc.h **** #endif /* (__CORTEX_M >= 0x03) */
 257:.././hal/sam3u1c/inc/core_cmFunc.h **** 
 258:.././hal/sam3u1c/inc/core_cmFunc.h **** 
 259:.././hal/sam3u1c/inc/core_cmFunc.h **** #if       (__CORTEX_M == 0x04)
 260:.././hal/sam3u1c/inc/core_cmFunc.h **** 
 261:.././hal/sam3u1c/inc/core_cmFunc.h **** /** \brief  Get FPSCR
 262:.././hal/sam3u1c/inc/core_cmFunc.h **** 
 263:.././hal/sam3u1c/inc/core_cmFunc.h ****     This function returns the current value of the Floating Point Status/Control register.
 264:.././hal/sam3u1c/inc/core_cmFunc.h **** 
 265:.././hal/sam3u1c/inc/core_cmFunc.h ****     \return               Floating Point Status/Control register value
 266:.././hal/sam3u1c/inc/core_cmFunc.h ****  */
 267:.././hal/sam3u1c/inc/core_cmFunc.h **** __STATIC_INLINE uint32_t __get_FPSCR(void)
 268:.././hal/sam3u1c/inc/core_cmFunc.h **** {
 269:.././hal/sam3u1c/inc/core_cmFunc.h **** #if (__FPU_PRESENT == 1) && (__FPU_USED == 1)
 270:.././hal/sam3u1c/inc/core_cmFunc.h ****   register uint32_t __regfpscr         __ASM("fpscr");
 271:.././hal/sam3u1c/inc/core_cmFunc.h ****   return(__regfpscr);
 272:.././hal/sam3u1c/inc/core_cmFunc.h **** #else
 273:.././hal/sam3u1c/inc/core_cmFunc.h ****    return(0);
 274:.././hal/sam3u1c/inc/core_cmFunc.h **** #endif
 275:.././hal/sam3u1c/inc/core_cmFunc.h **** }
 276:.././hal/sam3u1c/inc/core_cmFunc.h **** 
 277:.././hal/sam3u1c/inc/core_cmFunc.h **** 
 278:.././hal/sam3u1c/inc/core_cmFunc.h **** /** \brief  Set FPSCR
 279:.././hal/sam3u1c/inc/core_cmFunc.h **** 
 280:.././hal/sam3u1c/inc/core_cmFunc.h ****     This function assigns the given value to the Floating Point Status/Control register.
 281:.././hal/sam3u1c/inc/core_cmFunc.h **** 
 282:.././hal/sam3u1c/inc/core_cmFunc.h ****     \param [in]    fpscr  Floating Point Status/Control value to set
 283:.././hal/sam3u1c/inc/core_cmFunc.h ****  */
 284:.././hal/sam3u1c/inc/core_cmFunc.h **** __STATIC_INLINE void __set_FPSCR(uint32_t fpscr)
 285:.././hal/sam3u1c/inc/core_cmFunc.h **** {
 286:.././hal/sam3u1c/inc/core_cmFunc.h **** #if (__FPU_PRESENT == 1) && (__FPU_USED == 1)
 287:.././hal/sam3u1c/inc/core_cmFunc.h ****   register uint32_t __regfpscr         __ASM("fpscr");
 288:.././hal/sam3u1c/inc/core_cmFunc.h ****   __regfpscr = (fpscr);
 289:.././hal/sam3u1c/inc/core_cmFunc.h **** #endif
 290:.././hal/sam3u1c/inc/core_cmFunc.h **** }
 291:.././hal/sam3u1c/inc/core_cmFunc.h **** 
 292:.././hal/sam3u1c/inc/core_cmFunc.h **** #endif /* (__CORTEX_M == 0x04) */
 293:.././hal/sam3u1c/inc/core_cmFunc.h **** 
 294:.././hal/sam3u1c/inc/core_cmFunc.h **** 
 295:.././hal/sam3u1c/inc/core_cmFunc.h **** #elif defined ( __ICCARM__ ) /*------------------ ICC Compiler -------------------*/
 296:.././hal/sam3u1c/inc/core_cmFunc.h **** /* IAR iccarm specific functions */
 297:.././hal/sam3u1c/inc/core_cmFunc.h **** 
 298:.././hal/sam3u1c/inc/core_cmFunc.h **** #include <cmsis_iar.h>
 299:.././hal/sam3u1c/inc/core_cmFunc.h **** 
 300:.././hal/sam3u1c/inc/core_cmFunc.h **** 
 301:.././hal/sam3u1c/inc/core_cmFunc.h **** #elif defined ( __TMS470__ ) /*---------------- TI CCS Compiler ------------------*/
 302:.././hal/sam3u1c/inc/core_cmFunc.h **** /* TI CCS specific functions */
 303:.././hal/sam3u1c/inc/core_cmFunc.h **** 
 304:.././hal/sam3u1c/inc/core_cmFunc.h **** #include <cmsis_ccs.h>
 305:.././hal/sam3u1c/inc/core_cmFunc.h **** 
 306:.././hal/sam3u1c/inc/core_cmFunc.h **** 
 307:.././hal/sam3u1c/inc/core_cmFunc.h **** #elif defined ( __GNUC__ ) /*------------------ GNU Compiler ---------------------*/
 308:.././hal/sam3u1c/inc/core_cmFunc.h **** /* GNU gcc specific functions */
 309:.././hal/sam3u1c/inc/core_cmFunc.h **** 
 310:.././hal/sam3u1c/inc/core_cmFunc.h **** /** \brief  Enable IRQ Interrupts
 311:.././hal/sam3u1c/inc/core_cmFunc.h **** 
 312:.././hal/sam3u1c/inc/core_cmFunc.h ****   This function enables IRQ interrupts by clearing the I-bit in the CPSR.
 313:.././hal/sam3u1c/inc/core_cmFunc.h ****   Can only be executed in Privileged modes.
 314:.././hal/sam3u1c/inc/core_cmFunc.h ****  */
 315:.././hal/sam3u1c/inc/core_cmFunc.h **** __attribute__( ( always_inline ) ) __STATIC_INLINE void __enable_irq(void)
 316:.././hal/sam3u1c/inc/core_cmFunc.h **** {
 317:.././hal/sam3u1c/inc/core_cmFunc.h ****   __ASM volatile ("cpsie i");
 318:.././hal/sam3u1c/inc/core_cmFunc.h **** }
 319:.././hal/sam3u1c/inc/core_cmFunc.h **** 
 320:.././hal/sam3u1c/inc/core_cmFunc.h **** 
 321:.././hal/sam3u1c/inc/core_cmFunc.h **** /** \brief  Disable IRQ Interrupts
 322:.././hal/sam3u1c/inc/core_cmFunc.h **** 
 323:.././hal/sam3u1c/inc/core_cmFunc.h ****   This function disables IRQ interrupts by setting the I-bit in the CPSR.
 324:.././hal/sam3u1c/inc/core_cmFunc.h ****   Can only be executed in Privileged modes.
 325:.././hal/sam3u1c/inc/core_cmFunc.h ****  */
 326:.././hal/sam3u1c/inc/core_cmFunc.h **** __attribute__( ( always_inline ) ) __STATIC_INLINE void __disable_irq(void)
 327:.././hal/sam3u1c/inc/core_cmFunc.h **** {
 328:.././hal/sam3u1c/inc/core_cmFunc.h ****   __ASM volatile ("cpsid i");
 329:.././hal/sam3u1c/inc/core_cmFunc.h **** }
 330:.././hal/sam3u1c/inc/core_cmFunc.h **** 
 331:.././hal/sam3u1c/inc/core_cmFunc.h **** 
 332:.././hal/sam3u1c/inc/core_cmFunc.h **** /** \brief  Get Control Register
 333:.././hal/sam3u1c/inc/core_cmFunc.h **** 
 334:.././hal/sam3u1c/inc/core_cmFunc.h ****     This function returns the content of the Control Register.
 335:.././hal/sam3u1c/inc/core_cmFunc.h **** 
 336:.././hal/sam3u1c/inc/core_cmFunc.h ****     \return               Control Register value
 337:.././hal/sam3u1c/inc/core_cmFunc.h ****  */
 338:.././hal/sam3u1c/inc/core_cmFunc.h **** __attribute__( ( always_inline ) ) __STATIC_INLINE uint32_t __get_CONTROL(void)
 339:.././hal/sam3u1c/inc/core_cmFunc.h **** {
 340:.././hal/sam3u1c/inc/core_cmFunc.h ****   uint32_t result;
 341:.././hal/sam3u1c/inc/core_cmFunc.h **** 
 342:.././hal/sam3u1c/inc/core_cmFunc.h ****   __ASM volatile ("MRS %0, control" : "=r" (result) );
 343:.././hal/sam3u1c/inc/core_cmFunc.h ****   return(result);
 344:.././hal/sam3u1c/inc/core_cmFunc.h **** }
 345:.././hal/sam3u1c/inc/core_cmFunc.h **** 
 346:.././hal/sam3u1c/inc/core_cmFunc.h **** 
 347:.././hal/sam3u1c/inc/core_cmFunc.h **** /** \brief  Set Control Register
 348:.././hal/sam3u1c/inc/core_cmFunc.h **** 
 349:.././hal/sam3u1c/inc/core_cmFunc.h ****     This function writes the given value to the Control Register.
 350:.././hal/sam3u1c/inc/core_cmFunc.h **** 
 351:.././hal/sam3u1c/inc/core_cmFunc.h ****     \param [in]    control  Control Register value to set
 352:.././hal/sam3u1c/inc/core_cmFunc.h ****  */
 353:.././hal/sam3u1c/inc/core_cmFunc.h **** __attribute__( ( always_inline ) ) __STATIC_INLINE void __set_CONTROL(uint32_t control)
 354:.././hal/sam3u1c/inc/core_cmFunc.h **** {
 355:.././hal/sam3u1c/inc/core_cmFunc.h ****   __ASM volatile ("MSR control, %0" : : "r" (control) );
 356:.././hal/sam3u1c/inc/core_cmFunc.h **** }
 357:.././hal/sam3u1c/inc/core_cmFunc.h **** 
 358:.././hal/sam3u1c/inc/core_cmFunc.h **** 
 359:.././hal/sam3u1c/inc/core_cmFunc.h **** /** \brief  Get IPSR Register
 360:.././hal/sam3u1c/inc/core_cmFunc.h **** 
 361:.././hal/sam3u1c/inc/core_cmFunc.h ****     This function returns the content of the IPSR Register.
 362:.././hal/sam3u1c/inc/core_cmFunc.h **** 
 363:.././hal/sam3u1c/inc/core_cmFunc.h ****     \return               IPSR Register value
 364:.././hal/sam3u1c/inc/core_cmFunc.h ****  */
 365:.././hal/sam3u1c/inc/core_cmFunc.h **** __attribute__( ( always_inline ) ) __STATIC_INLINE uint32_t __get_IPSR(void)
 366:.././hal/sam3u1c/inc/core_cmFunc.h **** {
 367:.././hal/sam3u1c/inc/core_cmFunc.h ****   uint32_t result;
 368:.././hal/sam3u1c/inc/core_cmFunc.h **** 
 369:.././hal/sam3u1c/inc/core_cmFunc.h ****   __ASM volatile ("MRS %0, ipsr" : "=r" (result) );
 370:.././hal/sam3u1c/inc/core_cmFunc.h ****   return(result);
 371:.././hal/sam3u1c/inc/core_cmFunc.h **** }
 372:.././hal/sam3u1c/inc/core_cmFunc.h **** 
 373:.././hal/sam3u1c/inc/core_cmFunc.h **** 
 374:.././hal/sam3u1c/inc/core_cmFunc.h **** /** \brief  Get APSR Register
 375:.././hal/sam3u1c/inc/core_cmFunc.h **** 
 376:.././hal/sam3u1c/inc/core_cmFunc.h ****     This function returns the content of the APSR Register.
 377:.././hal/sam3u1c/inc/core_cmFunc.h **** 
 378:.././hal/sam3u1c/inc/core_cmFunc.h ****     \return               APSR Register value
 379:.././hal/sam3u1c/inc/core_cmFunc.h ****  */
 380:.././hal/sam3u1c/inc/core_cmFunc.h **** __attribute__( ( always_inline ) ) __STATIC_INLINE uint32_t __get_APSR(void)
 381:.././hal/sam3u1c/inc/core_cmFunc.h **** {
 382:.././hal/sam3u1c/inc/core_cmFunc.h ****   uint32_t result;
 383:.././hal/sam3u1c/inc/core_cmFunc.h **** 
 384:.././hal/sam3u1c/inc/core_cmFunc.h ****   __ASM volatile ("MRS %0, apsr" : "=r" (result) );
 385:.././hal/sam3u1c/inc/core_cmFunc.h ****   return(result);
 386:.././hal/sam3u1c/inc/core_cmFunc.h **** }
 387:.././hal/sam3u1c/inc/core_cmFunc.h **** 
 388:.././hal/sam3u1c/inc/core_cmFunc.h **** 
 389:.././hal/sam3u1c/inc/core_cmFunc.h **** /** \brief  Get xPSR Register
 390:.././hal/sam3u1c/inc/core_cmFunc.h **** 
 391:.././hal/sam3u1c/inc/core_cmFunc.h ****     This function returns the content of the xPSR Register.
 392:.././hal/sam3u1c/inc/core_cmFunc.h **** 
 393:.././hal/sam3u1c/inc/core_cmFunc.h ****     \return               xPSR Register value
 394:.././hal/sam3u1c/inc/core_cmFunc.h ****  */
 395:.././hal/sam3u1c/inc/core_cmFunc.h **** __attribute__( ( always_inline ) ) __STATIC_INLINE uint32_t __get_xPSR(void)
 396:.././hal/sam3u1c/inc/core_cmFunc.h **** {
 397:.././hal/sam3u1c/inc/core_cmFunc.h ****   uint32_t result;
 398:.././hal/sam3u1c/inc/core_cmFunc.h **** 
 399:.././hal/sam3u1c/inc/core_cmFunc.h ****   __ASM volatile ("MRS %0, xpsr" : "=r" (result) );
 400:.././hal/sam3u1c/inc/core_cmFunc.h ****   return(result);
 401:.././hal/sam3u1c/inc/core_cmFunc.h **** }
 402:.././hal/sam3u1c/inc/core_cmFunc.h **** 
 403:.././hal/sam3u1c/inc/core_cmFunc.h **** 
 404:.././hal/sam3u1c/inc/core_cmFunc.h **** /** \brief  Get Process Stack Pointer
 405:.././hal/sam3u1c/inc/core_cmFunc.h **** 
 406:.././hal/sam3u1c/inc/core_cmFunc.h ****     This function returns the current value of the Process Stack Pointer (PSP).
 407:.././hal/sam3u1c/inc/core_cmFunc.h **** 
 408:.././hal/sam3u1c/inc/core_cmFunc.h ****     \return               PSP Register value
 409:.././hal/sam3u1c/inc/core_cmFunc.h ****  */
 410:.././hal/sam3u1c/inc/core_cmFunc.h **** __attribute__( ( always_inline ) ) __STATIC_INLINE uint32_t __get_PSP(void)
 411:.././hal/sam3u1c/inc/core_cmFunc.h **** {
 412:.././hal/sam3u1c/inc/core_cmFunc.h ****   register uint32_t result;
 413:.././hal/sam3u1c/inc/core_cmFunc.h **** 
 414:.././hal/sam3u1c/inc/core_cmFunc.h ****   __ASM volatile ("MRS %0, psp\n"  : "=r" (result) );
 415:.././hal/sam3u1c/inc/core_cmFunc.h ****   return(result);
 416:.././hal/sam3u1c/inc/core_cmFunc.h **** }
 417:.././hal/sam3u1c/inc/core_cmFunc.h ****  
 418:.././hal/sam3u1c/inc/core_cmFunc.h **** 
 419:.././hal/sam3u1c/inc/core_cmFunc.h **** /** \brief  Set Process Stack Pointer
 420:.././hal/sam3u1c/inc/core_cmFunc.h **** 
 421:.././hal/sam3u1c/inc/core_cmFunc.h ****     This function assigns the given value to the Process Stack Pointer (PSP).
 422:.././hal/sam3u1c/inc/core_cmFunc.h **** 
 423:.././hal/sam3u1c/inc/core_cmFunc.h ****     \param [in]    topOfProcStack  Process Stack Pointer value to set
 424:.././hal/sam3u1c/inc/core_cmFunc.h ****  */
 425:.././hal/sam3u1c/inc/core_cmFunc.h **** __attribute__( ( always_inline ) ) __STATIC_INLINE void __set_PSP(uint32_t topOfProcStack)
 426:.././hal/sam3u1c/inc/core_cmFunc.h **** {
 427:.././hal/sam3u1c/inc/core_cmFunc.h ****   __ASM volatile ("MSR psp, %0\n" : : "r" (topOfProcStack) );
 428:.././hal/sam3u1c/inc/core_cmFunc.h **** }
 429:.././hal/sam3u1c/inc/core_cmFunc.h **** 
 430:.././hal/sam3u1c/inc/core_cmFunc.h **** 
 431:.././hal/sam3u1c/inc/core_cmFunc.h **** /** \brief  Get Main Stack Pointer
 432:.././hal/sam3u1c/inc/core_cmFunc.h **** 
 433:.././hal/sam3u1c/inc/core_cmFunc.h ****     This function returns the current value of the Main Stack Pointer (MSP).
 434:.././hal/sam3u1c/inc/core_cmFunc.h **** 
 435:.././hal/sam3u1c/inc/core_cmFunc.h ****     \return               MSP Register value
 436:.././hal/sam3u1c/inc/core_cmFunc.h ****  */
 437:.././hal/sam3u1c/inc/core_cmFunc.h **** __attribute__( ( always_inline ) ) __STATIC_INLINE uint32_t __get_MSP(void)
 438:.././hal/sam3u1c/inc/core_cmFunc.h **** {
 439:.././hal/sam3u1c/inc/core_cmFunc.h ****   register uint32_t result;
 440:.././hal/sam3u1c/inc/core_cmFunc.h **** 
 441:.././hal/sam3u1c/inc/core_cmFunc.h ****   __ASM volatile ("MRS %0, msp\n" : "=r" (result) );
 442:.././hal/sam3u1c/inc/core_cmFunc.h ****   return(result);
 443:.././hal/sam3u1c/inc/core_cmFunc.h **** }
 444:.././hal/sam3u1c/inc/core_cmFunc.h ****  
 445:.././hal/sam3u1c/inc/core_cmFunc.h **** 
 446:.././hal/sam3u1c/inc/core_cmFunc.h **** /** \brief  Set Main Stack Pointer
 447:.././hal/sam3u1c/inc/core_cmFunc.h **** 
 448:.././hal/sam3u1c/inc/core_cmFunc.h ****     This function assigns the given value to the Main Stack Pointer (MSP).
 449:.././hal/sam3u1c/inc/core_cmFunc.h **** 
 450:.././hal/sam3u1c/inc/core_cmFunc.h ****     \param [in]    topOfMainStack  Main Stack Pointer value to set
 451:.././hal/sam3u1c/inc/core_cmFunc.h ****  */
 452:.././hal/sam3u1c/inc/core_cmFunc.h **** __attribute__( ( always_inline ) ) __STATIC_INLINE void __set_MSP(uint32_t topOfMainStack)
 453:.././hal/sam3u1c/inc/core_cmFunc.h **** {
 454:.././hal/sam3u1c/inc/core_cmFunc.h ****   __ASM volatile ("MSR msp, %0\n" : : "r" (topOfMainStack) );
 455:.././hal/sam3u1c/inc/core_cmFunc.h **** }
 456:.././hal/sam3u1c/inc/core_cmFunc.h **** 
 457:.././hal/sam3u1c/inc/core_cmFunc.h **** 
 458:.././hal/sam3u1c/inc/core_cmFunc.h **** /** \brief  Get Priority Mask
 459:.././hal/sam3u1c/inc/core_cmFunc.h **** 
 460:.././hal/sam3u1c/inc/core_cmFunc.h ****     This function returns the current state of the priority mask bit from the Priority Mask Registe
 461:.././hal/sam3u1c/inc/core_cmFunc.h **** 
 462:.././hal/sam3u1c/inc/core_cmFunc.h ****     \return               Priority Mask value
 463:.././hal/sam3u1c/inc/core_cmFunc.h ****  */
 464:.././hal/sam3u1c/inc/core_cmFunc.h **** __attribute__( ( always_inline ) ) __STATIC_INLINE uint32_t __get_PRIMASK(void)
 465:.././hal/sam3u1c/inc/core_cmFunc.h **** {
 466:.././hal/sam3u1c/inc/core_cmFunc.h ****   uint32_t result;
 467:.././hal/sam3u1c/inc/core_cmFunc.h **** 
 468:.././hal/sam3u1c/inc/core_cmFunc.h ****   __ASM volatile ("MRS %0, primask" : "=r" (result) );
  55              	 .loc 2 468 3
  56              	 .syntax unified
  57              	
  58 0006 EFF31083 	 MRS r3,primask
  59              	
  60              	 .thumb
  61              	 .syntax unified
  62 000a 3B60     	 str r3,[r7]
 469:.././hal/sam3u1c/inc/core_cmFunc.h ****   return(result);
  63              	 .loc 2 469 9
  64 000c 3B68     	 ldr r3,[r7]
  65              	.LBE13:
  66              	.LBE12:
 150:.././hal/sam3u1c/inc/interrupt/interrupt_sam_nvic.h **** 	irqflags_t flags = cpu_irq_is_enabled();
  67              	 .loc 1 150 21
  68 000e 002B     	 cmp r3,#0
  69 0010 0CBF     	 ite eq
  70 0012 0123     	 moveq r3,#1
  71 0014 0023     	 movne r3,#0
  72 0016 DBB2     	 uxtb r3,r3
  73              	 .loc 1 150 13
  74 0018 7B60     	 str r3,[r7,#4]
  75              	.LBB14:
  76              	.LBB15:
 328:.././hal/sam3u1c/inc/core_cmFunc.h **** }
  77              	 .loc 2 328 3
  78              	 .syntax unified
  79              	
  80 001a 72B6     	 cpsid i
  81              	
  82              	 .thumb
  83              	 .syntax unified
  84              	.LBE15:
  85              	.LBE14:
  86              	.LBB16:
  87              	.LBB17:
  88              	 .file 3 ".././hal/sam3u1c/inc/core_cmInstr.h"
   1:.././hal/sam3u1c/inc/core_cmInstr.h **** /**************************************************************************//**
   2:.././hal/sam3u1c/inc/core_cmInstr.h ****  * @file     core_cmInstr.h
   3:.././hal/sam3u1c/inc/core_cmInstr.h ****  * @brief    CMSIS Cortex-M Core Instruction Access Header File
   4:.././hal/sam3u1c/inc/core_cmInstr.h ****  * @version  V3.00
   5:.././hal/sam3u1c/inc/core_cmInstr.h ****  * @date     07. February 2012
   6:.././hal/sam3u1c/inc/core_cmInstr.h ****  *
   7:.././hal/sam3u1c/inc/core_cmInstr.h ****  * @note
   8:.././hal/sam3u1c/inc/core_cmInstr.h ****  * Copyright (C) 2009-2012 ARM Limited. All rights reserved.
   9:.././hal/sam3u1c/inc/core_cmInstr.h ****  *
  10:.././hal/sam3u1c/inc/core_cmInstr.h ****  * @par
  11:.././hal/sam3u1c/inc/core_cmInstr.h ****  * ARM Limited (ARM) is supplying this software for use with Cortex-M
  12:.././hal/sam3u1c/inc/core_cmInstr.h ****  * processor based microcontrollers.  This file can be freely distributed
  13:.././hal/sam3u1c/inc/core_cmInstr.h ****  * within development tools that are supporting such ARM based processors.
  14:.././hal/sam3u1c/inc/core_cmInstr.h ****  *
  15:.././hal/sam3u1c/inc/core_cmInstr.h ****  * @par
  16:.././hal/sam3u1c/inc/core_cmInstr.h ****  * THIS SOFTWARE IS PROVIDED "AS IS".  NO WARRANTIES, WHETHER EXPRESS, IMPLIED
  17:.././hal/sam3u1c/inc/core_cmInstr.h ****  * OR STATUTORY, INCLUDING, BUT NOT LIMITED TO, IMPLIED WARRANTIES OF
  18:.././hal/sam3u1c/inc/core_cmInstr.h ****  * MERCHANTABILITY AND FITNESS FOR A PARTICULAR PURPOSE APPLY TO THIS SOFTWARE.
  19:.././hal/sam3u1c/inc/core_cmInstr.h ****  * ARM SHALL NOT, IN ANY CIRCUMSTANCES, BE LIABLE FOR SPECIAL, INCIDENTAL, OR
  20:.././hal/sam3u1c/inc/core_cmInstr.h ****  * CONSEQUENTIAL DAMAGES, FOR ANY REASON WHATSOEVER.
  21:.././hal/sam3u1c/inc/core_cmInstr.h ****  *
  22:.././hal/sam3u1c/inc/core_cmInstr.h ****  ******************************************************************************/
  23:.././hal/sam3u1c/inc/core_cmInstr.h **** 
  24:.././hal/sam3u1c/inc/core_cmInstr.h **** #ifndef __CORE_CMINSTR_H
  25:.././hal/sam3u1c/inc/core_cmInstr.h **** #define __CORE_CMINSTR_H
  26:.././hal/sam3u1c/inc/core_cmInstr.h **** 
  27:.././hal/sam3u1c/inc/core_cmInstr.h **** 
  28:.././hal/sam3u1c/inc/core_cmInstr.h **** /* ##########################  Core Instruction Access  ######################### */
  29:.././hal/sam3u1c/inc/core_cmInstr.h **** /** \defgroup CMSIS_Core_InstructionInterface CMSIS Core Instruction Interface
  30:.././hal/sam3u1c/inc/core_cmInstr.h ****   Access to dedicated instructions
  31:.././hal/sam3u1c/inc/core_cmInstr.h ****   @{
  32:.././hal/sam3u1c/inc/core_cmInstr.h **** */
  33:.././hal/sam3u1c/inc/core_cmInstr.h **** 
  34:.././hal/sam3u1c/inc/core_cmInstr.h **** #if   defined ( __CC_ARM ) /*------------------RealView Compiler -----------------*/
  35:.././hal/sam3u1c/inc/core_cmInstr.h **** /* ARM armcc specific functions */
  36:.././hal/sam3u1c/inc/core_cmInstr.h **** 
  37:.././hal/sam3u1c/inc/core_cmInstr.h **** #if (__ARMCC_VERSION < 400677)
  38:.././hal/sam3u1c/inc/core_cmInstr.h ****   #error "Please use ARM Compiler Toolchain V4.0.677 or later!"
  39:.././hal/sam3u1c/inc/core_cmInstr.h **** #endif
  40:.././hal/sam3u1c/inc/core_cmInstr.h **** 
  41:.././hal/sam3u1c/inc/core_cmInstr.h **** 
  42:.././hal/sam3u1c/inc/core_cmInstr.h **** /** \brief  No Operation
  43:.././hal/sam3u1c/inc/core_cmInstr.h **** 
  44:.././hal/sam3u1c/inc/core_cmInstr.h ****     No Operation does nothing. This instruction can be used for code alignment purposes.
  45:.././hal/sam3u1c/inc/core_cmInstr.h ****  */
  46:.././hal/sam3u1c/inc/core_cmInstr.h **** #define __NOP                             __nop
  47:.././hal/sam3u1c/inc/core_cmInstr.h **** 
  48:.././hal/sam3u1c/inc/core_cmInstr.h **** 
  49:.././hal/sam3u1c/inc/core_cmInstr.h **** /** \brief  Wait For Interrupt
  50:.././hal/sam3u1c/inc/core_cmInstr.h **** 
  51:.././hal/sam3u1c/inc/core_cmInstr.h ****     Wait For Interrupt is a hint instruction that suspends execution
  52:.././hal/sam3u1c/inc/core_cmInstr.h ****     until one of a number of events occurs.
  53:.././hal/sam3u1c/inc/core_cmInstr.h ****  */
  54:.././hal/sam3u1c/inc/core_cmInstr.h **** #define __WFI                             __wfi
  55:.././hal/sam3u1c/inc/core_cmInstr.h **** 
  56:.././hal/sam3u1c/inc/core_cmInstr.h **** 
  57:.././hal/sam3u1c/inc/core_cmInstr.h **** /** \brief  Wait For Event
  58:.././hal/sam3u1c/inc/core_cmInstr.h **** 
  59:.././hal/sam3u1c/inc/core_cmInstr.h ****     Wait For Event is a hint instruction that permits the processor to enter
  60:.././hal/sam3u1c/inc/core_cmInstr.h ****     a low-power state until one of a number of events occurs.
  61:.././hal/sam3u1c/inc/core_cmInstr.h ****  */
  62:.././hal/sam3u1c/inc/core_cmInstr.h **** #define __WFE                             __wfe
  63:.././hal/sam3u1c/inc/core_cmInstr.h **** 
  64:.././hal/sam3u1c/inc/core_cmInstr.h **** 
  65:.././hal/sam3u1c/inc/core_cmInstr.h **** /** \brief  Send Event
  66:.././hal/sam3u1c/inc/core_cmInstr.h **** 
  67:.././hal/sam3u1c/inc/core_cmInstr.h ****     Send Event is a hint instruction. It causes an event to be signaled to the CPU.
  68:.././hal/sam3u1c/inc/core_cmInstr.h ****  */
  69:.././hal/sam3u1c/inc/core_cmInstr.h **** #define __SEV                             __sev
  70:.././hal/sam3u1c/inc/core_cmInstr.h **** 
  71:.././hal/sam3u1c/inc/core_cmInstr.h **** 
  72:.././hal/sam3u1c/inc/core_cmInstr.h **** /** \brief  Instruction Synchronization Barrier
  73:.././hal/sam3u1c/inc/core_cmInstr.h **** 
  74:.././hal/sam3u1c/inc/core_cmInstr.h ****     Instruction Synchronization Barrier flushes the pipeline in the processor,
  75:.././hal/sam3u1c/inc/core_cmInstr.h ****     so that all instructions following the ISB are fetched from cache or
  76:.././hal/sam3u1c/inc/core_cmInstr.h ****     memory, after the instruction has been completed.
  77:.././hal/sam3u1c/inc/core_cmInstr.h ****  */
  78:.././hal/sam3u1c/inc/core_cmInstr.h **** #define __ISB()                           __isb(0xF)
  79:.././hal/sam3u1c/inc/core_cmInstr.h **** 
  80:.././hal/sam3u1c/inc/core_cmInstr.h **** 
  81:.././hal/sam3u1c/inc/core_cmInstr.h **** /** \brief  Data Synchronization Barrier
  82:.././hal/sam3u1c/inc/core_cmInstr.h **** 
  83:.././hal/sam3u1c/inc/core_cmInstr.h ****     This function acts as a special kind of Data Memory Barrier.
  84:.././hal/sam3u1c/inc/core_cmInstr.h ****     It completes when all explicit memory accesses before this instruction complete.
  85:.././hal/sam3u1c/inc/core_cmInstr.h ****  */
  86:.././hal/sam3u1c/inc/core_cmInstr.h **** #define __DSB()                           __dsb(0xF)
  87:.././hal/sam3u1c/inc/core_cmInstr.h **** 
  88:.././hal/sam3u1c/inc/core_cmInstr.h **** 
  89:.././hal/sam3u1c/inc/core_cmInstr.h **** /** \brief  Data Memory Barrier
  90:.././hal/sam3u1c/inc/core_cmInstr.h **** 
  91:.././hal/sam3u1c/inc/core_cmInstr.h ****     This function ensures the apparent order of the explicit memory operations before
  92:.././hal/sam3u1c/inc/core_cmInstr.h ****     and after the instruction, without ensuring their completion.
  93:.././hal/sam3u1c/inc/core_cmInstr.h ****  */
  94:.././hal/sam3u1c/inc/core_cmInstr.h **** #define __DMB()                           __dmb(0xF)
  95:.././hal/sam3u1c/inc/core_cmInstr.h **** 
  96:.././hal/sam3u1c/inc/core_cmInstr.h **** 
  97:.././hal/sam3u1c/inc/core_cmInstr.h **** /** \brief  Reverse byte order (32 bit)
  98:.././hal/sam3u1c/inc/core_cmInstr.h **** 
  99:.././hal/sam3u1c/inc/core_cmInstr.h ****     This function reverses the byte order in integer value.
 100:.././hal/sam3u1c/inc/core_cmInstr.h **** 
 101:.././hal/sam3u1c/inc/core_cmInstr.h ****     \param [in]    value  Value to reverse
 102:.././hal/sam3u1c/inc/core_cmInstr.h ****     \return               Reversed value
 103:.././hal/sam3u1c/inc/core_cmInstr.h ****  */
 104:.././hal/sam3u1c/inc/core_cmInstr.h **** #define __REV                             __rev
 105:.././hal/sam3u1c/inc/core_cmInstr.h **** 
 106:.././hal/sam3u1c/inc/core_cmInstr.h **** 
 107:.././hal/sam3u1c/inc/core_cmInstr.h **** /** \brief  Reverse byte order (16 bit)
 108:.././hal/sam3u1c/inc/core_cmInstr.h **** 
 109:.././hal/sam3u1c/inc/core_cmInstr.h ****     This function reverses the byte order in two unsigned short values.
 110:.././hal/sam3u1c/inc/core_cmInstr.h **** 
 111:.././hal/sam3u1c/inc/core_cmInstr.h ****     \param [in]    value  Value to reverse
 112:.././hal/sam3u1c/inc/core_cmInstr.h ****     \return               Reversed value
 113:.././hal/sam3u1c/inc/core_cmInstr.h ****  */
 114:.././hal/sam3u1c/inc/core_cmInstr.h **** __attribute__((section(".rev16_text"))) __STATIC_INLINE __ASM uint32_t __REV16(uint32_t value)
 115:.././hal/sam3u1c/inc/core_cmInstr.h **** {
 116:.././hal/sam3u1c/inc/core_cmInstr.h ****   rev16 r0, r0
 117:.././hal/sam3u1c/inc/core_cmInstr.h ****   bx lr
 118:.././hal/sam3u1c/inc/core_cmInstr.h **** }
 119:.././hal/sam3u1c/inc/core_cmInstr.h **** 
 120:.././hal/sam3u1c/inc/core_cmInstr.h **** 
 121:.././hal/sam3u1c/inc/core_cmInstr.h **** /** \brief  Reverse byte order in signed short value
 122:.././hal/sam3u1c/inc/core_cmInstr.h **** 
 123:.././hal/sam3u1c/inc/core_cmInstr.h ****     This function reverses the byte order in a signed short value with sign extension to integer.
 124:.././hal/sam3u1c/inc/core_cmInstr.h **** 
 125:.././hal/sam3u1c/inc/core_cmInstr.h ****     \param [in]    value  Value to reverse
 126:.././hal/sam3u1c/inc/core_cmInstr.h ****     \return               Reversed value
 127:.././hal/sam3u1c/inc/core_cmInstr.h ****  */
 128:.././hal/sam3u1c/inc/core_cmInstr.h **** __attribute__((section(".revsh_text"))) __STATIC_INLINE __ASM int32_t __REVSH(int32_t value)
 129:.././hal/sam3u1c/inc/core_cmInstr.h **** {
 130:.././hal/sam3u1c/inc/core_cmInstr.h ****   revsh r0, r0
 131:.././hal/sam3u1c/inc/core_cmInstr.h ****   bx lr
 132:.././hal/sam3u1c/inc/core_cmInstr.h **** }
 133:.././hal/sam3u1c/inc/core_cmInstr.h **** 
 134:.././hal/sam3u1c/inc/core_cmInstr.h **** 
 135:.././hal/sam3u1c/inc/core_cmInstr.h **** /** \brief  Rotate Right in unsigned value (32 bit)
 136:.././hal/sam3u1c/inc/core_cmInstr.h **** 
 137:.././hal/sam3u1c/inc/core_cmInstr.h ****     This function Rotate Right (immediate) provides the value of the contents of a register rotated
 138:.././hal/sam3u1c/inc/core_cmInstr.h **** 
 139:.././hal/sam3u1c/inc/core_cmInstr.h ****     \param [in]    value  Value to rotate
 140:.././hal/sam3u1c/inc/core_cmInstr.h ****     \param [in]    value  Number of Bits to rotate
 141:.././hal/sam3u1c/inc/core_cmInstr.h ****     \return               Rotated value
 142:.././hal/sam3u1c/inc/core_cmInstr.h ****  */
 143:.././hal/sam3u1c/inc/core_cmInstr.h **** #define __ROR                             __ror
 144:.././hal/sam3u1c/inc/core_cmInstr.h **** 
 145:.././hal/sam3u1c/inc/core_cmInstr.h **** 
 146:.././hal/sam3u1c/inc/core_cmInstr.h **** #if       (__CORTEX_M >= 0x03)
 147:.././hal/sam3u1c/inc/core_cmInstr.h **** 
 148:.././hal/sam3u1c/inc/core_cmInstr.h **** /** \brief  Reverse bit order of value
 149:.././hal/sam3u1c/inc/core_cmInstr.h **** 
 150:.././hal/sam3u1c/inc/core_cmInstr.h ****     This function reverses the bit order of the given value.
 151:.././hal/sam3u1c/inc/core_cmInstr.h **** 
 152:.././hal/sam3u1c/inc/core_cmInstr.h ****     \param [in]    value  Value to reverse
 153:.././hal/sam3u1c/inc/core_cmInstr.h ****     \return               Reversed value
 154:.././hal/sam3u1c/inc/core_cmInstr.h ****  */
 155:.././hal/sam3u1c/inc/core_cmInstr.h **** #define __RBIT                            __rbit
 156:.././hal/sam3u1c/inc/core_cmInstr.h **** 
 157:.././hal/sam3u1c/inc/core_cmInstr.h **** 
 158:.././hal/sam3u1c/inc/core_cmInstr.h **** /** \brief  LDR Exclusive (8 bit)
 159:.././hal/sam3u1c/inc/core_cmInstr.h **** 
 160:.././hal/sam3u1c/inc/core_cmInstr.h ****     This function performs a exclusive LDR command for 8 bit value.
 161:.././hal/sam3u1c/inc/core_cmInstr.h **** 
 162:.././hal/sam3u1c/inc/core_cmInstr.h ****     \param [in]    ptr  Pointer to data
 163:.././hal/sam3u1c/inc/core_cmInstr.h ****     \return             value of type uint8_t at (*ptr)
 164:.././hal/sam3u1c/inc/core_cmInstr.h ****  */
 165:.././hal/sam3u1c/inc/core_cmInstr.h **** #define __LDREXB(ptr)                     ((uint8_t ) __ldrex(ptr))
 166:.././hal/sam3u1c/inc/core_cmInstr.h **** 
 167:.././hal/sam3u1c/inc/core_cmInstr.h **** 
 168:.././hal/sam3u1c/inc/core_cmInstr.h **** /** \brief  LDR Exclusive (16 bit)
 169:.././hal/sam3u1c/inc/core_cmInstr.h **** 
 170:.././hal/sam3u1c/inc/core_cmInstr.h ****     This function performs a exclusive LDR command for 16 bit values.
 171:.././hal/sam3u1c/inc/core_cmInstr.h **** 
 172:.././hal/sam3u1c/inc/core_cmInstr.h ****     \param [in]    ptr  Pointer to data
 173:.././hal/sam3u1c/inc/core_cmInstr.h ****     \return        value of type uint16_t at (*ptr)
 174:.././hal/sam3u1c/inc/core_cmInstr.h ****  */
 175:.././hal/sam3u1c/inc/core_cmInstr.h **** #define __LDREXH(ptr)                     ((uint16_t) __ldrex(ptr))
 176:.././hal/sam3u1c/inc/core_cmInstr.h **** 
 177:.././hal/sam3u1c/inc/core_cmInstr.h **** 
 178:.././hal/sam3u1c/inc/core_cmInstr.h **** /** \brief  LDR Exclusive (32 bit)
 179:.././hal/sam3u1c/inc/core_cmInstr.h **** 
 180:.././hal/sam3u1c/inc/core_cmInstr.h ****     This function performs a exclusive LDR command for 32 bit values.
 181:.././hal/sam3u1c/inc/core_cmInstr.h **** 
 182:.././hal/sam3u1c/inc/core_cmInstr.h ****     \param [in]    ptr  Pointer to data
 183:.././hal/sam3u1c/inc/core_cmInstr.h ****     \return        value of type uint32_t at (*ptr)
 184:.././hal/sam3u1c/inc/core_cmInstr.h ****  */
 185:.././hal/sam3u1c/inc/core_cmInstr.h **** #define __LDREXW(ptr)                     ((uint32_t ) __ldrex(ptr))
 186:.././hal/sam3u1c/inc/core_cmInstr.h **** 
 187:.././hal/sam3u1c/inc/core_cmInstr.h **** 
 188:.././hal/sam3u1c/inc/core_cmInstr.h **** /** \brief  STR Exclusive (8 bit)
 189:.././hal/sam3u1c/inc/core_cmInstr.h **** 
 190:.././hal/sam3u1c/inc/core_cmInstr.h ****     This function performs a exclusive STR command for 8 bit values.
 191:.././hal/sam3u1c/inc/core_cmInstr.h **** 
 192:.././hal/sam3u1c/inc/core_cmInstr.h ****     \param [in]  value  Value to store
 193:.././hal/sam3u1c/inc/core_cmInstr.h ****     \param [in]    ptr  Pointer to location
 194:.././hal/sam3u1c/inc/core_cmInstr.h ****     \return          0  Function succeeded
 195:.././hal/sam3u1c/inc/core_cmInstr.h ****     \return          1  Function failed
 196:.././hal/sam3u1c/inc/core_cmInstr.h ****  */
 197:.././hal/sam3u1c/inc/core_cmInstr.h **** #define __STREXB(value, ptr)              __strex(value, ptr)
 198:.././hal/sam3u1c/inc/core_cmInstr.h **** 
 199:.././hal/sam3u1c/inc/core_cmInstr.h **** 
 200:.././hal/sam3u1c/inc/core_cmInstr.h **** /** \brief  STR Exclusive (16 bit)
 201:.././hal/sam3u1c/inc/core_cmInstr.h **** 
 202:.././hal/sam3u1c/inc/core_cmInstr.h ****     This function performs a exclusive STR command for 16 bit values.
 203:.././hal/sam3u1c/inc/core_cmInstr.h **** 
 204:.././hal/sam3u1c/inc/core_cmInstr.h ****     \param [in]  value  Value to store
 205:.././hal/sam3u1c/inc/core_cmInstr.h ****     \param [in]    ptr  Pointer to location
 206:.././hal/sam3u1c/inc/core_cmInstr.h ****     \return          0  Function succeeded
 207:.././hal/sam3u1c/inc/core_cmInstr.h ****     \return          1  Function failed
 208:.././hal/sam3u1c/inc/core_cmInstr.h ****  */
 209:.././hal/sam3u1c/inc/core_cmInstr.h **** #define __STREXH(value, ptr)              __strex(value, ptr)
 210:.././hal/sam3u1c/inc/core_cmInstr.h **** 
 211:.././hal/sam3u1c/inc/core_cmInstr.h **** 
 212:.././hal/sam3u1c/inc/core_cmInstr.h **** /** \brief  STR Exclusive (32 bit)
 213:.././hal/sam3u1c/inc/core_cmInstr.h **** 
 214:.././hal/sam3u1c/inc/core_cmInstr.h ****     This function performs a exclusive STR command for 32 bit values.
 215:.././hal/sam3u1c/inc/core_cmInstr.h **** 
 216:.././hal/sam3u1c/inc/core_cmInstr.h ****     \param [in]  value  Value to store
 217:.././hal/sam3u1c/inc/core_cmInstr.h ****     \param [in]    ptr  Pointer to location
 218:.././hal/sam3u1c/inc/core_cmInstr.h ****     \return          0  Function succeeded
 219:.././hal/sam3u1c/inc/core_cmInstr.h ****     \return          1  Function failed
 220:.././hal/sam3u1c/inc/core_cmInstr.h ****  */
 221:.././hal/sam3u1c/inc/core_cmInstr.h **** #define __STREXW(value, ptr)              __strex(value, ptr)
 222:.././hal/sam3u1c/inc/core_cmInstr.h **** 
 223:.././hal/sam3u1c/inc/core_cmInstr.h **** 
 224:.././hal/sam3u1c/inc/core_cmInstr.h **** /** \brief  Remove the exclusive lock
 225:.././hal/sam3u1c/inc/core_cmInstr.h **** 
 226:.././hal/sam3u1c/inc/core_cmInstr.h ****     This function removes the exclusive lock which is created by LDREX.
 227:.././hal/sam3u1c/inc/core_cmInstr.h **** 
 228:.././hal/sam3u1c/inc/core_cmInstr.h ****  */
 229:.././hal/sam3u1c/inc/core_cmInstr.h **** #define __CLREX                           __clrex
 230:.././hal/sam3u1c/inc/core_cmInstr.h **** 
 231:.././hal/sam3u1c/inc/core_cmInstr.h **** 
 232:.././hal/sam3u1c/inc/core_cmInstr.h **** /** \brief  Signed Saturate
 233:.././hal/sam3u1c/inc/core_cmInstr.h **** 
 234:.././hal/sam3u1c/inc/core_cmInstr.h ****     This function saturates a signed value.
 235:.././hal/sam3u1c/inc/core_cmInstr.h **** 
 236:.././hal/sam3u1c/inc/core_cmInstr.h ****     \param [in]  value  Value to be saturated
 237:.././hal/sam3u1c/inc/core_cmInstr.h ****     \param [in]    sat  Bit position to saturate to (1..32)
 238:.././hal/sam3u1c/inc/core_cmInstr.h ****     \return             Saturated value
 239:.././hal/sam3u1c/inc/core_cmInstr.h ****  */
 240:.././hal/sam3u1c/inc/core_cmInstr.h **** #define __SSAT                            __ssat
 241:.././hal/sam3u1c/inc/core_cmInstr.h **** 
 242:.././hal/sam3u1c/inc/core_cmInstr.h **** 
 243:.././hal/sam3u1c/inc/core_cmInstr.h **** /** \brief  Unsigned Saturate
 244:.././hal/sam3u1c/inc/core_cmInstr.h **** 
 245:.././hal/sam3u1c/inc/core_cmInstr.h ****     This function saturates an unsigned value.
 246:.././hal/sam3u1c/inc/core_cmInstr.h **** 
 247:.././hal/sam3u1c/inc/core_cmInstr.h ****     \param [in]  value  Value to be saturated
 248:.././hal/sam3u1c/inc/core_cmInstr.h ****     \param [in]    sat  Bit position to saturate to (0..31)
 249:.././hal/sam3u1c/inc/core_cmInstr.h ****     \return             Saturated value
 250:.././hal/sam3u1c/inc/core_cmInstr.h ****  */
 251:.././hal/sam3u1c/inc/core_cmInstr.h **** #define __USAT                            __usat
 252:.././hal/sam3u1c/inc/core_cmInstr.h **** 
 253:.././hal/sam3u1c/inc/core_cmInstr.h **** 
 254:.././hal/sam3u1c/inc/core_cmInstr.h **** /** \brief  Count leading zeros
 255:.././hal/sam3u1c/inc/core_cmInstr.h **** 
 256:.././hal/sam3u1c/inc/core_cmInstr.h ****     This function counts the number of leading zeros of a data value.
 257:.././hal/sam3u1c/inc/core_cmInstr.h **** 
 258:.././hal/sam3u1c/inc/core_cmInstr.h ****     \param [in]  value  Value to count the leading zeros
 259:.././hal/sam3u1c/inc/core_cmInstr.h ****     \return             number of leading zeros in value
 260:.././hal/sam3u1c/inc/core_cmInstr.h ****  */
 261:.././hal/sam3u1c/inc/core_cmInstr.h **** #define __CLZ                             __clz
 262:.././hal/sam3u1c/inc/core_cmInstr.h **** 
 263:.././hal/sam3u1c/inc/core_cmInstr.h **** #endif /* (__CORTEX_M >= 0x03) */
 264:.././hal/sam3u1c/inc/core_cmInstr.h **** 
 265:.././hal/sam3u1c/inc/core_cmInstr.h **** 
 266:.././hal/sam3u1c/inc/core_cmInstr.h **** 
 267:.././hal/sam3u1c/inc/core_cmInstr.h **** #elif defined ( __ICCARM__ ) /*------------------ ICC Compiler -------------------*/
 268:.././hal/sam3u1c/inc/core_cmInstr.h **** /* IAR iccarm specific functions */
 269:.././hal/sam3u1c/inc/core_cmInstr.h **** 
 270:.././hal/sam3u1c/inc/core_cmInstr.h **** #include <cmsis_iar.h>
 271:.././hal/sam3u1c/inc/core_cmInstr.h **** 
 272:.././hal/sam3u1c/inc/core_cmInstr.h **** 
 273:.././hal/sam3u1c/inc/core_cmInstr.h **** #elif defined ( __TMS470__ ) /*---------------- TI CCS Compiler ------------------*/
 274:.././hal/sam3u1c/inc/core_cmInstr.h **** /* TI CCS specific functions */
 275:.././hal/sam3u1c/inc/core_cmInstr.h **** 
 276:.././hal/sam3u1c/inc/core_cmInstr.h **** #include <cmsis_ccs.h>
 277:.././hal/sam3u1c/inc/core_cmInstr.h **** 
 278:.././hal/sam3u1c/inc/core_cmInstr.h **** 
 279:.././hal/sam3u1c/inc/core_cmInstr.h **** #elif defined ( __GNUC__ ) /*------------------ GNU Compiler ---------------------*/
 280:.././hal/sam3u1c/inc/core_cmInstr.h **** /* GNU gcc specific functions */
 281:.././hal/sam3u1c/inc/core_cmInstr.h **** 
 282:.././hal/sam3u1c/inc/core_cmInstr.h **** /** \brief  No Operation
 283:.././hal/sam3u1c/inc/core_cmInstr.h **** 
 284:.././hal/sam3u1c/inc/core_cmInstr.h ****     No Operation does nothing. This instruction can be used for code alignment purposes.
 285:.././hal/sam3u1c/inc/core_cmInstr.h ****  */
 286:.././hal/sam3u1c/inc/core_cmInstr.h **** __attribute__( ( always_inline ) ) __STATIC_INLINE void __NOP(void)
 287:.././hal/sam3u1c/inc/core_cmInstr.h **** {
 288:.././hal/sam3u1c/inc/core_cmInstr.h ****   __ASM volatile ("nop");
 289:.././hal/sam3u1c/inc/core_cmInstr.h **** }
 290:.././hal/sam3u1c/inc/core_cmInstr.h **** 
 291:.././hal/sam3u1c/inc/core_cmInstr.h **** 
 292:.././hal/sam3u1c/inc/core_cmInstr.h **** /** \brief  Wait For Interrupt
 293:.././hal/sam3u1c/inc/core_cmInstr.h **** 
 294:.././hal/sam3u1c/inc/core_cmInstr.h ****     Wait For Interrupt is a hint instruction that suspends execution
 295:.././hal/sam3u1c/inc/core_cmInstr.h ****     until one of a number of events occurs.
 296:.././hal/sam3u1c/inc/core_cmInstr.h ****  */
 297:.././hal/sam3u1c/inc/core_cmInstr.h **** __attribute__( ( always_inline ) ) __STATIC_INLINE void __WFI(void)
 298:.././hal/sam3u1c/inc/core_cmInstr.h **** {
 299:.././hal/sam3u1c/inc/core_cmInstr.h ****   __ASM volatile ("wfi");
 300:.././hal/sam3u1c/inc/core_cmInstr.h **** }
 301:.././hal/sam3u1c/inc/core_cmInstr.h **** 
 302:.././hal/sam3u1c/inc/core_cmInstr.h **** 
 303:.././hal/sam3u1c/inc/core_cmInstr.h **** /** \brief  Wait For Event
 304:.././hal/sam3u1c/inc/core_cmInstr.h **** 
 305:.././hal/sam3u1c/inc/core_cmInstr.h ****     Wait For Event is a hint instruction that permits the processor to enter
 306:.././hal/sam3u1c/inc/core_cmInstr.h ****     a low-power state until one of a number of events occurs.
 307:.././hal/sam3u1c/inc/core_cmInstr.h ****  */
 308:.././hal/sam3u1c/inc/core_cmInstr.h **** __attribute__( ( always_inline ) ) __STATIC_INLINE void __WFE(void)
 309:.././hal/sam3u1c/inc/core_cmInstr.h **** {
 310:.././hal/sam3u1c/inc/core_cmInstr.h ****   __ASM volatile ("wfe");
 311:.././hal/sam3u1c/inc/core_cmInstr.h **** }
 312:.././hal/sam3u1c/inc/core_cmInstr.h **** 
 313:.././hal/sam3u1c/inc/core_cmInstr.h **** 
 314:.././hal/sam3u1c/inc/core_cmInstr.h **** /** \brief  Send Event
 315:.././hal/sam3u1c/inc/core_cmInstr.h **** 
 316:.././hal/sam3u1c/inc/core_cmInstr.h ****     Send Event is a hint instruction. It causes an event to be signaled to the CPU.
 317:.././hal/sam3u1c/inc/core_cmInstr.h ****  */
 318:.././hal/sam3u1c/inc/core_cmInstr.h **** __attribute__( ( always_inline ) ) __STATIC_INLINE void __SEV(void)
 319:.././hal/sam3u1c/inc/core_cmInstr.h **** {
 320:.././hal/sam3u1c/inc/core_cmInstr.h ****   __ASM volatile ("sev");
 321:.././hal/sam3u1c/inc/core_cmInstr.h **** }
 322:.././hal/sam3u1c/inc/core_cmInstr.h **** 
 323:.././hal/sam3u1c/inc/core_cmInstr.h **** 
 324:.././hal/sam3u1c/inc/core_cmInstr.h **** /** \brief  Instruction Synchronization Barrier
 325:.././hal/sam3u1c/inc/core_cmInstr.h **** 
 326:.././hal/sam3u1c/inc/core_cmInstr.h ****     Instruction Synchronization Barrier flushes the pipeline in the processor,
 327:.././hal/sam3u1c/inc/core_cmInstr.h ****     so that all instructions following the ISB are fetched from cache or
 328:.././hal/sam3u1c/inc/core_cmInstr.h ****     memory, after the instruction has been completed.
 329:.././hal/sam3u1c/inc/core_cmInstr.h ****  */
 330:.././hal/sam3u1c/inc/core_cmInstr.h **** __attribute__( ( always_inline ) ) __STATIC_INLINE void __ISB(void)
 331:.././hal/sam3u1c/inc/core_cmInstr.h **** {
 332:.././hal/sam3u1c/inc/core_cmInstr.h ****   __ASM volatile ("isb");
 333:.././hal/sam3u1c/inc/core_cmInstr.h **** }
 334:.././hal/sam3u1c/inc/core_cmInstr.h **** 
 335:.././hal/sam3u1c/inc/core_cmInstr.h **** 
 336:.././hal/sam3u1c/inc/core_cmInstr.h **** /** \brief  Data Synchronization Barrier
 337:.././hal/sam3u1c/inc/core_cmInstr.h **** 
 338:.././hal/sam3u1c/inc/core_cmInstr.h ****     This function acts as a special kind of Data Memory Barrier.
 339:.././hal/sam3u1c/inc/core_cmInstr.h ****     It completes when all explicit memory accesses before this instruction complete.
 340:.././hal/sam3u1c/inc/core_cmInstr.h ****  */
 341:.././hal/sam3u1c/inc/core_cmInstr.h **** __attribute__( ( always_inline ) ) __STATIC_INLINE void __DSB(void)
 342:.././hal/sam3u1c/inc/core_cmInstr.h **** {
 343:.././hal/sam3u1c/inc/core_cmInstr.h ****   __ASM volatile ("dsb");
 344:.././hal/sam3u1c/inc/core_cmInstr.h **** }
 345:.././hal/sam3u1c/inc/core_cmInstr.h **** 
 346:.././hal/sam3u1c/inc/core_cmInstr.h **** 
 347:.././hal/sam3u1c/inc/core_cmInstr.h **** /** \brief  Data Memory Barrier
 348:.././hal/sam3u1c/inc/core_cmInstr.h **** 
 349:.././hal/sam3u1c/inc/core_cmInstr.h ****     This function ensures the apparent order of the explicit memory operations before
 350:.././hal/sam3u1c/inc/core_cmInstr.h ****     and after the instruction, without ensuring their completion.
 351:.././hal/sam3u1c/inc/core_cmInstr.h ****  */
 352:.././hal/sam3u1c/inc/core_cmInstr.h **** __attribute__( ( always_inline ) ) __STATIC_INLINE void __DMB(void)
 353:.././hal/sam3u1c/inc/core_cmInstr.h **** {
 354:.././hal/sam3u1c/inc/core_cmInstr.h ****   __ASM volatile ("dmb");
  89              	 .loc 3 354 3
  90              	 .syntax unified
  91              	
  92 001c BFF35F8F 	 dmb
  93              	
  94              	 .thumb
  95              	 .syntax unified
  96              	.LBE17:
  97              	.LBE16:
 151:.././hal/sam3u1c/inc/interrupt/interrupt_sam_nvic.h **** 	cpu_irq_disable();
  98              	 .loc 1 151 2
  99 0020 044B     	 ldr r3,.L4
 100 0022 0022     	 movs r2,#0
 101 0024 1A70     	 strb r2,[r3]
 152:.././hal/sam3u1c/inc/interrupt/interrupt_sam_nvic.h **** 	return flags;
 102              	 .loc 1 152 9
 103 0026 7B68     	 ldr r3,[r7,#4]
 153:.././hal/sam3u1c/inc/interrupt/interrupt_sam_nvic.h **** }
 104              	 .loc 1 153 1
 105 0028 1846     	 mov r0,r3
 106 002a 0C37     	 adds r7,r7,#12
 107              	.LCFI3:
 108              	 .cfi_def_cfa_offset 4
 109 002c BD46     	 mov sp,r7
 110              	.LCFI4:
 111              	 .cfi_def_cfa_register 13
 112              	 
 113 002e 80BC     	 pop {r7}
 114              	.LCFI5:
 115              	 .cfi_restore 7
 116              	 .cfi_def_cfa_offset 0
 117 0030 7047     	 bx lr
 118              	.L5:
 119 0032 00BF     	 .align 2
 120              	.L4:
 121 0034 00000000 	 .word g_interrupt_enabled
 122              	 .cfi_endproc
 123              	.LFE59:
 125              	 .section .text.cpu_irq_is_enabled_flags,"ax",%progbits
 126              	 .align 1
 127              	 .syntax unified
 128              	 .thumb
 129              	 .thumb_func
 130              	 .fpu softvfp
 132              	cpu_irq_is_enabled_flags:
 133              	.LFB60:
 154:.././hal/sam3u1c/inc/interrupt/interrupt_sam_nvic.h **** 
 155:.././hal/sam3u1c/inc/interrupt/interrupt_sam_nvic.h **** static inline bool cpu_irq_is_enabled_flags(irqflags_t flags)
 156:.././hal/sam3u1c/inc/interrupt/interrupt_sam_nvic.h **** {
 134              	 .loc 1 156 1
 135              	 .cfi_startproc
 136              	 
 137              	 
 138              	 
 139 0000 80B4     	 push {r7}
 140              	.LCFI6:
 141              	 .cfi_def_cfa_offset 4
 142              	 .cfi_offset 7,-4
 143 0002 83B0     	 sub sp,sp,#12
 144              	.LCFI7:
 145              	 .cfi_def_cfa_offset 16
 146 0004 00AF     	 add r7,sp,#0
 147              	.LCFI8:
 148              	 .cfi_def_cfa_register 7
 149 0006 7860     	 str r0,[r7,#4]
 157:.././hal/sam3u1c/inc/interrupt/interrupt_sam_nvic.h **** 	return (flags);
 150              	 .loc 1 157 9
 151 0008 7B68     	 ldr r3,[r7,#4]
 152 000a 002B     	 cmp r3,#0
 153 000c 14BF     	 ite ne
 154 000e 0123     	 movne r3,#1
 155 0010 0023     	 moveq r3,#0
 156 0012 DBB2     	 uxtb r3,r3
 158:.././hal/sam3u1c/inc/interrupt/interrupt_sam_nvic.h **** }
 157              	 .loc 1 158 1
 158 0014 1846     	 mov r0,r3
 159 0016 0C37     	 adds r7,r7,#12
 160              	.LCFI9:
 161              	 .cfi_def_cfa_offset 4
 162 0018 BD46     	 mov sp,r7
 163              	.LCFI10:
 164              	 .cfi_def_cfa_register 13
 165              	 
 166 001a 80BC     	 pop {r7}
 167              	.LCFI11:
 168              	 .cfi_restore 7
 169              	 .cfi_def_cfa_offset 0
 170 001c 7047     	 bx lr
 171              	 .cfi_endproc
 172              	.LFE60:
 174              	 .section .text.cpu_irq_restore,"ax",%progbits
 175              	 .align 1
 176              	 .syntax unified
 177              	 .thumb
 178              	 .thumb_func
 179              	 .fpu softvfp
 181              	cpu_irq_restore:
 182              	.LFB61:
 159:.././hal/sam3u1c/inc/interrupt/interrupt_sam_nvic.h **** 
 160:.././hal/sam3u1c/inc/interrupt/interrupt_sam_nvic.h **** static inline void cpu_irq_restore(irqflags_t flags)
 161:.././hal/sam3u1c/inc/interrupt/interrupt_sam_nvic.h **** {
 183              	 .loc 1 161 1
 184              	 .cfi_startproc
 185              	 
 186              	 
 187 0000 80B5     	 push {r7,lr}
 188              	.LCFI12:
 189              	 .cfi_def_cfa_offset 8
 190              	 .cfi_offset 7,-8
 191              	 .cfi_offset 14,-4
 192 0002 82B0     	 sub sp,sp,#8
 193              	.LCFI13:
 194              	 .cfi_def_cfa_offset 16
 195 0004 00AF     	 add r7,sp,#0
 196              	.LCFI14:
 197              	 .cfi_def_cfa_register 7
 198 0006 7860     	 str r0,[r7,#4]
 162:.././hal/sam3u1c/inc/interrupt/interrupt_sam_nvic.h **** 	if (cpu_irq_is_enabled_flags(flags))
 199              	 .loc 1 162 6
 200 0008 7868     	 ldr r0,[r7,#4]
 201 000a 074B     	 ldr r3,.L11
 202 000c 9847     	 blx r3
 203              	.LVL0:
 204 000e 0346     	 mov r3,r0
 205              	 .loc 1 162 5
 206 0010 002B     	 cmp r3,#0
 207 0012 05D0     	 beq .L10
 163:.././hal/sam3u1c/inc/interrupt/interrupt_sam_nvic.h **** 		cpu_irq_enable();
 208              	 .loc 1 163 3
 209 0014 054B     	 ldr r3,.L11+4
 210 0016 0122     	 movs r2,#1
 211 0018 1A70     	 strb r2,[r3]
 212              	.LBB18:
 213              	.LBB19:
 214              	 .loc 3 354 3
 215              	 .syntax unified
 216              	
 217 001a BFF35F8F 	 dmb
 218              	
 219              	 .thumb
 220              	 .syntax unified
 221              	.LBE19:
 222              	.LBE18:
 223              	.LBB20:
 224              	.LBB21:
 317:.././hal/sam3u1c/inc/core_cmFunc.h **** }
 225              	 .loc 2 317 3
 226              	 .syntax unified
 227              	
 228 001e 62B6     	 cpsie i
 229              	
 230              	 .thumb
 231              	 .syntax unified
 232              	.L10:
 233              	.LBE21:
 234              	.LBE20:
 164:.././hal/sam3u1c/inc/interrupt/interrupt_sam_nvic.h **** }
 235              	 .loc 1 164 1
 236 0020 00BF     	 nop
 237 0022 0837     	 adds r7,r7,#8
 238              	.LCFI15:
 239              	 .cfi_def_cfa_offset 8
 240 0024 BD46     	 mov sp,r7
 241              	.LCFI16:
 242              	 .cfi_def_cfa_register 13
 243              	 
 244 0026 80BD     	 pop {r7,pc}
 245              	.L12:
 246              	 .align 2
 247              	.L11:
 248 0028 00000000 	 .word cpu_irq_is_enabled_flags
 249 002c 00000000 	 .word g_interrupt_enabled
 250              	 .cfi_endproc
 251              	.LFE61:
 253              	 .section .text.efc_init,"ax",%progbits
 254              	 .align 1
 255              	 .global efc_init
 256              	 .syntax unified
 257              	 .thumb
 258              	 .thumb_func
 259              	 .fpu softvfp
 261              	efc_init:
 262              	.LFB69:
 263              	 .file 4 ".././hal/sam3u1c/efc.c"
   1:.././hal/sam3u1c/efc.c **** /**
   2:.././hal/sam3u1c/efc.c ****  * \file
   3:.././hal/sam3u1c/efc.c ****  *
   4:.././hal/sam3u1c/efc.c ****  * \brief Enhanced Embedded Flash Controller (EEFC) driver for SAM.
   5:.././hal/sam3u1c/efc.c ****  *
   6:.././hal/sam3u1c/efc.c ****  * Copyright (c) 2011 - 2014 Atmel Corporation. All rights reserved.
   7:.././hal/sam3u1c/efc.c ****  *
   8:.././hal/sam3u1c/efc.c ****  * \asf_license_start
   9:.././hal/sam3u1c/efc.c ****  *
  10:.././hal/sam3u1c/efc.c ****  * \page License
  11:.././hal/sam3u1c/efc.c ****  *
  12:.././hal/sam3u1c/efc.c ****  * Redistribution and use in source and binary forms, with or without
  13:.././hal/sam3u1c/efc.c ****  * modification, are permitted provided that the following conditions are met:
  14:.././hal/sam3u1c/efc.c ****  *
  15:.././hal/sam3u1c/efc.c ****  * 1. Redistributions of source code must retain the above copyright notice,
  16:.././hal/sam3u1c/efc.c ****  *    this list of conditions and the following disclaimer.
  17:.././hal/sam3u1c/efc.c ****  *
  18:.././hal/sam3u1c/efc.c ****  * 2. Redistributions in binary form must reproduce the above copyright notice,
  19:.././hal/sam3u1c/efc.c ****  *    this list of conditions and the following disclaimer in the documentation
  20:.././hal/sam3u1c/efc.c ****  *    and/or other materials provided with the distribution.
  21:.././hal/sam3u1c/efc.c ****  *
  22:.././hal/sam3u1c/efc.c ****  * 3. The name of Atmel may not be used to endorse or promote products derived
  23:.././hal/sam3u1c/efc.c ****  *    from this software without specific prior written permission.
  24:.././hal/sam3u1c/efc.c ****  *
  25:.././hal/sam3u1c/efc.c ****  * 4. This software may only be redistributed and used in connection with an
  26:.././hal/sam3u1c/efc.c ****  *    Atmel microcontroller product.
  27:.././hal/sam3u1c/efc.c ****  *
  28:.././hal/sam3u1c/efc.c ****  * THIS SOFTWARE IS PROVIDED BY ATMEL "AS IS" AND ANY EXPRESS OR IMPLIED
  29:.././hal/sam3u1c/efc.c ****  * WARRANTIES, INCLUDING, BUT NOT LIMITED TO, THE IMPLIED WARRANTIES OF
  30:.././hal/sam3u1c/efc.c ****  * MERCHANTABILITY, FITNESS FOR A PARTICULAR PURPOSE AND NON-INFRINGEMENT ARE
  31:.././hal/sam3u1c/efc.c ****  * EXPRESSLY AND SPECIFICALLY DISCLAIMED. IN NO EVENT SHALL ATMEL BE LIABLE FOR
  32:.././hal/sam3u1c/efc.c ****  * ANY DIRECT, INDIRECT, INCIDENTAL, SPECIAL, EXEMPLARY, OR CONSEQUENTIAL
  33:.././hal/sam3u1c/efc.c ****  * DAMAGES (INCLUDING, BUT NOT LIMITED TO, PROCUREMENT OF SUBSTITUTE GOODS
  34:.././hal/sam3u1c/efc.c ****  * OR SERVICES; LOSS OF USE, DATA, OR PROFITS; OR BUSINESS INTERRUPTION)
  35:.././hal/sam3u1c/efc.c ****  * HOWEVER CAUSED AND ON ANY THEORY OF LIABILITY, WHETHER IN CONTRACT,
  36:.././hal/sam3u1c/efc.c ****  * STRICT LIABILITY, OR TORT (INCLUDING NEGLIGENCE OR OTHERWISE) ARISING IN
  37:.././hal/sam3u1c/efc.c ****  * ANY WAY OUT OF THE USE OF THIS SOFTWARE, EVEN IF ADVISED OF THE
  38:.././hal/sam3u1c/efc.c ****  * POSSIBILITY OF SUCH DAMAGE.
  39:.././hal/sam3u1c/efc.c ****  *
  40:.././hal/sam3u1c/efc.c ****  * \asf_license_stop
  41:.././hal/sam3u1c/efc.c ****  *
  42:.././hal/sam3u1c/efc.c ****  */
  43:.././hal/sam3u1c/efc.c **** 
  44:.././hal/sam3u1c/efc.c **** #include "efc.h"
  45:.././hal/sam3u1c/efc.c **** 
  46:.././hal/sam3u1c/efc.c **** /// @cond 0
  47:.././hal/sam3u1c/efc.c **** /**INDENT-OFF**/
  48:.././hal/sam3u1c/efc.c **** #ifdef __cplusplus
  49:.././hal/sam3u1c/efc.c **** extern "C" {
  50:.././hal/sam3u1c/efc.c **** #endif
  51:.././hal/sam3u1c/efc.c **** /**INDENT-ON**/
  52:.././hal/sam3u1c/efc.c **** /// @endcond
  53:.././hal/sam3u1c/efc.c **** 
  54:.././hal/sam3u1c/efc.c **** /**
  55:.././hal/sam3u1c/efc.c ****  * \defgroup sam_drivers_efc_group Enhanced Embedded Flash Controller (EEFC)
  56:.././hal/sam3u1c/efc.c ****  *
  57:.././hal/sam3u1c/efc.c ****  * The Enhanced Embedded Flash Controller ensures the interface of the Flash
  58:.././hal/sam3u1c/efc.c ****  * block with the 32-bit internal bus.
  59:.././hal/sam3u1c/efc.c ****  *
  60:.././hal/sam3u1c/efc.c ****  * @{
  61:.././hal/sam3u1c/efc.c ****  */
  62:.././hal/sam3u1c/efc.c **** 
  63:.././hal/sam3u1c/efc.c **** /* Address definition for read operation */
  64:.././hal/sam3u1c/efc.c **** #if (SAM3XA || SAM3U4 || SAM4SD16 || SAM4SD32)
  65:.././hal/sam3u1c/efc.c **** # define READ_BUFF_ADDR0    IFLASH0_ADDR
  66:.././hal/sam3u1c/efc.c **** # define READ_BUFF_ADDR1    IFLASH1_ADDR
  67:.././hal/sam3u1c/efc.c **** #elif (SAM3S || SAM3N || SAM4E || SAM4N || SAMG)
  68:.././hal/sam3u1c/efc.c **** # define READ_BUFF_ADDR     IFLASH_ADDR
  69:.././hal/sam3u1c/efc.c **** #elif (SAM4C || SAM4CP || SAM4CM)
  70:.././hal/sam3u1c/efc.c **** #if SAM4C32
  71:.././hal/sam3u1c/efc.c **** # define READ_BUFF_ADDR0    IFLASH0_CNC_ADDR
  72:.././hal/sam3u1c/efc.c **** # define READ_BUFF_ADDR1    IFLASH1_CNC_ADDR
  73:.././hal/sam3u1c/efc.c **** #else
  74:.././hal/sam3u1c/efc.c **** # define READ_BUFF_ADDR     IFLASH_CNC_ADDR
  75:.././hal/sam3u1c/efc.c **** #endif
  76:.././hal/sam3u1c/efc.c **** #elif (SAM3U || SAM4S)
  77:.././hal/sam3u1c/efc.c **** # define READ_BUFF_ADDR     IFLASH0_ADDR
  78:.././hal/sam3u1c/efc.c **** #else
  79:.././hal/sam3u1c/efc.c **** # warning Only reading unique ID for sam3/4 is implemented.
  80:.././hal/sam3u1c/efc.c **** #endif
  81:.././hal/sam3u1c/efc.c **** 
  82:.././hal/sam3u1c/efc.c **** /* Flash Writing Protection Key */
  83:.././hal/sam3u1c/efc.c **** #define FWP_KEY    0x5Au
  84:.././hal/sam3u1c/efc.c **** 
  85:.././hal/sam3u1c/efc.c **** #if (SAM4S || SAM4E || SAM4N || SAM4C || SAMG || SAM4CP || SAM4CM)
  86:.././hal/sam3u1c/efc.c **** #define EEFC_FCR_FCMD(value) \
  87:.././hal/sam3u1c/efc.c **** 	((EEFC_FCR_FCMD_Msk & ((value) << EEFC_FCR_FCMD_Pos)))
  88:.././hal/sam3u1c/efc.c **** #define EEFC_ERROR_FLAGS  (EEFC_FSR_FLOCKE | EEFC_FSR_FCMDE | EEFC_FSR_FLERR)
  89:.././hal/sam3u1c/efc.c **** #else
  90:.././hal/sam3u1c/efc.c **** #define EEFC_ERROR_FLAGS  (EEFC_FSR_FLOCKE | EEFC_FSR_FCMDE)
  91:.././hal/sam3u1c/efc.c **** #endif
  92:.././hal/sam3u1c/efc.c **** 
  93:.././hal/sam3u1c/efc.c **** #ifndef EEFC_FCR_FKEY_PASSWD
  94:.././hal/sam3u1c/efc.c **** #define EEFC_FCR_FKEY_PASSWD EEFC_FCR_FKEY(FWP_KEY)
  95:.././hal/sam3u1c/efc.c **** #endif
  96:.././hal/sam3u1c/efc.c **** 
  97:.././hal/sam3u1c/efc.c **** 
  98:.././hal/sam3u1c/efc.c **** /*
  99:.././hal/sam3u1c/efc.c ****  * Local function declaration.
 100:.././hal/sam3u1c/efc.c ****  * Because they are RAM functions, they need 'extern' declaration.
 101:.././hal/sam3u1c/efc.c ****  */
 102:.././hal/sam3u1c/efc.c **** extern void efc_write_fmr(Efc *p_efc, uint32_t ul_fmr);
 103:.././hal/sam3u1c/efc.c **** extern uint32_t efc_perform_fcr(Efc *p_efc, uint32_t ul_fcr);
 104:.././hal/sam3u1c/efc.c **** 
 105:.././hal/sam3u1c/efc.c **** /**
 106:.././hal/sam3u1c/efc.c ****  * \brief Initialize the EFC controller.
 107:.././hal/sam3u1c/efc.c ****  *
 108:.././hal/sam3u1c/efc.c ****  * \param ul_access_mode 0 for 128-bit, EEFC_FMR_FAM for 64-bit.
 109:.././hal/sam3u1c/efc.c ****  * \param ul_fws The number of wait states in cycle (no shift).
 110:.././hal/sam3u1c/efc.c ****  *
 111:.././hal/sam3u1c/efc.c ****  * \return 0 if successful.
 112:.././hal/sam3u1c/efc.c ****  */
 113:.././hal/sam3u1c/efc.c **** uint32_t efc_init(Efc *p_efc, uint32_t ul_access_mode, uint32_t ul_fws)
 114:.././hal/sam3u1c/efc.c **** {
 264              	 .loc 4 114 1
 265              	 .cfi_startproc
 266              	 
 267              	 
 268 0000 80B5     	 push {r7,lr}
 269              	.LCFI17:
 270              	 .cfi_def_cfa_offset 8
 271              	 .cfi_offset 7,-8
 272              	 .cfi_offset 14,-4
 273 0002 84B0     	 sub sp,sp,#16
 274              	.LCFI18:
 275              	 .cfi_def_cfa_offset 24
 276 0004 00AF     	 add r7,sp,#0
 277              	.LCFI19:
 278              	 .cfi_def_cfa_register 7
 279 0006 F860     	 str r0,[r7,#12]
 280 0008 B960     	 str r1,[r7,#8]
 281 000a 7A60     	 str r2,[r7,#4]
 115:.././hal/sam3u1c/efc.c **** #if (SAM4S || SAM4E || SAM4N || SAM4C || SAMG || SAM4CP || SAM4CM)
 116:.././hal/sam3u1c/efc.c **** 	efc_write_fmr(p_efc, ul_access_mode | EEFC_FMR_FWS(ul_fws) | EEFC_FMR_CLOE);
 117:.././hal/sam3u1c/efc.c **** #else
 118:.././hal/sam3u1c/efc.c **** 	efc_write_fmr(p_efc, ul_access_mode | EEFC_FMR_FWS(ul_fws));
 282              	 .loc 4 118 40
 283 000c 7B68     	 ldr r3,[r7,#4]
 284 000e 1B02     	 lsls r3,r3,#8
 285 0010 03F47062 	 and r2,r3,#3840
 286              	 .loc 4 118 2
 287 0014 BB68     	 ldr r3,[r7,#8]
 288 0016 1343     	 orrs r3,r3,r2
 289 0018 1946     	 mov r1,r3
 290 001a F868     	 ldr r0,[r7,#12]
 291 001c 034B     	 ldr r3,.L15
 292 001e 9847     	 blx r3
 293              	.LVL1:
 119:.././hal/sam3u1c/efc.c **** #endif	
 120:.././hal/sam3u1c/efc.c **** 	return EFC_RC_OK;
 294              	 .loc 4 120 9
 295 0020 0023     	 movs r3,#0
 121:.././hal/sam3u1c/efc.c **** }
 296              	 .loc 4 121 1
 297 0022 1846     	 mov r0,r3
 298 0024 1037     	 adds r7,r7,#16
 299              	.LCFI20:
 300              	 .cfi_def_cfa_offset 8
 301 0026 BD46     	 mov sp,r7
 302              	.LCFI21:
 303              	 .cfi_def_cfa_register 13
 304              	 
 305 0028 80BD     	 pop {r7,pc}
 306              	.L16:
 307 002a 00BF     	 .align 2
 308              	.L15:
 309 002c 00000000 	 .word efc_write_fmr
 310              	 .cfi_endproc
 311              	.LFE69:
 313              	 .section .text.efc_enable_frdy_interrupt,"ax",%progbits
 314              	 .align 1
 315              	 .global efc_enable_frdy_interrupt
 316              	 .syntax unified
 317              	 .thumb
 318              	 .thumb_func
 319              	 .fpu softvfp
 321              	efc_enable_frdy_interrupt:
 322              	.LFB70:
 122:.././hal/sam3u1c/efc.c **** 
 123:.././hal/sam3u1c/efc.c **** #if (SAM4S || SAM4E || SAM4N || SAM4C || SAMG || SAM4CP || SAM4CM)
 124:.././hal/sam3u1c/efc.c **** /**
 125:.././hal/sam3u1c/efc.c ****  * \brief Enable code loop optimization.
 126:.././hal/sam3u1c/efc.c ****  *
 127:.././hal/sam3u1c/efc.c ****  * \param p_efc Pointer to an EFC instance.
 128:.././hal/sam3u1c/efc.c ****  */
 129:.././hal/sam3u1c/efc.c **** void efc_enable_cloe(Efc *p_efc)
 130:.././hal/sam3u1c/efc.c **** {
 131:.././hal/sam3u1c/efc.c **** 	uint32_t ul_fmr = p_efc->EEFC_FMR;
 132:.././hal/sam3u1c/efc.c **** 	efc_write_fmr(p_efc, ul_fmr | EEFC_FMR_CLOE);
 133:.././hal/sam3u1c/efc.c **** }
 134:.././hal/sam3u1c/efc.c **** 
 135:.././hal/sam3u1c/efc.c **** /**
 136:.././hal/sam3u1c/efc.c ****  * \brief Disable code loop optimization.
 137:.././hal/sam3u1c/efc.c ****  *
 138:.././hal/sam3u1c/efc.c ****  * \param p_efc Pointer to an EFC instance.
 139:.././hal/sam3u1c/efc.c ****  */
 140:.././hal/sam3u1c/efc.c **** void efc_disable_cloe(Efc *p_efc)
 141:.././hal/sam3u1c/efc.c **** {
 142:.././hal/sam3u1c/efc.c **** 	uint32_t ul_fmr = p_efc->EEFC_FMR;
 143:.././hal/sam3u1c/efc.c **** 	efc_write_fmr(p_efc, ul_fmr & (~EEFC_FMR_CLOE));
 144:.././hal/sam3u1c/efc.c **** }
 145:.././hal/sam3u1c/efc.c **** #endif
 146:.././hal/sam3u1c/efc.c **** 
 147:.././hal/sam3u1c/efc.c **** 
 148:.././hal/sam3u1c/efc.c **** 
 149:.././hal/sam3u1c/efc.c **** /**
 150:.././hal/sam3u1c/efc.c ****  * \brief Enable the flash ready interrupt.
 151:.././hal/sam3u1c/efc.c ****  *
 152:.././hal/sam3u1c/efc.c ****  * \param p_efc Pointer to an EFC instance.
 153:.././hal/sam3u1c/efc.c ****  */
 154:.././hal/sam3u1c/efc.c **** void efc_enable_frdy_interrupt(Efc *p_efc)
 155:.././hal/sam3u1c/efc.c **** {
 323              	 .loc 4 155 1
 324              	 .cfi_startproc
 325              	 
 326              	 
 327 0000 80B5     	 push {r7,lr}
 328              	.LCFI22:
 329              	 .cfi_def_cfa_offset 8
 330              	 .cfi_offset 7,-8
 331              	 .cfi_offset 14,-4
 332 0002 84B0     	 sub sp,sp,#16
 333              	.LCFI23:
 334              	 .cfi_def_cfa_offset 24
 335 0004 00AF     	 add r7,sp,#0
 336              	.LCFI24:
 337              	 .cfi_def_cfa_register 7
 338 0006 7860     	 str r0,[r7,#4]
 156:.././hal/sam3u1c/efc.c **** 	uint32_t ul_fmr = p_efc->EEFC_FMR;
 339              	 .loc 4 156 11
 340 0008 7B68     	 ldr r3,[r7,#4]
 341 000a 1B68     	 ldr r3,[r3]
 342 000c FB60     	 str r3,[r7,#12]
 157:.././hal/sam3u1c/efc.c **** 
 158:.././hal/sam3u1c/efc.c **** 	efc_write_fmr(p_efc, ul_fmr | EEFC_FMR_FRDY);
 343              	 .loc 4 158 2
 344 000e FB68     	 ldr r3,[r7,#12]
 345 0010 43F00103 	 orr r3,r3,#1
 346 0014 1946     	 mov r1,r3
 347 0016 7868     	 ldr r0,[r7,#4]
 348 0018 024B     	 ldr r3,.L18
 349 001a 9847     	 blx r3
 350              	.LVL2:
 159:.././hal/sam3u1c/efc.c **** }
 351              	 .loc 4 159 1
 352 001c 00BF     	 nop
 353 001e 1037     	 adds r7,r7,#16
 354              	.LCFI25:
 355              	 .cfi_def_cfa_offset 8
 356 0020 BD46     	 mov sp,r7
 357              	.LCFI26:
 358              	 .cfi_def_cfa_register 13
 359              	 
 360 0022 80BD     	 pop {r7,pc}
 361              	.L19:
 362              	 .align 2
 363              	.L18:
 364 0024 00000000 	 .word efc_write_fmr
 365              	 .cfi_endproc
 366              	.LFE70:
 368              	 .section .text.efc_disable_frdy_interrupt,"ax",%progbits
 369              	 .align 1
 370              	 .global efc_disable_frdy_interrupt
 371              	 .syntax unified
 372              	 .thumb
 373              	 .thumb_func
 374              	 .fpu softvfp
 376              	efc_disable_frdy_interrupt:
 377              	.LFB71:
 160:.././hal/sam3u1c/efc.c **** 
 161:.././hal/sam3u1c/efc.c **** /**
 162:.././hal/sam3u1c/efc.c ****  * \brief Disable the flash ready interrupt.
 163:.././hal/sam3u1c/efc.c ****  *
 164:.././hal/sam3u1c/efc.c ****  * \param p_efc Pointer to an EFC instance.
 165:.././hal/sam3u1c/efc.c ****  */
 166:.././hal/sam3u1c/efc.c **** void efc_disable_frdy_interrupt(Efc *p_efc)
 167:.././hal/sam3u1c/efc.c **** {
 378              	 .loc 4 167 1
 379              	 .cfi_startproc
 380              	 
 381              	 
 382 0000 80B5     	 push {r7,lr}
 383              	.LCFI27:
 384              	 .cfi_def_cfa_offset 8
 385              	 .cfi_offset 7,-8
 386              	 .cfi_offset 14,-4
 387 0002 84B0     	 sub sp,sp,#16
 388              	.LCFI28:
 389              	 .cfi_def_cfa_offset 24
 390 0004 00AF     	 add r7,sp,#0
 391              	.LCFI29:
 392              	 .cfi_def_cfa_register 7
 393 0006 7860     	 str r0,[r7,#4]
 168:.././hal/sam3u1c/efc.c **** 	uint32_t ul_fmr = p_efc->EEFC_FMR;
 394              	 .loc 4 168 11
 395 0008 7B68     	 ldr r3,[r7,#4]
 396 000a 1B68     	 ldr r3,[r3]
 397 000c FB60     	 str r3,[r7,#12]
 169:.././hal/sam3u1c/efc.c **** 
 170:.././hal/sam3u1c/efc.c **** 	efc_write_fmr(p_efc, ul_fmr & (~EEFC_FMR_FRDY));
 398              	 .loc 4 170 2
 399 000e FB68     	 ldr r3,[r7,#12]
 400 0010 23F00103 	 bic r3,r3,#1
 401 0014 1946     	 mov r1,r3
 402 0016 7868     	 ldr r0,[r7,#4]
 403 0018 024B     	 ldr r3,.L21
 404 001a 9847     	 blx r3
 405              	.LVL3:
 171:.././hal/sam3u1c/efc.c **** }
 406              	 .loc 4 171 1
 407 001c 00BF     	 nop
 408 001e 1037     	 adds r7,r7,#16
 409              	.LCFI30:
 410              	 .cfi_def_cfa_offset 8
 411 0020 BD46     	 mov sp,r7
 412              	.LCFI31:
 413              	 .cfi_def_cfa_register 13
 414              	 
 415 0022 80BD     	 pop {r7,pc}
 416              	.L22:
 417              	 .align 2
 418              	.L21:
 419 0024 00000000 	 .word efc_write_fmr
 420              	 .cfi_endproc
 421              	.LFE71:
 423              	 .section .text.efc_set_flash_access_mode,"ax",%progbits
 424              	 .align 1
 425              	 .global efc_set_flash_access_mode
 426              	 .syntax unified
 427              	 .thumb
 428              	 .thumb_func
 429              	 .fpu softvfp
 431              	efc_set_flash_access_mode:
 432              	.LFB72:
 172:.././hal/sam3u1c/efc.c **** 
 173:.././hal/sam3u1c/efc.c **** /**
 174:.././hal/sam3u1c/efc.c ****  * \brief Set flash access mode.
 175:.././hal/sam3u1c/efc.c ****  *
 176:.././hal/sam3u1c/efc.c ****  * \param p_efc Pointer to an EFC instance.
 177:.././hal/sam3u1c/efc.c ****  * \param ul_mode 0 for 128-bit, EEFC_FMR_FAM for 64-bit.
 178:.././hal/sam3u1c/efc.c ****  */
 179:.././hal/sam3u1c/efc.c **** void efc_set_flash_access_mode(Efc *p_efc, uint32_t ul_mode)
 180:.././hal/sam3u1c/efc.c **** {
 433              	 .loc 4 180 1
 434              	 .cfi_startproc
 435              	 
 436              	 
 437 0000 80B5     	 push {r7,lr}
 438              	.LCFI32:
 439              	 .cfi_def_cfa_offset 8
 440              	 .cfi_offset 7,-8
 441              	 .cfi_offset 14,-4
 442 0002 84B0     	 sub sp,sp,#16
 443              	.LCFI33:
 444              	 .cfi_def_cfa_offset 24
 445 0004 00AF     	 add r7,sp,#0
 446              	.LCFI34:
 447              	 .cfi_def_cfa_register 7
 448 0006 7860     	 str r0,[r7,#4]
 449 0008 3960     	 str r1,[r7]
 181:.././hal/sam3u1c/efc.c **** 	uint32_t ul_fmr = p_efc->EEFC_FMR & (~EEFC_FMR_FAM);
 450              	 .loc 4 181 25
 451 000a 7B68     	 ldr r3,[r7,#4]
 452 000c 1B68     	 ldr r3,[r3]
 453              	 .loc 4 181 11
 454 000e 23F08073 	 bic r3,r3,#16777216
 455 0012 FB60     	 str r3,[r7,#12]
 182:.././hal/sam3u1c/efc.c **** 
 183:.././hal/sam3u1c/efc.c **** 	efc_write_fmr(p_efc, ul_fmr | ul_mode);
 456              	 .loc 4 183 2
 457 0014 FA68     	 ldr r2,[r7,#12]
 458 0016 3B68     	 ldr r3,[r7]
 459 0018 1343     	 orrs r3,r3,r2
 460 001a 1946     	 mov r1,r3
 461 001c 7868     	 ldr r0,[r7,#4]
 462 001e 034B     	 ldr r3,.L24
 463 0020 9847     	 blx r3
 464              	.LVL4:
 184:.././hal/sam3u1c/efc.c **** }
 465              	 .loc 4 184 1
 466 0022 00BF     	 nop
 467 0024 1037     	 adds r7,r7,#16
 468              	.LCFI35:
 469              	 .cfi_def_cfa_offset 8
 470 0026 BD46     	 mov sp,r7
 471              	.LCFI36:
 472              	 .cfi_def_cfa_register 13
 473              	 
 474 0028 80BD     	 pop {r7,pc}
 475              	.L25:
 476 002a 00BF     	 .align 2
 477              	.L24:
 478 002c 00000000 	 .word efc_write_fmr
 479              	 .cfi_endproc
 480              	.LFE72:
 482              	 .section .text.efc_get_flash_access_mode,"ax",%progbits
 483              	 .align 1
 484              	 .global efc_get_flash_access_mode
 485              	 .syntax unified
 486              	 .thumb
 487              	 .thumb_func
 488              	 .fpu softvfp
 490              	efc_get_flash_access_mode:
 491              	.LFB73:
 185:.././hal/sam3u1c/efc.c **** 
 186:.././hal/sam3u1c/efc.c **** /**
 187:.././hal/sam3u1c/efc.c ****  * \brief Get flash access mode.
 188:.././hal/sam3u1c/efc.c ****  *
 189:.././hal/sam3u1c/efc.c ****  * \param p_efc Pointer to an EFC instance.
 190:.././hal/sam3u1c/efc.c ****  *
 191:.././hal/sam3u1c/efc.c ****  * \return 0 for 128-bit or EEFC_FMR_FAM for 64-bit.
 192:.././hal/sam3u1c/efc.c ****  */
 193:.././hal/sam3u1c/efc.c **** uint32_t efc_get_flash_access_mode(Efc *p_efc)
 194:.././hal/sam3u1c/efc.c **** {
 492              	 .loc 4 194 1
 493              	 .cfi_startproc
 494              	 
 495              	 
 496              	 
 497 0000 80B4     	 push {r7}
 498              	.LCFI37:
 499              	 .cfi_def_cfa_offset 4
 500              	 .cfi_offset 7,-4
 501 0002 83B0     	 sub sp,sp,#12
 502              	.LCFI38:
 503              	 .cfi_def_cfa_offset 16
 504 0004 00AF     	 add r7,sp,#0
 505              	.LCFI39:
 506              	 .cfi_def_cfa_register 7
 507 0006 7860     	 str r0,[r7,#4]
 195:.././hal/sam3u1c/efc.c **** 	return (p_efc->EEFC_FMR & EEFC_FMR_FAM);
 508              	 .loc 4 195 15
 509 0008 7B68     	 ldr r3,[r7,#4]
 510 000a 1B68     	 ldr r3,[r3]
 511              	 .loc 4 195 26
 512 000c 03F08073 	 and r3,r3,#16777216
 196:.././hal/sam3u1c/efc.c **** }
 513              	 .loc 4 196 1
 514 0010 1846     	 mov r0,r3
 515 0012 0C37     	 adds r7,r7,#12
 516              	.LCFI40:
 517              	 .cfi_def_cfa_offset 4
 518 0014 BD46     	 mov sp,r7
 519              	.LCFI41:
 520              	 .cfi_def_cfa_register 13
 521              	 
 522 0016 80BC     	 pop {r7}
 523              	.LCFI42:
 524              	 .cfi_restore 7
 525              	 .cfi_def_cfa_offset 0
 526 0018 7047     	 bx lr
 527              	 .cfi_endproc
 528              	.LFE73:
 530              	 .section .text.efc_set_wait_state,"ax",%progbits
 531              	 .align 1
 532              	 .global efc_set_wait_state
 533              	 .syntax unified
 534              	 .thumb
 535              	 .thumb_func
 536              	 .fpu softvfp
 538              	efc_set_wait_state:
 539              	.LFB74:
 197:.././hal/sam3u1c/efc.c **** 
 198:.././hal/sam3u1c/efc.c **** /**
 199:.././hal/sam3u1c/efc.c ****  * \brief Set flash wait state.
 200:.././hal/sam3u1c/efc.c ****  *
 201:.././hal/sam3u1c/efc.c ****  * \param p_efc Pointer to an EFC instance.
 202:.././hal/sam3u1c/efc.c ****  * \param ul_fws The number of wait states in cycle (no shift).
 203:.././hal/sam3u1c/efc.c ****  */
 204:.././hal/sam3u1c/efc.c **** void efc_set_wait_state(Efc *p_efc, uint32_t ul_fws)
 205:.././hal/sam3u1c/efc.c **** {
 540              	 .loc 4 205 1
 541              	 .cfi_startproc
 542              	 
 543              	 
 544 0000 80B5     	 push {r7,lr}
 545              	.LCFI43:
 546              	 .cfi_def_cfa_offset 8
 547              	 .cfi_offset 7,-8
 548              	 .cfi_offset 14,-4
 549 0002 84B0     	 sub sp,sp,#16
 550              	.LCFI44:
 551              	 .cfi_def_cfa_offset 24
 552 0004 00AF     	 add r7,sp,#0
 553              	.LCFI45:
 554              	 .cfi_def_cfa_register 7
 555 0006 7860     	 str r0,[r7,#4]
 556 0008 3960     	 str r1,[r7]
 206:.././hal/sam3u1c/efc.c **** 	uint32_t ul_fmr = p_efc->EEFC_FMR & (~EEFC_FMR_FWS_Msk);
 557              	 .loc 4 206 25
 558 000a 7B68     	 ldr r3,[r7,#4]
 559 000c 1B68     	 ldr r3,[r3]
 560              	 .loc 4 206 11
 561 000e 23F47063 	 bic r3,r3,#3840
 562 0012 FB60     	 str r3,[r7,#12]
 207:.././hal/sam3u1c/efc.c **** 
 208:.././hal/sam3u1c/efc.c **** 	efc_write_fmr(p_efc, ul_fmr | EEFC_FMR_FWS(ul_fws));
 563              	 .loc 4 208 32
 564 0014 3B68     	 ldr r3,[r7]
 565 0016 1B02     	 lsls r3,r3,#8
 566 0018 03F47062 	 and r2,r3,#3840
 567              	 .loc 4 208 2
 568 001c FB68     	 ldr r3,[r7,#12]
 569 001e 1343     	 orrs r3,r3,r2
 570 0020 1946     	 mov r1,r3
 571 0022 7868     	 ldr r0,[r7,#4]
 572 0024 024B     	 ldr r3,.L29
 573 0026 9847     	 blx r3
 574              	.LVL5:
 209:.././hal/sam3u1c/efc.c **** }
 575              	 .loc 4 209 1
 576 0028 00BF     	 nop
 577 002a 1037     	 adds r7,r7,#16
 578              	.LCFI46:
 579              	 .cfi_def_cfa_offset 8
 580 002c BD46     	 mov sp,r7
 581              	.LCFI47:
 582              	 .cfi_def_cfa_register 13
 583              	 
 584 002e 80BD     	 pop {r7,pc}
 585              	.L30:
 586              	 .align 2
 587              	.L29:
 588 0030 00000000 	 .word efc_write_fmr
 589              	 .cfi_endproc
 590              	.LFE74:
 592              	 .section .text.efc_get_wait_state,"ax",%progbits
 593              	 .align 1
 594              	 .global efc_get_wait_state
 595              	 .syntax unified
 596              	 .thumb
 597              	 .thumb_func
 598              	 .fpu softvfp
 600              	efc_get_wait_state:
 601              	.LFB75:
 210:.././hal/sam3u1c/efc.c **** 
 211:.././hal/sam3u1c/efc.c **** /**
 212:.././hal/sam3u1c/efc.c ****  * \brief Get flash wait state.
 213:.././hal/sam3u1c/efc.c ****  *
 214:.././hal/sam3u1c/efc.c ****  * \param p_efc Pointer to an EFC instance.
 215:.././hal/sam3u1c/efc.c ****  *
 216:.././hal/sam3u1c/efc.c ****  * \return The number of wait states in cycle (no shift).
 217:.././hal/sam3u1c/efc.c ****  */
 218:.././hal/sam3u1c/efc.c **** uint32_t efc_get_wait_state(Efc *p_efc)
 219:.././hal/sam3u1c/efc.c **** {
 602              	 .loc 4 219 1
 603              	 .cfi_startproc
 604              	 
 605              	 
 606              	 
 607 0000 80B4     	 push {r7}
 608              	.LCFI48:
 609              	 .cfi_def_cfa_offset 4
 610              	 .cfi_offset 7,-4
 611 0002 83B0     	 sub sp,sp,#12
 612              	.LCFI49:
 613              	 .cfi_def_cfa_offset 16
 614 0004 00AF     	 add r7,sp,#0
 615              	.LCFI50:
 616              	 .cfi_def_cfa_register 7
 617 0006 7860     	 str r0,[r7,#4]
 220:.././hal/sam3u1c/efc.c **** 	return ((p_efc->EEFC_FMR & EEFC_FMR_FWS_Msk) >> EEFC_FMR_FWS_Pos);
 618              	 .loc 4 220 16
 619 0008 7B68     	 ldr r3,[r7,#4]
 620 000a 1B68     	 ldr r3,[r3]
 621              	 .loc 4 220 47
 622 000c 1B0A     	 lsrs r3,r3,#8
 623 000e 03F00F03 	 and r3,r3,#15
 221:.././hal/sam3u1c/efc.c **** }
 624              	 .loc 4 221 1
 625 0012 1846     	 mov r0,r3
 626 0014 0C37     	 adds r7,r7,#12
 627              	.LCFI51:
 628              	 .cfi_def_cfa_offset 4
 629 0016 BD46     	 mov sp,r7
 630              	.LCFI52:
 631              	 .cfi_def_cfa_register 13
 632              	 
 633 0018 80BC     	 pop {r7}
 634              	.LCFI53:
 635              	 .cfi_restore 7
 636              	 .cfi_def_cfa_offset 0
 637 001a 7047     	 bx lr
 638              	 .cfi_endproc
 639              	.LFE75:
 641              	 .section .text.efc_perform_command,"ax",%progbits
 642              	 .align 1
 643              	 .global efc_perform_command
 644              	 .syntax unified
 645              	 .thumb
 646              	 .thumb_func
 647              	 .fpu softvfp
 649              	efc_perform_command:
 650              	.LFB76:
 222:.././hal/sam3u1c/efc.c **** 
 223:.././hal/sam3u1c/efc.c **** /**
 224:.././hal/sam3u1c/efc.c ****  * \brief Perform the given command and wait until its completion (or an error).
 225:.././hal/sam3u1c/efc.c ****  *
 226:.././hal/sam3u1c/efc.c ****  * \note Unique ID commands are not supported, use efc_perform_read_sequence.
 227:.././hal/sam3u1c/efc.c ****  *
 228:.././hal/sam3u1c/efc.c ****  * \param p_efc Pointer to an EFC instance.
 229:.././hal/sam3u1c/efc.c ****  * \param ul_command Command to perform.
 230:.././hal/sam3u1c/efc.c ****  * \param ul_argument Optional command argument.
 231:.././hal/sam3u1c/efc.c ****  *
 232:.././hal/sam3u1c/efc.c ****  * \note This function will automatically choose to use IAP function.
 233:.././hal/sam3u1c/efc.c ****  *
 234:.././hal/sam3u1c/efc.c ****  * \return 0 if successful, otherwise returns an error code.
 235:.././hal/sam3u1c/efc.c ****  */
 236:.././hal/sam3u1c/efc.c **** uint32_t efc_perform_command(Efc *p_efc, uint32_t ul_command,
 237:.././hal/sam3u1c/efc.c **** 		uint32_t ul_argument)
 238:.././hal/sam3u1c/efc.c **** {
 651              	 .loc 4 238 1
 652              	 .cfi_startproc
 653              	 
 654              	 
 655 0000 80B5     	 push {r7,lr}
 656              	.LCFI54:
 657              	 .cfi_def_cfa_offset 8
 658              	 .cfi_offset 7,-8
 659              	 .cfi_offset 14,-4
 660 0002 86B0     	 sub sp,sp,#24
 661              	.LCFI55:
 662              	 .cfi_def_cfa_offset 32
 663 0004 00AF     	 add r7,sp,#0
 664              	.LCFI56:
 665              	 .cfi_def_cfa_register 7
 666 0006 F860     	 str r0,[r7,#12]
 667 0008 B960     	 str r1,[r7,#8]
 668 000a 7A60     	 str r2,[r7,#4]
 239:.././hal/sam3u1c/efc.c **** 	uint32_t result;
 240:.././hal/sam3u1c/efc.c **** 	irqflags_t flags;
 241:.././hal/sam3u1c/efc.c **** 
 242:.././hal/sam3u1c/efc.c **** 	/* Unique ID commands are not supported. */
 243:.././hal/sam3u1c/efc.c **** 	if (ul_command == EFC_FCMD_STUI || ul_command == EFC_FCMD_SPUI) {
 669              	 .loc 4 243 5
 670 000c BB68     	 ldr r3,[r7,#8]
 671 000e 0E2B     	 cmp r3,#14
 672 0010 02D0     	 beq .L34
 673              	 .loc 4 243 34 discriminator 1
 674 0012 BB68     	 ldr r3,[r7,#8]
 675 0014 0F2B     	 cmp r3,#15
 676 0016 02D1     	 bne .L35
 677              	.L34:
 244:.././hal/sam3u1c/efc.c **** 		return EFC_RC_NOT_SUPPORT;
 678              	 .loc 4 244 10
 679 0018 4FF0FF33 	 mov r3,#-1
 680 001c 16E0     	 b .L36
 681              	.L35:
 245:.././hal/sam3u1c/efc.c **** 	}
 246:.././hal/sam3u1c/efc.c **** 
 247:.././hal/sam3u1c/efc.c **** 	flags = cpu_irq_save();
 682              	 .loc 4 247 10
 683 001e 0D4B     	 ldr r3,.L37
 684 0020 9847     	 blx r3
 685              	.LVL6:
 686 0022 7861     	 str r0,[r7,#20]
 248:.././hal/sam3u1c/efc.c **** 	/* Use RAM Function. */
 249:.././hal/sam3u1c/efc.c **** 	result = efc_perform_fcr(p_efc,
 250:.././hal/sam3u1c/efc.c **** 			EEFC_FCR_FKEY_PASSWD | EEFC_FCR_FARG(ul_argument) |
 687              	 .loc 4 250 27
 688 0024 7B68     	 ldr r3,[r7,#4]
 689 0026 1B02     	 lsls r3,r3,#8
 690 0028 23F07F43 	 bic r3,r3,#-16777216
 691 002c 23F0FF03 	 bic r3,r3,#255
 251:.././hal/sam3u1c/efc.c **** 			EEFC_FCR_FCMD(ul_command));
 692              	 .loc 4 251 4
 693 0030 BA68     	 ldr r2,[r7,#8]
 694 0032 D2B2     	 uxtb r2,r2
 250:.././hal/sam3u1c/efc.c **** 			EEFC_FCR_FCMD(ul_command));
 695              	 .loc 4 250 54
 696 0034 1343     	 orrs r3,r3,r2
 249:.././hal/sam3u1c/efc.c **** 			EEFC_FCR_FKEY_PASSWD | EEFC_FCR_FARG(ul_argument) |
 697              	 .loc 4 249 11
 698 0036 43F0B443 	 orr r3,r3,#1509949440
 699 003a 1946     	 mov r1,r3
 700 003c F868     	 ldr r0,[r7,#12]
 701 003e 064B     	 ldr r3,.L37+4
 702 0040 9847     	 blx r3
 703              	.LVL7:
 704 0042 3861     	 str r0,[r7,#16]
 252:.././hal/sam3u1c/efc.c **** 	cpu_irq_restore(flags);
 705              	 .loc 4 252 2
 706 0044 7869     	 ldr r0,[r7,#20]
 707 0046 054B     	 ldr r3,.L37+8
 708 0048 9847     	 blx r3
 709              	.LVL8:
 253:.././hal/sam3u1c/efc.c **** 	return result;
 710              	 .loc 4 253 9
 711 004a 3B69     	 ldr r3,[r7,#16]
 712              	.L36:
 254:.././hal/sam3u1c/efc.c **** }
 713              	 .loc 4 254 1
 714 004c 1846     	 mov r0,r3
 715 004e 1837     	 adds r7,r7,#24
 716              	.LCFI57:
 717              	 .cfi_def_cfa_offset 8
 718 0050 BD46     	 mov sp,r7
 719              	.LCFI58:
 720              	 .cfi_def_cfa_register 13
 721              	 
 722 0052 80BD     	 pop {r7,pc}
 723              	.L38:
 724              	 .align 2
 725              	.L37:
 726 0054 00000000 	 .word cpu_irq_save
 727 0058 00000000 	 .word efc_perform_fcr
 728 005c 00000000 	 .word cpu_irq_restore
 729              	 .cfi_endproc
 730              	.LFE76:
 732              	 .section .text.efc_get_status,"ax",%progbits
 733              	 .align 1
 734              	 .global efc_get_status
 735              	 .syntax unified
 736              	 .thumb
 737              	 .thumb_func
 738              	 .fpu softvfp
 740              	efc_get_status:
 741              	.LFB77:
 255:.././hal/sam3u1c/efc.c **** 
 256:.././hal/sam3u1c/efc.c **** /**
 257:.././hal/sam3u1c/efc.c ****  * \brief Get the current status of the EEFC.
 258:.././hal/sam3u1c/efc.c ****  *
 259:.././hal/sam3u1c/efc.c ****  * \note This function clears the value of some status bits (FLOCKE, FCMDE).
 260:.././hal/sam3u1c/efc.c ****  *
 261:.././hal/sam3u1c/efc.c ****  * \param p_efc Pointer to an EFC instance.
 262:.././hal/sam3u1c/efc.c ****  *
 263:.././hal/sam3u1c/efc.c ****  * \return The current status.
 264:.././hal/sam3u1c/efc.c ****  */
 265:.././hal/sam3u1c/efc.c **** uint32_t efc_get_status(Efc *p_efc)
 266:.././hal/sam3u1c/efc.c **** {
 742              	 .loc 4 266 1
 743              	 .cfi_startproc
 744              	 
 745              	 
 746              	 
 747 0000 80B4     	 push {r7}
 748              	.LCFI59:
 749              	 .cfi_def_cfa_offset 4
 750              	 .cfi_offset 7,-4
 751 0002 83B0     	 sub sp,sp,#12
 752              	.LCFI60:
 753              	 .cfi_def_cfa_offset 16
 754 0004 00AF     	 add r7,sp,#0
 755              	.LCFI61:
 756              	 .cfi_def_cfa_register 7
 757 0006 7860     	 str r0,[r7,#4]
 267:.././hal/sam3u1c/efc.c **** 	return p_efc->EEFC_FSR;
 758              	 .loc 4 267 14
 759 0008 7B68     	 ldr r3,[r7,#4]
 760 000a 9B68     	 ldr r3,[r3,#8]
 268:.././hal/sam3u1c/efc.c **** }
 761              	 .loc 4 268 1
 762 000c 1846     	 mov r0,r3
 763 000e 0C37     	 adds r7,r7,#12
 764              	.LCFI62:
 765              	 .cfi_def_cfa_offset 4
 766 0010 BD46     	 mov sp,r7
 767              	.LCFI63:
 768              	 .cfi_def_cfa_register 13
 769              	 
 770 0012 80BC     	 pop {r7}
 771              	.LCFI64:
 772              	 .cfi_restore 7
 773              	 .cfi_def_cfa_offset 0
 774 0014 7047     	 bx lr
 775              	 .cfi_endproc
 776              	.LFE77:
 778              	 .section .text.efc_get_result,"ax",%progbits
 779              	 .align 1
 780              	 .global efc_get_result
 781              	 .syntax unified
 782              	 .thumb
 783              	 .thumb_func
 784              	 .fpu softvfp
 786              	efc_get_result:
 787              	.LFB78:
 269:.././hal/sam3u1c/efc.c **** 
 270:.././hal/sam3u1c/efc.c **** /**
 271:.././hal/sam3u1c/efc.c ****  * \brief Get the result of the last executed command.
 272:.././hal/sam3u1c/efc.c ****  *
 273:.././hal/sam3u1c/efc.c ****  * \param p_efc Pointer to an EFC instance.
 274:.././hal/sam3u1c/efc.c ****  *
 275:.././hal/sam3u1c/efc.c ****  * \return The result of the last executed command.
 276:.././hal/sam3u1c/efc.c ****  */
 277:.././hal/sam3u1c/efc.c **** uint32_t efc_get_result(Efc *p_efc)
 278:.././hal/sam3u1c/efc.c **** {
 788              	 .loc 4 278 1
 789              	 .cfi_startproc
 790              	 
 791              	 
 792              	 
 793 0000 80B4     	 push {r7}
 794              	.LCFI65:
 795              	 .cfi_def_cfa_offset 4
 796              	 .cfi_offset 7,-4
 797 0002 83B0     	 sub sp,sp,#12
 798              	.LCFI66:
 799              	 .cfi_def_cfa_offset 16
 800 0004 00AF     	 add r7,sp,#0
 801              	.LCFI67:
 802              	 .cfi_def_cfa_register 7
 803 0006 7860     	 str r0,[r7,#4]
 279:.././hal/sam3u1c/efc.c **** 	return p_efc->EEFC_FRR;
 804              	 .loc 4 279 14
 805 0008 7B68     	 ldr r3,[r7,#4]
 806 000a DB68     	 ldr r3,[r3,#12]
 280:.././hal/sam3u1c/efc.c **** }
 807              	 .loc 4 280 1
 808 000c 1846     	 mov r0,r3
 809 000e 0C37     	 adds r7,r7,#12
 810              	.LCFI68:
 811              	 .cfi_def_cfa_offset 4
 812 0010 BD46     	 mov sp,r7
 813              	.LCFI69:
 814              	 .cfi_def_cfa_register 13
 815              	 
 816 0012 80BC     	 pop {r7}
 817              	.LCFI70:
 818              	 .cfi_restore 7
 819              	 .cfi_def_cfa_offset 0
 820 0014 7047     	 bx lr
 821              	 .cfi_endproc
 822              	.LFE78:
 824              	 .section .ramfunc,"ax",%progbits
 825              	 .align 1
 826              	 .global efc_perform_read_sequence
 827              	 .syntax unified
 828              	 .thumb
 829              	 .thumb_func
 830              	 .fpu softvfp
 832              	efc_perform_read_sequence:
 833              	.LFB79:
 281:.././hal/sam3u1c/efc.c **** 
 282:.././hal/sam3u1c/efc.c **** /**
 283:.././hal/sam3u1c/efc.c ****  * \brief Perform read sequence. Supported sequences are read Unique ID and
 284:.././hal/sam3u1c/efc.c ****  * read User Signature
 285:.././hal/sam3u1c/efc.c ****  *
 286:.././hal/sam3u1c/efc.c ****  * \param p_efc Pointer to an EFC instance.
 287:.././hal/sam3u1c/efc.c ****  * \param ul_cmd_st Start command to perform.
 288:.././hal/sam3u1c/efc.c ****  * \param ul_cmd_sp Stop command to perform.
 289:.././hal/sam3u1c/efc.c ****  * \param p_ul_buf Pointer to an data buffer.
 290:.././hal/sam3u1c/efc.c ****  * \param ul_size Buffer size.
 291:.././hal/sam3u1c/efc.c ****  *
 292:.././hal/sam3u1c/efc.c ****  * \return 0 if successful, otherwise returns an error code.
 293:.././hal/sam3u1c/efc.c ****  */
 294:.././hal/sam3u1c/efc.c **** __no_inline
 295:.././hal/sam3u1c/efc.c **** RAMFUNC
 296:.././hal/sam3u1c/efc.c **** uint32_t efc_perform_read_sequence(Efc *p_efc,
 297:.././hal/sam3u1c/efc.c **** 		uint32_t ul_cmd_st, uint32_t ul_cmd_sp,
 298:.././hal/sam3u1c/efc.c **** 		uint32_t *p_ul_buf, uint32_t ul_size)
 299:.././hal/sam3u1c/efc.c **** {
 834              	 .loc 4 299 1
 835              	 .cfi_startproc
 836              	 
 837              	 
 838              	 
 839 0000 80B4     	 push {r7}
 840              	.LCFI71:
 841              	 .cfi_def_cfa_offset 4
 842              	 .cfi_offset 7,-4
 843 0002 89B0     	 sub sp,sp,#36
 844              	.LCFI72:
 845              	 .cfi_def_cfa_offset 40
 846 0004 00AF     	 add r7,sp,#0
 847              	.LCFI73:
 848              	 .cfi_def_cfa_register 7
 849 0006 F860     	 str r0,[r7,#12]
 850 0008 B960     	 str r1,[r7,#8]
 851 000a 7A60     	 str r2,[r7,#4]
 852 000c 3B60     	 str r3,[r7]
 300:.././hal/sam3u1c/efc.c **** 	volatile uint32_t ul_status;
 301:.././hal/sam3u1c/efc.c **** 	uint32_t ul_cnt;
 302:.././hal/sam3u1c/efc.c **** 
 303:.././hal/sam3u1c/efc.c **** #if (SAM3U4 || SAM3XA || SAM4SD16 || SAM4SD32 || SAM4C32)
 304:.././hal/sam3u1c/efc.c **** 	uint32_t *p_ul_data =
 305:.././hal/sam3u1c/efc.c **** 			(uint32_t *) ((p_efc == EFC0) ?
 306:.././hal/sam3u1c/efc.c **** 			READ_BUFF_ADDR0 : READ_BUFF_ADDR1);
 307:.././hal/sam3u1c/efc.c **** #elif (SAM3S || SAM4S || SAM3N || SAM3U || SAM4E || SAM4N || SAM4C || SAMG || SAM4CP || SAM4CM)
 308:.././hal/sam3u1c/efc.c **** 	uint32_t *p_ul_data = (uint32_t *) READ_BUFF_ADDR;
 853              	 .loc 4 308 12
 854 000e 4FF40023 	 mov r3,#524288
 855 0012 BB61     	 str r3,[r7,#24]
 309:.././hal/sam3u1c/efc.c **** #else
 310:.././hal/sam3u1c/efc.c **** 	return EFC_RC_NOT_SUPPORT;
 311:.././hal/sam3u1c/efc.c **** #endif
 312:.././hal/sam3u1c/efc.c **** 
 313:.././hal/sam3u1c/efc.c **** 	if (p_ul_buf == NULL) {
 856              	 .loc 4 313 5
 857 0014 3B68     	 ldr r3,[r7]
 858 0016 002B     	 cmp r3,#0
 859 0018 01D1     	 bne .L44
 314:.././hal/sam3u1c/efc.c **** 		return EFC_RC_INVALID;
 860              	 .loc 4 314 10
 861 001a 0223     	 movs r3,#2
 862 001c 3CE0     	 b .L45
 863              	.L44:
 315:.././hal/sam3u1c/efc.c **** 	}
 316:.././hal/sam3u1c/efc.c **** 
 317:.././hal/sam3u1c/efc.c **** 	p_efc->EEFC_FMR |= (0x1u << 16);
 864              	 .loc 4 317 18
 865 001e FB68     	 ldr r3,[r7,#12]
 866 0020 1B68     	 ldr r3,[r3]
 867 0022 43F48032 	 orr r2,r3,#65536
 868 0026 FB68     	 ldr r3,[r7,#12]
 869 0028 1A60     	 str r2,[r3]
 318:.././hal/sam3u1c/efc.c **** 
 319:.././hal/sam3u1c/efc.c **** 	/* Send the Start Read command */
 320:.././hal/sam3u1c/efc.c **** #if (SAM4S || SAM4E || SAM4N || SAM4C || SAMG || SAM4CP || SAM4CM)
 321:.././hal/sam3u1c/efc.c **** 	p_efc->EEFC_FCR = EEFC_FCR_FKEY_PASSWD | EEFC_FCR_FARG(0)
 322:.././hal/sam3u1c/efc.c **** 			| EEFC_FCR_FCMD(ul_cmd_st);
 323:.././hal/sam3u1c/efc.c **** #else
 324:.././hal/sam3u1c/efc.c **** 	p_efc->EEFC_FCR = EEFC_FCR_FKEY(FWP_KEY) | EEFC_FCR_FARG(0)
 325:.././hal/sam3u1c/efc.c **** 			| EEFC_FCR_FCMD(ul_cmd_st);
 870              	 .loc 4 325 6
 871 002a BB68     	 ldr r3,[r7,#8]
 872 002c DBB2     	 uxtb r3,r3
 873              	 .loc 4 325 4
 874 002e 43F0B442 	 orr r2,r3,#1509949440
 324:.././hal/sam3u1c/efc.c **** 			| EEFC_FCR_FCMD(ul_cmd_st);
 875              	 .loc 4 324 18
 876 0032 FB68     	 ldr r3,[r7,#12]
 877 0034 5A60     	 str r2,[r3,#4]
 878              	.L46:
 326:.././hal/sam3u1c/efc.c **** #endif
 327:.././hal/sam3u1c/efc.c **** 	/* Wait for the FRDY bit in the Flash Programming Status Register
 328:.././hal/sam3u1c/efc.c **** 	 * (EEFC_FSR) falls.
 329:.././hal/sam3u1c/efc.c **** 	 */
 330:.././hal/sam3u1c/efc.c **** 	do {
 331:.././hal/sam3u1c/efc.c **** 		ul_status = p_efc->EEFC_FSR;
 879              	 .loc 4 331 20 discriminator 1
 880 0036 FB68     	 ldr r3,[r7,#12]
 881 0038 9B68     	 ldr r3,[r3,#8]
 882              	 .loc 4 331 13 discriminator 1
 883 003a 7B61     	 str r3,[r7,#20]
 332:.././hal/sam3u1c/efc.c **** 	} while ((ul_status & EEFC_FSR_FRDY) == EEFC_FSR_FRDY);
 884              	 .loc 4 332 22 discriminator 1
 885 003c 7B69     	 ldr r3,[r7,#20]
 886 003e 03F00103 	 and r3,r3,#1
 887              	 .loc 4 332 2 discriminator 1
 888 0042 012B     	 cmp r3,#1
 889 0044 F7D0     	 beq .L46
 333:.././hal/sam3u1c/efc.c **** 
 334:.././hal/sam3u1c/efc.c **** 	/* The data is located in the first address of the Flash
 335:.././hal/sam3u1c/efc.c **** 	 * memory mapping.
 336:.././hal/sam3u1c/efc.c **** 	 */
 337:.././hal/sam3u1c/efc.c **** 	for (ul_cnt = 0; ul_cnt < ul_size; ul_cnt++) {
 890              	 .loc 4 337 14
 891 0046 0023     	 movs r3,#0
 892 0048 FB61     	 str r3,[r7,#28]
 893              	 .loc 4 337 2
 894 004a 0CE0     	 b .L47
 895              	.L48:
 338:.././hal/sam3u1c/efc.c **** 		p_ul_buf[ul_cnt] = p_ul_data[ul_cnt];
 896              	 .loc 4 338 31 discriminator 3
 897 004c FB69     	 ldr r3,[r7,#28]
 898 004e 9B00     	 lsls r3,r3,#2
 899 0050 BA69     	 ldr r2,[r7,#24]
 900 0052 1A44     	 add r2,r2,r3
 901              	 .loc 4 338 11 discriminator 3
 902 0054 FB69     	 ldr r3,[r7,#28]
 903 0056 9B00     	 lsls r3,r3,#2
 904 0058 3968     	 ldr r1,[r7]
 905 005a 0B44     	 add r3,r3,r1
 906              	 .loc 4 338 31 discriminator 3
 907 005c 1268     	 ldr r2,[r2]
 908              	 .loc 4 338 20 discriminator 3
 909 005e 1A60     	 str r2,[r3]
 337:.././hal/sam3u1c/efc.c **** 		p_ul_buf[ul_cnt] = p_ul_data[ul_cnt];
 910              	 .loc 4 337 43 discriminator 3
 911 0060 FB69     	 ldr r3,[r7,#28]
 912 0062 0133     	 adds r3,r3,#1
 913 0064 FB61     	 str r3,[r7,#28]
 914              	.L47:
 337:.././hal/sam3u1c/efc.c **** 		p_ul_buf[ul_cnt] = p_ul_data[ul_cnt];
 915              	 .loc 4 337 2 discriminator 1
 916 0066 FA69     	 ldr r2,[r7,#28]
 917 0068 BB6A     	 ldr r3,[r7,#40]
 918 006a 9A42     	 cmp r2,r3
 919 006c EED3     	 bcc .L48
 339:.././hal/sam3u1c/efc.c **** 	}
 340:.././hal/sam3u1c/efc.c **** 
 341:.././hal/sam3u1c/efc.c **** 	/* To stop the read mode */
 342:.././hal/sam3u1c/efc.c **** 	p_efc->EEFC_FCR =
 343:.././hal/sam3u1c/efc.c **** #if (SAM4S || SAM4E || SAM4N || SAM4C || SAMG || SAM4CP || SAM4CM)
 344:.././hal/sam3u1c/efc.c **** 			EEFC_FCR_FKEY_PASSWD | EEFC_FCR_FARG(0) |
 345:.././hal/sam3u1c/efc.c **** 			EEFC_FCR_FCMD(ul_cmd_sp);
 346:.././hal/sam3u1c/efc.c **** #else
 347:.././hal/sam3u1c/efc.c **** 			EEFC_FCR_FKEY(FWP_KEY) | EEFC_FCR_FARG(0) |
 348:.././hal/sam3u1c/efc.c **** 			EEFC_FCR_FCMD(ul_cmd_sp);
 920              	 .loc 4 348 4
 921 006e 7B68     	 ldr r3,[r7,#4]
 922 0070 DBB2     	 uxtb r3,r3
 347:.././hal/sam3u1c/efc.c **** 			EEFC_FCR_FCMD(ul_cmd_sp);
 923              	 .loc 4 347 46
 924 0072 43F0B442 	 orr r2,r3,#1509949440
 342:.././hal/sam3u1c/efc.c **** #if (SAM4S || SAM4E || SAM4N || SAM4C || SAMG || SAM4CP || SAM4CM)
 925              	 .loc 4 342 18
 926 0076 FB68     	 ldr r3,[r7,#12]
 927 0078 5A60     	 str r2,[r3,#4]
 928              	.L49:
 349:.././hal/sam3u1c/efc.c **** #endif
 350:.././hal/sam3u1c/efc.c **** 	/* Wait for the FRDY bit in the Flash Programming Status Register (EEFC_FSR)
 351:.././hal/sam3u1c/efc.c **** 	 * rises.
 352:.././hal/sam3u1c/efc.c **** 	 */
 353:.././hal/sam3u1c/efc.c **** 	do {
 354:.././hal/sam3u1c/efc.c **** 		ul_status = p_efc->EEFC_FSR;
 929              	 .loc 4 354 20 discriminator 1
 930 007a FB68     	 ldr r3,[r7,#12]
 931 007c 9B68     	 ldr r3,[r3,#8]
 932              	 .loc 4 354 13 discriminator 1
 933 007e 7B61     	 str r3,[r7,#20]
 355:.././hal/sam3u1c/efc.c **** 	} while ((ul_status & EEFC_FSR_FRDY) != EEFC_FSR_FRDY);
 934              	 .loc 4 355 22 discriminator 1
 935 0080 7B69     	 ldr r3,[r7,#20]
 936 0082 03F00103 	 and r3,r3,#1
 937              	 .loc 4 355 2 discriminator 1
 938 0086 012B     	 cmp r3,#1
 939 0088 F7D1     	 bne .L49
 356:.././hal/sam3u1c/efc.c **** 
 357:.././hal/sam3u1c/efc.c **** 	p_efc->EEFC_FMR &= ~(0x1u << 16);
 940              	 .loc 4 357 18
 941 008a FB68     	 ldr r3,[r7,#12]
 942 008c 1B68     	 ldr r3,[r3]
 943 008e 23F48032 	 bic r2,r3,#65536
 944 0092 FB68     	 ldr r3,[r7,#12]
 945 0094 1A60     	 str r2,[r3]
 358:.././hal/sam3u1c/efc.c **** 
 359:.././hal/sam3u1c/efc.c **** 	return EFC_RC_OK;
 946              	 .loc 4 359 9
 947 0096 0023     	 movs r3,#0
 948              	.L45:
 360:.././hal/sam3u1c/efc.c **** }
 949              	 .loc 4 360 1
 950 0098 1846     	 mov r0,r3
 951 009a 2437     	 adds r7,r7,#36
 952              	.LCFI74:
 953              	 .cfi_def_cfa_offset 4
 954 009c BD46     	 mov sp,r7
 955              	.LCFI75:
 956              	 .cfi_def_cfa_register 13
 957              	 
 958 009e 80BC     	 pop {r7}
 959              	.LCFI76:
 960              	 .cfi_restore 7
 961              	 .cfi_def_cfa_offset 0
 962 00a0 7047     	 bx lr
 963              	 .cfi_endproc
 964              	.LFE79:
 966              	 .align 1
 967              	 .global efc_write_fmr
 968              	 .syntax unified
 969              	 .thumb
 970              	 .thumb_func
 971              	 .fpu softvfp
 973              	efc_write_fmr:
 974              	.LFB80:
 361:.././hal/sam3u1c/efc.c **** 
 362:.././hal/sam3u1c/efc.c **** /**
 363:.././hal/sam3u1c/efc.c ****  * \brief Set mode register.
 364:.././hal/sam3u1c/efc.c ****  *
 365:.././hal/sam3u1c/efc.c ****  * \param p_efc Pointer to an EFC instance.
 366:.././hal/sam3u1c/efc.c ****  * \param ul_fmr Value of mode register
 367:.././hal/sam3u1c/efc.c ****  */
 368:.././hal/sam3u1c/efc.c **** __no_inline
 369:.././hal/sam3u1c/efc.c **** RAMFUNC
 370:.././hal/sam3u1c/efc.c **** void efc_write_fmr(Efc *p_efc, uint32_t ul_fmr)
 371:.././hal/sam3u1c/efc.c **** {
 975              	 .loc 4 371 1
 976              	 .cfi_startproc
 977              	 
 978              	 
 979              	 
 980 00a2 80B4     	 push {r7}
 981              	.LCFI77:
 982              	 .cfi_def_cfa_offset 4
 983              	 .cfi_offset 7,-4
 984 00a4 83B0     	 sub sp,sp,#12
 985              	.LCFI78:
 986              	 .cfi_def_cfa_offset 16
 987 00a6 00AF     	 add r7,sp,#0
 988              	.LCFI79:
 989              	 .cfi_def_cfa_register 7
 990 00a8 7860     	 str r0,[r7,#4]
 991 00aa 3960     	 str r1,[r7]
 372:.././hal/sam3u1c/efc.c **** 	p_efc->EEFC_FMR = ul_fmr;
 992              	 .loc 4 372 18
 993 00ac 7B68     	 ldr r3,[r7,#4]
 994 00ae 3A68     	 ldr r2,[r7]
 995 00b0 1A60     	 str r2,[r3]
 373:.././hal/sam3u1c/efc.c **** }
 996              	 .loc 4 373 1
 997 00b2 00BF     	 nop
 998 00b4 0C37     	 adds r7,r7,#12
 999              	.LCFI80:
 1000              	 .cfi_def_cfa_offset 4
 1001 00b6 BD46     	 mov sp,r7
 1002              	.LCFI81:
 1003              	 .cfi_def_cfa_register 13
 1004              	 
 1005 00b8 80BC     	 pop {r7}
 1006              	.LCFI82:
 1007              	 .cfi_restore 7
 1008              	 .cfi_def_cfa_offset 0
 1009 00ba 7047     	 bx lr
 1010              	 .cfi_endproc
 1011              	.LFE80:
 1013              	 .align 1
 1014              	 .global efc_perform_fcr
 1015              	 .syntax unified
 1016              	 .thumb
 1017              	 .thumb_func
 1018              	 .fpu softvfp
 1020              	efc_perform_fcr:
 1021              	.LFB81:
 374:.././hal/sam3u1c/efc.c **** 
 375:.././hal/sam3u1c/efc.c **** /**
 376:.././hal/sam3u1c/efc.c ****  * \brief Perform command.
 377:.././hal/sam3u1c/efc.c ****  *
 378:.././hal/sam3u1c/efc.c ****  * \param p_efc Pointer to an EFC instance.
 379:.././hal/sam3u1c/efc.c ****  * \param ul_fcr Flash command.
 380:.././hal/sam3u1c/efc.c ****  *
 381:.././hal/sam3u1c/efc.c ****  * \return The current status.
 382:.././hal/sam3u1c/efc.c ****  */
 383:.././hal/sam3u1c/efc.c **** __no_inline
 384:.././hal/sam3u1c/efc.c **** RAMFUNC
 385:.././hal/sam3u1c/efc.c **** uint32_t efc_perform_fcr(Efc *p_efc, uint32_t ul_fcr)
 386:.././hal/sam3u1c/efc.c **** {
 1022              	 .loc 4 386 1
 1023              	 .cfi_startproc
 1024              	 
 1025              	 
 1026              	 
 1027 00bc 80B4     	 push {r7}
 1028              	.LCFI83:
 1029              	 .cfi_def_cfa_offset 4
 1030              	 .cfi_offset 7,-4
 1031 00be 85B0     	 sub sp,sp,#20
 1032              	.LCFI84:
 1033              	 .cfi_def_cfa_offset 24
 1034 00c0 00AF     	 add r7,sp,#0
 1035              	.LCFI85:
 1036              	 .cfi_def_cfa_register 7
 1037 00c2 7860     	 str r0,[r7,#4]
 1038 00c4 3960     	 str r1,[r7]
 387:.././hal/sam3u1c/efc.c **** 	volatile uint32_t ul_status;
 388:.././hal/sam3u1c/efc.c **** 
 389:.././hal/sam3u1c/efc.c **** 	p_efc->EEFC_FCR = ul_fcr;
 1039              	 .loc 4 389 18
 1040 00c6 7B68     	 ldr r3,[r7,#4]
 1041 00c8 3A68     	 ldr r2,[r7]
 1042 00ca 5A60     	 str r2,[r3,#4]
 1043              	.L52:
 390:.././hal/sam3u1c/efc.c **** 	do {
 391:.././hal/sam3u1c/efc.c **** 		ul_status = p_efc->EEFC_FSR;
 1044              	 .loc 4 391 20 discriminator 1
 1045 00cc 7B68     	 ldr r3,[r7,#4]
 1046 00ce 9B68     	 ldr r3,[r3,#8]
 1047              	 .loc 4 391 13 discriminator 1
 1048 00d0 FB60     	 str r3,[r7,#12]
 392:.././hal/sam3u1c/efc.c **** 	} while ((ul_status & EEFC_FSR_FRDY) != EEFC_FSR_FRDY);
 1049              	 .loc 4 392 22 discriminator 1
 1050 00d2 FB68     	 ldr r3,[r7,#12]
 1051 00d4 03F00103 	 and r3,r3,#1
 1052              	 .loc 4 392 2 discriminator 1
 1053 00d8 012B     	 cmp r3,#1
 1054 00da F7D1     	 bne .L52
 393:.././hal/sam3u1c/efc.c **** 
 394:.././hal/sam3u1c/efc.c **** 	return (ul_status & EEFC_ERROR_FLAGS);
 1055              	 .loc 4 394 20
 1056 00dc FB68     	 ldr r3,[r7,#12]
 1057 00de 03F00603 	 and r3,r3,#6
 395:.././hal/sam3u1c/efc.c **** }
 1058              	 .loc 4 395 1
 1059 00e2 1846     	 mov r0,r3
 1060 00e4 1437     	 adds r7,r7,#20
 1061              	.LCFI86:
 1062              	 .cfi_def_cfa_offset 4
 1063 00e6 BD46     	 mov sp,r7
 1064              	.LCFI87:
 1065              	 .cfi_def_cfa_register 13
 1066              	 
 1067 00e8 80BC     	 pop {r7}
 1068              	.LCFI88:
 1069              	 .cfi_restore 7
 1070              	 .cfi_def_cfa_offset 0
 1071 00ea 7047     	 bx lr
 1072              	 .cfi_endproc
 1073              	.LFE81:
 1075              	 .text
 1076              	.Letext0:
 1077              	 .file 5 "c:\\program files (x86)\\gnu tools arm embedded\\8 2018-q4-major\\arm-none-eabi\\include\\machine\\_default_types.h"
 1078              	 .file 6 "c:\\program files (x86)\\gnu tools arm embedded\\8 2018-q4-major\\arm-none-eabi\\include\\sys\\_stdint.h"
 1079              	 .file 7 ".././hal/sam3u1c/inc/sam3u1c.h"
 1080              	 .file 8 ".././hal/sam3u1c/inc/core_cm3.h"
 1081              	 .file 9 ".././hal/sam3u1c/inc/system_sam3u.h"
 1082              	 .file 10 ".././hal/sam3u1c/inc/component/component_efc.h"
 1083              	 .file 11 "c:\\program files (x86)\\gnu tools arm embedded\\8 2018-q4-major\\arm-none-eabi\\include\\sys\\lock.h"
 1084              	 .file 12 "c:\\program files (x86)\\gnu tools arm embedded\\8 2018-q4-major\\arm-none-eabi\\include\\sys\\_types.h"
 1085              	 .file 13 "c:\\program files (x86)\\gnu tools arm embedded\\8 2018-q4-major\\lib\\gcc\\arm-none-eabi\\8.2.1\\include\\stddef.h"
 1086              	 .file 14 "c:\\program files (x86)\\gnu tools arm embedded\\8 2018-q4-major\\arm-none-eabi\\include\\sys\\reent.h"
 1087              	 .file 15 "c:\\program files (x86)\\gnu tools arm embedded\\8 2018-q4-major\\arm-none-eabi\\include\\stdlib.h"
 1088              	 .file 16 ".././hal/sam3u1c/inc/efc.h"