   1              	 .cpu cortex-m3
   2              	 .eabi_attribute 20,1
   3              	 .eabi_attribute 21,1
   4              	 .eabi_attribute 23,3
   5              	 .eabi_attribute 24,1
   6              	 .eabi_attribute 25,1
   7              	 .eabi_attribute 26,1
   8              	 .eabi_attribute 30,6
   9              	 .eabi_attribute 34,1
  10              	 .eabi_attribute 18,4
  11              	 .file "init.c"
  12              	 .text
  13              	.Ltext0:
  14              	 .cfi_sections .debug_frame
  15              	 .section .bss.cpu_irq_critical_section_counter,"aw",%nobits
  16              	 .align 2
  19              	cpu_irq_critical_section_counter:
  20 0000 00000000 	 .space 4
  21              	 .section .bss.cpu_irq_prev_interrupt_state,"aw",%nobits
  24              	cpu_irq_prev_interrupt_state:
  25 0000 00       	 .space 1
  26              	 .section .text.sysclk_enable_peripheral_clock,"ax",%progbits
  27              	 .align 1
  28              	 .syntax unified
  29              	 .thumb
  30              	 .thumb_func
  31              	 .fpu softvfp
  33              	sysclk_enable_peripheral_clock:
  34              	.LFB87:
  35              	 .file 1 ".././hal/sam3u1c/inc/sam3u/sysclk.h"
   1:.././hal/sam3u1c/inc/sam3u/sysclk.h **** /**
   2:.././hal/sam3u1c/inc/sam3u/sysclk.h ****  * \file
   3:.././hal/sam3u1c/inc/sam3u/sysclk.h ****  *
   4:.././hal/sam3u1c/inc/sam3u/sysclk.h ****  * \brief Chip-specific system clock management functions.
   5:.././hal/sam3u1c/inc/sam3u/sysclk.h ****  *
   6:.././hal/sam3u1c/inc/sam3u/sysclk.h ****  * Copyright (c) 2011 - 2014 Atmel Corporation. All rights reserved.
   7:.././hal/sam3u1c/inc/sam3u/sysclk.h ****  *
   8:.././hal/sam3u1c/inc/sam3u/sysclk.h ****  * \asf_license_start
   9:.././hal/sam3u1c/inc/sam3u/sysclk.h ****  *
  10:.././hal/sam3u1c/inc/sam3u/sysclk.h ****  * \page License
  11:.././hal/sam3u1c/inc/sam3u/sysclk.h ****  *
  12:.././hal/sam3u1c/inc/sam3u/sysclk.h ****  * Redistribution and use in source and binary forms, with or without
  13:.././hal/sam3u1c/inc/sam3u/sysclk.h ****  * modification, are permitted provided that the following conditions are met:
  14:.././hal/sam3u1c/inc/sam3u/sysclk.h ****  *
  15:.././hal/sam3u1c/inc/sam3u/sysclk.h ****  * 1. Redistributions of source code must retain the above copyright notice,
  16:.././hal/sam3u1c/inc/sam3u/sysclk.h ****  *    this list of conditions and the following disclaimer.
  17:.././hal/sam3u1c/inc/sam3u/sysclk.h ****  *
  18:.././hal/sam3u1c/inc/sam3u/sysclk.h ****  * 2. Redistributions in binary form must reproduce the above copyright notice,
  19:.././hal/sam3u1c/inc/sam3u/sysclk.h ****  *    this list of conditions and the following disclaimer in the documentation
  20:.././hal/sam3u1c/inc/sam3u/sysclk.h ****  *    and/or other materials provided with the distribution.
  21:.././hal/sam3u1c/inc/sam3u/sysclk.h ****  *
  22:.././hal/sam3u1c/inc/sam3u/sysclk.h ****  * 3. The name of Atmel may not be used to endorse or promote products derived
  23:.././hal/sam3u1c/inc/sam3u/sysclk.h ****  *    from this software without specific prior written permission.
  24:.././hal/sam3u1c/inc/sam3u/sysclk.h ****  *
  25:.././hal/sam3u1c/inc/sam3u/sysclk.h ****  * 4. This software may only be redistributed and used in connection with an
  26:.././hal/sam3u1c/inc/sam3u/sysclk.h ****  *    Atmel microcontroller product.
  27:.././hal/sam3u1c/inc/sam3u/sysclk.h ****  *
  28:.././hal/sam3u1c/inc/sam3u/sysclk.h ****  * THIS SOFTWARE IS PROVIDED BY ATMEL "AS IS" AND ANY EXPRESS OR IMPLIED
  29:.././hal/sam3u1c/inc/sam3u/sysclk.h ****  * WARRANTIES, INCLUDING, BUT NOT LIMITED TO, THE IMPLIED WARRANTIES OF
  30:.././hal/sam3u1c/inc/sam3u/sysclk.h ****  * MERCHANTABILITY, FITNESS FOR A PARTICULAR PURPOSE AND NON-INFRINGEMENT ARE
  31:.././hal/sam3u1c/inc/sam3u/sysclk.h ****  * EXPRESSLY AND SPECIFICALLY DISCLAIMED. IN NO EVENT SHALL ATMEL BE LIABLE FOR
  32:.././hal/sam3u1c/inc/sam3u/sysclk.h ****  * ANY DIRECT, INDIRECT, INCIDENTAL, SPECIAL, EXEMPLARY, OR CONSEQUENTIAL
  33:.././hal/sam3u1c/inc/sam3u/sysclk.h ****  * DAMAGES (INCLUDING, BUT NOT LIMITED TO, PROCUREMENT OF SUBSTITUTE GOODS
  34:.././hal/sam3u1c/inc/sam3u/sysclk.h ****  * OR SERVICES; LOSS OF USE, DATA, OR PROFITS; OR BUSINESS INTERRUPTION)
  35:.././hal/sam3u1c/inc/sam3u/sysclk.h ****  * HOWEVER CAUSED AND ON ANY THEORY OF LIABILITY, WHETHER IN CONTRACT,
  36:.././hal/sam3u1c/inc/sam3u/sysclk.h ****  * STRICT LIABILITY, OR TORT (INCLUDING NEGLIGENCE OR OTHERWISE) ARISING IN
  37:.././hal/sam3u1c/inc/sam3u/sysclk.h ****  * ANY WAY OUT OF THE USE OF THIS SOFTWARE, EVEN IF ADVISED OF THE
  38:.././hal/sam3u1c/inc/sam3u/sysclk.h ****  * POSSIBILITY OF SUCH DAMAGE.
  39:.././hal/sam3u1c/inc/sam3u/sysclk.h ****  *
  40:.././hal/sam3u1c/inc/sam3u/sysclk.h ****  * \asf_license_stop
  41:.././hal/sam3u1c/inc/sam3u/sysclk.h ****  *
  42:.././hal/sam3u1c/inc/sam3u/sysclk.h ****  */
  43:.././hal/sam3u1c/inc/sam3u/sysclk.h **** 
  44:.././hal/sam3u1c/inc/sam3u/sysclk.h **** #ifndef CHIP_SYSCLK_H_INCLUDED
  45:.././hal/sam3u1c/inc/sam3u/sysclk.h **** #define CHIP_SYSCLK_H_INCLUDED
  46:.././hal/sam3u1c/inc/sam3u/sysclk.h **** 
  47:.././hal/sam3u1c/inc/sam3u/sysclk.h **** #include <osc.h>
  48:.././hal/sam3u1c/inc/sam3u/sysclk.h **** #include <pll.h>
  49:.././hal/sam3u1c/inc/sam3u/sysclk.h **** 
  50:.././hal/sam3u1c/inc/sam3u/sysclk.h **** /**
  51:.././hal/sam3u1c/inc/sam3u/sysclk.h ****  * \page sysclk_quickstart Quick Start Guide for the System Clock Management service (SAM3U)
  52:.././hal/sam3u1c/inc/sam3u/sysclk.h ****  *
  53:.././hal/sam3u1c/inc/sam3u/sysclk.h ****  * This is the quick start guide for the \ref sysclk_group "System Clock Management"
  54:.././hal/sam3u1c/inc/sam3u/sysclk.h ****  * service, with step-by-step instructions on how to configure and use the service for
  55:.././hal/sam3u1c/inc/sam3u/sysclk.h ****  * specific use cases.
  56:.././hal/sam3u1c/inc/sam3u/sysclk.h ****  *
  57:.././hal/sam3u1c/inc/sam3u/sysclk.h ****  * \section sysclk_quickstart_usecases System Clock Management use cases
  58:.././hal/sam3u1c/inc/sam3u/sysclk.h ****  * - \ref sysclk_quickstart_basic
  59:.././hal/sam3u1c/inc/sam3u/sysclk.h ****  *
  60:.././hal/sam3u1c/inc/sam3u/sysclk.h ****  * \section sysclk_quickstart_basic Basic usage of the System Clock Management service
  61:.././hal/sam3u1c/inc/sam3u/sysclk.h ****  * This section will present a basic use case for the System Clock Management service.
  62:.././hal/sam3u1c/inc/sam3u/sysclk.h ****  * This use case will configure the main system clock to 96MHz, using an internal PLL
  63:.././hal/sam3u1c/inc/sam3u/sysclk.h ****  * module to multiply the frequency of a crystal attached to the microcontroller.
  64:.././hal/sam3u1c/inc/sam3u/sysclk.h ****  *
  65:.././hal/sam3u1c/inc/sam3u/sysclk.h ****  * \subsection sysclk_quickstart_use_case_1_prereq Prerequisites
  66:.././hal/sam3u1c/inc/sam3u/sysclk.h ****  *  - None
  67:.././hal/sam3u1c/inc/sam3u/sysclk.h ****  *
  68:.././hal/sam3u1c/inc/sam3u/sysclk.h ****  * \subsection sysclk_quickstart_use_case_1_setup_steps Initialization code
  69:.././hal/sam3u1c/inc/sam3u/sysclk.h ****  * Add to the application initialization code:
  70:.././hal/sam3u1c/inc/sam3u/sysclk.h ****  * \code
  71:.././hal/sam3u1c/inc/sam3u/sysclk.h **** 	sysclk_init();
  72:.././hal/sam3u1c/inc/sam3u/sysclk.h **** \endcode
  73:.././hal/sam3u1c/inc/sam3u/sysclk.h ****  *
  74:.././hal/sam3u1c/inc/sam3u/sysclk.h ****  * \subsection sysclk_quickstart_use_case_1_setup_steps_workflow Workflow
  75:.././hal/sam3u1c/inc/sam3u/sysclk.h ****  * -# Configure the system clocks according to the settings in conf_clock.h:
  76:.././hal/sam3u1c/inc/sam3u/sysclk.h ****  *    \code sysclk_init(); \endcode
  77:.././hal/sam3u1c/inc/sam3u/sysclk.h ****  *
  78:.././hal/sam3u1c/inc/sam3u/sysclk.h ****  * \subsection sysclk_quickstart_use_case_1_example_code Example code
  79:.././hal/sam3u1c/inc/sam3u/sysclk.h ****  *   Add or uncomment the following in your conf_clock.h header file, commenting out all other
  80:.././hal/sam3u1c/inc/sam3u/sysclk.h ****  *   definitions of the same symbol(s):
  81:.././hal/sam3u1c/inc/sam3u/sysclk.h ****  *   \code
  82:.././hal/sam3u1c/inc/sam3u/sysclk.h **** 	   #define CONFIG_SYSCLK_SOURCE        SYSCLK_SRC_PLLACK
  83:.././hal/sam3u1c/inc/sam3u/sysclk.h **** 
  84:.././hal/sam3u1c/inc/sam3u/sysclk.h **** 	   // Fpll0 = (Fclk * PLL_mul) / PLL_div
  85:.././hal/sam3u1c/inc/sam3u/sysclk.h **** 	   #define CONFIG_PLL0_SOURCE          PLL_SRC_MAINCK_XTAL
  86:.././hal/sam3u1c/inc/sam3u/sysclk.h **** 	   #define CONFIG_PLL0_MUL             (96000000UL / BOARD_FREQ_MAINCK_XTAL)
  87:.././hal/sam3u1c/inc/sam3u/sysclk.h **** 	   #define CONFIG_PLL0_DIV             1
  88:.././hal/sam3u1c/inc/sam3u/sysclk.h **** 
  89:.././hal/sam3u1c/inc/sam3u/sysclk.h **** 	   // Fbus = Fsys / BUS_div
  90:.././hal/sam3u1c/inc/sam3u/sysclk.h **** 	   #define CONFIG_SYSCLK_PRES          SYSCLK_PRES_1
  91:.././hal/sam3u1c/inc/sam3u/sysclk.h **** \endcode
  92:.././hal/sam3u1c/inc/sam3u/sysclk.h ****  *
  93:.././hal/sam3u1c/inc/sam3u/sysclk.h ****  * \subsection sysclk_quickstart_use_case_1_example_workflow Workflow
  94:.././hal/sam3u1c/inc/sam3u/sysclk.h ****  *  -# Configure the main system clock to use the output of the PLL module as its source:
  95:.././hal/sam3u1c/inc/sam3u/sysclk.h ****  *   \code #define CONFIG_SYSCLK_SOURCE          SYSCLK_SRC_PLLACK \endcode
  96:.././hal/sam3u1c/inc/sam3u/sysclk.h ****  *  -# Configure the PLL module to use the fast external fast crystal oscillator as its source:
  97:.././hal/sam3u1c/inc/sam3u/sysclk.h ****  *   \code #define CONFIG_PLL0_SOURCE            PLL_SRC_MAINCK_XTAL \endcode
  98:.././hal/sam3u1c/inc/sam3u/sysclk.h ****  *  -# Configure the PLL module to multiply the external fast crystal oscillator frequency up to 96
  99:.././hal/sam3u1c/inc/sam3u/sysclk.h ****  *   \code
 100:.././hal/sam3u1c/inc/sam3u/sysclk.h **** 	#define CONFIG_PLL0_MUL             (96000000UL / BOARD_FREQ_MAINCK_XTAL)
 101:.././hal/sam3u1c/inc/sam3u/sysclk.h **** 	#define CONFIG_PLL0_DIV             1
 102:.././hal/sam3u1c/inc/sam3u/sysclk.h **** \endcode
 103:.././hal/sam3u1c/inc/sam3u/sysclk.h ****  *   \note For user boards, \c BOARD_FREQ_MAINCK_XTAL should be defined in the board \c conf_board.
 104:.././hal/sam3u1c/inc/sam3u/sysclk.h ****  *         file as the frequency of the fast crystal attached to the microcontroller.
 105:.././hal/sam3u1c/inc/sam3u/sysclk.h ****  *  -# Configure the main clock to run at the full 96MHz, disable scaling of the main system clock 
 106:.././hal/sam3u1c/inc/sam3u/sysclk.h ****  *    \code
 107:.././hal/sam3u1c/inc/sam3u/sysclk.h **** 	#define CONFIG_SYSCLK_PRES         SYSCLK_PRES_1
 108:.././hal/sam3u1c/inc/sam3u/sysclk.h **** \endcode
 109:.././hal/sam3u1c/inc/sam3u/sysclk.h ****  *    \note Some dividers are powers of two, while others are integer division factors. Refer to th
 110:.././hal/sam3u1c/inc/sam3u/sysclk.h ****  *          formulas in the conf_clock.h template commented above each division define.
 111:.././hal/sam3u1c/inc/sam3u/sysclk.h ****  */
 112:.././hal/sam3u1c/inc/sam3u/sysclk.h **** 
 113:.././hal/sam3u1c/inc/sam3u/sysclk.h **** /// @cond 0
 114:.././hal/sam3u1c/inc/sam3u/sysclk.h **** /**INDENT-OFF**/
 115:.././hal/sam3u1c/inc/sam3u/sysclk.h **** #ifdef __cplusplus
 116:.././hal/sam3u1c/inc/sam3u/sysclk.h **** extern "C" {
 117:.././hal/sam3u1c/inc/sam3u/sysclk.h **** #endif
 118:.././hal/sam3u1c/inc/sam3u/sysclk.h **** /**INDENT-ON**/
 119:.././hal/sam3u1c/inc/sam3u/sysclk.h **** /// @endcond
 120:.././hal/sam3u1c/inc/sam3u/sysclk.h **** 
 121:.././hal/sam3u1c/inc/sam3u/sysclk.h **** /**
 122:.././hal/sam3u1c/inc/sam3u/sysclk.h ****  * \weakgroup sysclk_group
 123:.././hal/sam3u1c/inc/sam3u/sysclk.h ****  * @{
 124:.././hal/sam3u1c/inc/sam3u/sysclk.h ****  */
 125:.././hal/sam3u1c/inc/sam3u/sysclk.h **** 
 126:.././hal/sam3u1c/inc/sam3u/sysclk.h **** //! \name Configuration Symbols
 127:.././hal/sam3u1c/inc/sam3u/sysclk.h **** //@{
 128:.././hal/sam3u1c/inc/sam3u/sysclk.h **** /**
 129:.././hal/sam3u1c/inc/sam3u/sysclk.h ****  * \def CONFIG_SYSCLK_SOURCE
 130:.././hal/sam3u1c/inc/sam3u/sysclk.h ****  * \brief Initial/static main system clock source
 131:.././hal/sam3u1c/inc/sam3u/sysclk.h ****  *
 132:.././hal/sam3u1c/inc/sam3u/sysclk.h ****  * The main system clock will be configured to use this clock during
 133:.././hal/sam3u1c/inc/sam3u/sysclk.h ****  * initialization.
 134:.././hal/sam3u1c/inc/sam3u/sysclk.h ****  */
 135:.././hal/sam3u1c/inc/sam3u/sysclk.h **** #ifndef CONFIG_SYSCLK_SOURCE
 136:.././hal/sam3u1c/inc/sam3u/sysclk.h **** # define CONFIG_SYSCLK_SOURCE   SYSCLK_SRC_MAINCK_4M_RC
 137:.././hal/sam3u1c/inc/sam3u/sysclk.h **** #endif
 138:.././hal/sam3u1c/inc/sam3u/sysclk.h **** /**
 139:.././hal/sam3u1c/inc/sam3u/sysclk.h ****  * \def CONFIG_SYSCLK_PRES
 140:.././hal/sam3u1c/inc/sam3u/sysclk.h ****  * \brief Initial CPU clock divider (mck)
 141:.././hal/sam3u1c/inc/sam3u/sysclk.h ****  *
 142:.././hal/sam3u1c/inc/sam3u/sysclk.h ****  * The MCK will run at
 143:.././hal/sam3u1c/inc/sam3u/sysclk.h ****  * \f[
 144:.././hal/sam3u1c/inc/sam3u/sysclk.h ****  *   f_{MCK} = \frac{f_{sys}}{\mathrm{CONFIG\_SYSCLK\_PRES}}\,\mbox{Hz}
 145:.././hal/sam3u1c/inc/sam3u/sysclk.h ****  * \f]
 146:.././hal/sam3u1c/inc/sam3u/sysclk.h ****  * after initialization.
 147:.././hal/sam3u1c/inc/sam3u/sysclk.h ****  */
 148:.././hal/sam3u1c/inc/sam3u/sysclk.h **** #ifndef CONFIG_SYSCLK_PRES
 149:.././hal/sam3u1c/inc/sam3u/sysclk.h **** # define CONFIG_SYSCLK_PRES  0
 150:.././hal/sam3u1c/inc/sam3u/sysclk.h **** #endif
 151:.././hal/sam3u1c/inc/sam3u/sysclk.h **** 
 152:.././hal/sam3u1c/inc/sam3u/sysclk.h **** //@}
 153:.././hal/sam3u1c/inc/sam3u/sysclk.h **** 
 154:.././hal/sam3u1c/inc/sam3u/sysclk.h **** //! \name Master Clock Sources (MCK)
 155:.././hal/sam3u1c/inc/sam3u/sysclk.h **** //@{
 156:.././hal/sam3u1c/inc/sam3u/sysclk.h **** #define SYSCLK_SRC_SLCK_RC              0       //!< Internal 32kHz RC oscillator as master source 
 157:.././hal/sam3u1c/inc/sam3u/sysclk.h **** #define SYSCLK_SRC_SLCK_XTAL            1       //!< External 32kHz crystal oscillator as master so
 158:.././hal/sam3u1c/inc/sam3u/sysclk.h **** #define SYSCLK_SRC_SLCK_BYPASS          2       //!< External 32kHz bypass oscillator as master sou
 159:.././hal/sam3u1c/inc/sam3u/sysclk.h **** #define SYSCLK_SRC_MAINCK_4M_RC         3       //!< Internal 4MHz RC oscillator as master source c
 160:.././hal/sam3u1c/inc/sam3u/sysclk.h **** #define SYSCLK_SRC_MAINCK_8M_RC         4       //!< Internal 8MHz RC oscillator as master source c
 161:.././hal/sam3u1c/inc/sam3u/sysclk.h **** #define SYSCLK_SRC_MAINCK_12M_RC        5       //!< Internal 12MHz RC oscillator as master source 
 162:.././hal/sam3u1c/inc/sam3u/sysclk.h **** #define SYSCLK_SRC_MAINCK_XTAL          6       //!< External crystal oscillator as master source c
 163:.././hal/sam3u1c/inc/sam3u/sysclk.h **** #define SYSCLK_SRC_MAINCK_BYPASS        7       //!< External bypass oscillator as master source cl
 164:.././hal/sam3u1c/inc/sam3u/sysclk.h **** #define SYSCLK_SRC_PLLACK               8       //!< Use PLLACK as master source clock
 165:.././hal/sam3u1c/inc/sam3u/sysclk.h **** #define SYSCLK_SRC_UPLLCK               9       //!< Use UPLLCK as master source clock
 166:.././hal/sam3u1c/inc/sam3u/sysclk.h **** //@}
 167:.././hal/sam3u1c/inc/sam3u/sysclk.h **** 
 168:.././hal/sam3u1c/inc/sam3u/sysclk.h **** //! \name Master Clock Prescalers (MCK)
 169:.././hal/sam3u1c/inc/sam3u/sysclk.h **** //@{
 170:.././hal/sam3u1c/inc/sam3u/sysclk.h **** #define SYSCLK_PRES_1           PMC_MCKR_PRES_CLK_1     //!< Set master clock prescaler to 1
 171:.././hal/sam3u1c/inc/sam3u/sysclk.h **** #define SYSCLK_PRES_2           PMC_MCKR_PRES_CLK_2     //!< Set master clock prescaler to 2
 172:.././hal/sam3u1c/inc/sam3u/sysclk.h **** #define SYSCLK_PRES_4           PMC_MCKR_PRES_CLK_4     //!< Set master clock prescaler to 4
 173:.././hal/sam3u1c/inc/sam3u/sysclk.h **** #define SYSCLK_PRES_8           PMC_MCKR_PRES_CLK_8     //!< Set master clock prescaler to 8
 174:.././hal/sam3u1c/inc/sam3u/sysclk.h **** #define SYSCLK_PRES_16          PMC_MCKR_PRES_CLK_16    //!< Set master clock prescaler to 16
 175:.././hal/sam3u1c/inc/sam3u/sysclk.h **** #define SYSCLK_PRES_32          PMC_MCKR_PRES_CLK_32    //!< Set master clock prescaler to 32
 176:.././hal/sam3u1c/inc/sam3u/sysclk.h **** #define SYSCLK_PRES_64          PMC_MCKR_PRES_CLK_64    //!< Set master clock prescaler to 64
 177:.././hal/sam3u1c/inc/sam3u/sysclk.h **** #define SYSCLK_PRES_3           PMC_MCKR_PRES_CLK_3     //!< Set master clock prescaler to 3
 178:.././hal/sam3u1c/inc/sam3u/sysclk.h **** //@}
 179:.././hal/sam3u1c/inc/sam3u/sysclk.h **** 
 180:.././hal/sam3u1c/inc/sam3u/sysclk.h **** /**
 181:.././hal/sam3u1c/inc/sam3u/sysclk.h ****  * \def CONFIG_USBCLK_SOURCE
 182:.././hal/sam3u1c/inc/sam3u/sysclk.h ****  * \brief Configuration symbol for the USB generic clock source
 183:.././hal/sam3u1c/inc/sam3u/sysclk.h ****  *
 184:.././hal/sam3u1c/inc/sam3u/sysclk.h ****  * Sets the clock source to use for the USB. The source must also be properly
 185:.././hal/sam3u1c/inc/sam3u/sysclk.h ****  * configured.
 186:.././hal/sam3u1c/inc/sam3u/sysclk.h ****  *
 187:.././hal/sam3u1c/inc/sam3u/sysclk.h ****  * Define this to one of the \c USBCLK_SRC_xxx settings. Leave it undefined if
 188:.././hal/sam3u1c/inc/sam3u/sysclk.h ****  * USB is not required.
 189:.././hal/sam3u1c/inc/sam3u/sysclk.h ****  */
 190:.././hal/sam3u1c/inc/sam3u/sysclk.h **** #ifdef __DOXYGEN__
 191:.././hal/sam3u1c/inc/sam3u/sysclk.h **** # define CONFIG_USBCLK_SOURCE
 192:.././hal/sam3u1c/inc/sam3u/sysclk.h **** #endif
 193:.././hal/sam3u1c/inc/sam3u/sysclk.h **** 
 194:.././hal/sam3u1c/inc/sam3u/sysclk.h **** /**
 195:.././hal/sam3u1c/inc/sam3u/sysclk.h ****  * \def CONFIG_USBCLK_DIV
 196:.././hal/sam3u1c/inc/sam3u/sysclk.h ****  * \brief Configuration symbol for the USB generic clock divider setting
 197:.././hal/sam3u1c/inc/sam3u/sysclk.h ****  *
 198:.././hal/sam3u1c/inc/sam3u/sysclk.h ****  * Sets the clock division for the USB generic clock. If a USB clock source is
 199:.././hal/sam3u1c/inc/sam3u/sysclk.h ****  * selected with CONFIG_USBCLK_SOURCE, this configuration symbol must also be
 200:.././hal/sam3u1c/inc/sam3u/sysclk.h ****  * defined.
 201:.././hal/sam3u1c/inc/sam3u/sysclk.h ****  */
 202:.././hal/sam3u1c/inc/sam3u/sysclk.h **** #ifdef __DOXYGEN__
 203:.././hal/sam3u1c/inc/sam3u/sysclk.h **** # define CONFIG_USBCLK_DIV
 204:.././hal/sam3u1c/inc/sam3u/sysclk.h **** #endif
 205:.././hal/sam3u1c/inc/sam3u/sysclk.h **** 
 206:.././hal/sam3u1c/inc/sam3u/sysclk.h **** /**
 207:.././hal/sam3u1c/inc/sam3u/sysclk.h ****  * \name Querying the system clock
 208:.././hal/sam3u1c/inc/sam3u/sysclk.h ****  *
 209:.././hal/sam3u1c/inc/sam3u/sysclk.h ****  * The following functions may be used to query the current frequency of
 210:.././hal/sam3u1c/inc/sam3u/sysclk.h ****  * the system clock and the CPU and bus clocks derived from it.
 211:.././hal/sam3u1c/inc/sam3u/sysclk.h ****  * sysclk_get_main_hz() and sysclk_get_cpu_hz() can be assumed to be
 212:.././hal/sam3u1c/inc/sam3u/sysclk.h ****  * available on all platforms, although some platforms may define
 213:.././hal/sam3u1c/inc/sam3u/sysclk.h ****  * additional accessors for various chip-internal bus clocks. These are
 214:.././hal/sam3u1c/inc/sam3u/sysclk.h ****  * usually not intended to be queried directly by generic code.
 215:.././hal/sam3u1c/inc/sam3u/sysclk.h ****  */
 216:.././hal/sam3u1c/inc/sam3u/sysclk.h **** //@{
 217:.././hal/sam3u1c/inc/sam3u/sysclk.h **** 
 218:.././hal/sam3u1c/inc/sam3u/sysclk.h **** /**
 219:.././hal/sam3u1c/inc/sam3u/sysclk.h ****  * \brief Return the current rate in Hz of the main system clock
 220:.././hal/sam3u1c/inc/sam3u/sysclk.h ****  *
 221:.././hal/sam3u1c/inc/sam3u/sysclk.h ****  * \todo This function assumes that the main clock source never changes
 222:.././hal/sam3u1c/inc/sam3u/sysclk.h ****  * once it's been set up, and that PLL0 always runs at the compile-time
 223:.././hal/sam3u1c/inc/sam3u/sysclk.h ****  * configured default rate. While this is probably the most common
 224:.././hal/sam3u1c/inc/sam3u/sysclk.h ****  * configuration, which we want to support as a special case for
 225:.././hal/sam3u1c/inc/sam3u/sysclk.h ****  * performance reasons, we will at some point need to support more
 226:.././hal/sam3u1c/inc/sam3u/sysclk.h ****  * dynamic setups as well.
 227:.././hal/sam3u1c/inc/sam3u/sysclk.h ****  */
 228:.././hal/sam3u1c/inc/sam3u/sysclk.h **** #if (defined CONFIG_SYSCLK_DEFAULT_RETURNS_SLOW_OSC)
 229:.././hal/sam3u1c/inc/sam3u/sysclk.h **** extern uint32_t sysclk_initialized;
 230:.././hal/sam3u1c/inc/sam3u/sysclk.h **** #endif
 231:.././hal/sam3u1c/inc/sam3u/sysclk.h **** static inline uint32_t sysclk_get_main_hz(void)
 232:.././hal/sam3u1c/inc/sam3u/sysclk.h **** {
 233:.././hal/sam3u1c/inc/sam3u/sysclk.h **** #if (defined CONFIG_SYSCLK_DEFAULT_RETURNS_SLOW_OSC)
 234:.././hal/sam3u1c/inc/sam3u/sysclk.h **** 	if (!sysclk_initialized ) {
 235:.././hal/sam3u1c/inc/sam3u/sysclk.h **** 		return OSC_MAINCK_4M_RC_HZ;
 236:.././hal/sam3u1c/inc/sam3u/sysclk.h **** 	}
 237:.././hal/sam3u1c/inc/sam3u/sysclk.h **** #endif
 238:.././hal/sam3u1c/inc/sam3u/sysclk.h **** 
 239:.././hal/sam3u1c/inc/sam3u/sysclk.h **** 	/* Config system clock setting */
 240:.././hal/sam3u1c/inc/sam3u/sysclk.h **** 	if (CONFIG_SYSCLK_SOURCE == SYSCLK_SRC_SLCK_RC) {
 241:.././hal/sam3u1c/inc/sam3u/sysclk.h **** 		return OSC_SLCK_32K_RC_HZ;
 242:.././hal/sam3u1c/inc/sam3u/sysclk.h **** 	} else if (CONFIG_SYSCLK_SOURCE == SYSCLK_SRC_SLCK_XTAL) {
 243:.././hal/sam3u1c/inc/sam3u/sysclk.h **** 		return OSC_SLCK_32K_XTAL_HZ;
 244:.././hal/sam3u1c/inc/sam3u/sysclk.h **** 	} else if (CONFIG_SYSCLK_SOURCE == SYSCLK_SRC_SLCK_BYPASS) {
 245:.././hal/sam3u1c/inc/sam3u/sysclk.h **** 		return OSC_SLCK_32K_BYPASS_HZ;
 246:.././hal/sam3u1c/inc/sam3u/sysclk.h **** 	} else if (CONFIG_SYSCLK_SOURCE == SYSCLK_SRC_MAINCK_4M_RC) {
 247:.././hal/sam3u1c/inc/sam3u/sysclk.h **** 		return OSC_MAINCK_4M_RC_HZ;
 248:.././hal/sam3u1c/inc/sam3u/sysclk.h **** 	} else if (CONFIG_SYSCLK_SOURCE == SYSCLK_SRC_MAINCK_8M_RC) {
 249:.././hal/sam3u1c/inc/sam3u/sysclk.h **** 		return OSC_MAINCK_8M_RC_HZ;
 250:.././hal/sam3u1c/inc/sam3u/sysclk.h **** 	} else if (CONFIG_SYSCLK_SOURCE == SYSCLK_SRC_MAINCK_12M_RC) {
 251:.././hal/sam3u1c/inc/sam3u/sysclk.h **** 		return OSC_MAINCK_12M_RC_HZ;
 252:.././hal/sam3u1c/inc/sam3u/sysclk.h **** 	} else if (CONFIG_SYSCLK_SOURCE == SYSCLK_SRC_MAINCK_XTAL) {
 253:.././hal/sam3u1c/inc/sam3u/sysclk.h **** 		return OSC_MAINCK_XTAL_HZ;
 254:.././hal/sam3u1c/inc/sam3u/sysclk.h **** 	} else if (CONFIG_SYSCLK_SOURCE == SYSCLK_SRC_MAINCK_BYPASS) {
 255:.././hal/sam3u1c/inc/sam3u/sysclk.h **** 		return OSC_MAINCK_BYPASS_HZ;
 256:.././hal/sam3u1c/inc/sam3u/sysclk.h **** 	}
 257:.././hal/sam3u1c/inc/sam3u/sysclk.h **** #ifdef CONFIG_PLL0_SOURCE
 258:.././hal/sam3u1c/inc/sam3u/sysclk.h **** 	else if (CONFIG_SYSCLK_SOURCE == SYSCLK_SRC_PLLACK) {
 259:.././hal/sam3u1c/inc/sam3u/sysclk.h **** 		return pll_get_default_rate(0);
 260:.././hal/sam3u1c/inc/sam3u/sysclk.h **** 	}
 261:.././hal/sam3u1c/inc/sam3u/sysclk.h **** #endif
 262:.././hal/sam3u1c/inc/sam3u/sysclk.h **** 
 263:.././hal/sam3u1c/inc/sam3u/sysclk.h **** #ifdef CONFIG_PLL1_SOURCE
 264:.././hal/sam3u1c/inc/sam3u/sysclk.h **** 	else if (CONFIG_SYSCLK_SOURCE == SYSCLK_SRC_UPLLCK) {
 265:.././hal/sam3u1c/inc/sam3u/sysclk.h **** 		return PLL_UPLL_HZ;
 266:.././hal/sam3u1c/inc/sam3u/sysclk.h **** 	}
 267:.././hal/sam3u1c/inc/sam3u/sysclk.h **** #endif
 268:.././hal/sam3u1c/inc/sam3u/sysclk.h **** 	else {
 269:.././hal/sam3u1c/inc/sam3u/sysclk.h **** 		/* unhandled_case(CONFIG_SYSCLK_SOURCE); */
 270:.././hal/sam3u1c/inc/sam3u/sysclk.h **** 		return 0;
 271:.././hal/sam3u1c/inc/sam3u/sysclk.h **** 	}
 272:.././hal/sam3u1c/inc/sam3u/sysclk.h **** }
 273:.././hal/sam3u1c/inc/sam3u/sysclk.h **** 
 274:.././hal/sam3u1c/inc/sam3u/sysclk.h **** /**
 275:.././hal/sam3u1c/inc/sam3u/sysclk.h ****  * \brief Return the current rate in Hz of the CPU clock
 276:.././hal/sam3u1c/inc/sam3u/sysclk.h ****  *
 277:.././hal/sam3u1c/inc/sam3u/sysclk.h ****  * \todo This function assumes that the CPU always runs at the system
 278:.././hal/sam3u1c/inc/sam3u/sysclk.h ****  * clock frequency. We want to support at least two more scenarios:
 279:.././hal/sam3u1c/inc/sam3u/sysclk.h ****  * Fixed CPU/bus clock dividers (config symbols) and dynamic CPU/bus
 280:.././hal/sam3u1c/inc/sam3u/sysclk.h ****  * clock dividers (which may change at run time). Ditto for all the bus
 281:.././hal/sam3u1c/inc/sam3u/sysclk.h ****  * clocks.
 282:.././hal/sam3u1c/inc/sam3u/sysclk.h ****  *
 283:.././hal/sam3u1c/inc/sam3u/sysclk.h ****  * \return Frequency of the CPU clock, in Hz.
 284:.././hal/sam3u1c/inc/sam3u/sysclk.h ****  */
 285:.././hal/sam3u1c/inc/sam3u/sysclk.h **** static inline uint32_t sysclk_get_cpu_hz(void)
 286:.././hal/sam3u1c/inc/sam3u/sysclk.h **** {
 287:.././hal/sam3u1c/inc/sam3u/sysclk.h **** 	/* CONFIG_SYSCLK_PRES is the register value for setting the expected */
 288:.././hal/sam3u1c/inc/sam3u/sysclk.h **** 	/* prescaler, not an immediate value. */
 289:.././hal/sam3u1c/inc/sam3u/sysclk.h **** 	return sysclk_get_main_hz() /
 290:.././hal/sam3u1c/inc/sam3u/sysclk.h **** 		((CONFIG_SYSCLK_PRES == SYSCLK_PRES_3) ? 3 :
 291:.././hal/sam3u1c/inc/sam3u/sysclk.h **** 			(1 << (CONFIG_SYSCLK_PRES >> PMC_MCKR_PRES_Pos)));
 292:.././hal/sam3u1c/inc/sam3u/sysclk.h **** }
 293:.././hal/sam3u1c/inc/sam3u/sysclk.h **** 
 294:.././hal/sam3u1c/inc/sam3u/sysclk.h **** /**
 295:.././hal/sam3u1c/inc/sam3u/sysclk.h ****  * \brief Retrieves the current rate in Hz of the peripheral clocks.
 296:.././hal/sam3u1c/inc/sam3u/sysclk.h ****  *
 297:.././hal/sam3u1c/inc/sam3u/sysclk.h ****  * \return Frequency of the peripheral clocks, in Hz.
 298:.././hal/sam3u1c/inc/sam3u/sysclk.h ****  */
 299:.././hal/sam3u1c/inc/sam3u/sysclk.h **** static inline uint32_t sysclk_get_peripheral_hz(void)
 300:.././hal/sam3u1c/inc/sam3u/sysclk.h **** {
 301:.././hal/sam3u1c/inc/sam3u/sysclk.h **** 	/* CONFIG_SYSCLK_PRES is the register value for setting the expected */
 302:.././hal/sam3u1c/inc/sam3u/sysclk.h **** 	/* prescaler, not an immediate value. */
 303:.././hal/sam3u1c/inc/sam3u/sysclk.h **** 	return sysclk_get_main_hz() /
 304:.././hal/sam3u1c/inc/sam3u/sysclk.h **** 		((CONFIG_SYSCLK_PRES == SYSCLK_PRES_3) ? 3 :
 305:.././hal/sam3u1c/inc/sam3u/sysclk.h **** 			(1 << (CONFIG_SYSCLK_PRES >> PMC_MCKR_PRES_Pos)));
 306:.././hal/sam3u1c/inc/sam3u/sysclk.h **** }
 307:.././hal/sam3u1c/inc/sam3u/sysclk.h **** 
 308:.././hal/sam3u1c/inc/sam3u/sysclk.h **** /**
 309:.././hal/sam3u1c/inc/sam3u/sysclk.h ****  * \brief Retrieves the current rate in Hz of the Peripheral Bus clock attached
 310:.././hal/sam3u1c/inc/sam3u/sysclk.h ****  *        to the specified peripheral.
 311:.././hal/sam3u1c/inc/sam3u/sysclk.h ****  *
 312:.././hal/sam3u1c/inc/sam3u/sysclk.h ****  * \param module Pointer to the module's base address.
 313:.././hal/sam3u1c/inc/sam3u/sysclk.h ****  *
 314:.././hal/sam3u1c/inc/sam3u/sysclk.h ****  * \return Frequency of the bus attached to the specified peripheral, in Hz.
 315:.././hal/sam3u1c/inc/sam3u/sysclk.h ****  */
 316:.././hal/sam3u1c/inc/sam3u/sysclk.h **** static inline uint32_t sysclk_get_peripheral_bus_hz(const volatile void *module)
 317:.././hal/sam3u1c/inc/sam3u/sysclk.h **** {
 318:.././hal/sam3u1c/inc/sam3u/sysclk.h **** 	UNUSED(module);
 319:.././hal/sam3u1c/inc/sam3u/sysclk.h **** 	return sysclk_get_peripheral_hz();
 320:.././hal/sam3u1c/inc/sam3u/sysclk.h **** }
 321:.././hal/sam3u1c/inc/sam3u/sysclk.h **** //@}
 322:.././hal/sam3u1c/inc/sam3u/sysclk.h **** 
 323:.././hal/sam3u1c/inc/sam3u/sysclk.h **** //! \name Enabling and disabling synchronous clocks
 324:.././hal/sam3u1c/inc/sam3u/sysclk.h **** //@{
 325:.././hal/sam3u1c/inc/sam3u/sysclk.h **** 
 326:.././hal/sam3u1c/inc/sam3u/sysclk.h **** /**
 327:.././hal/sam3u1c/inc/sam3u/sysclk.h ****  * \brief Enable a peripheral's clock.
 328:.././hal/sam3u1c/inc/sam3u/sysclk.h ****  *
 329:.././hal/sam3u1c/inc/sam3u/sysclk.h ****  * \param ul_id Id (number) of the peripheral clock.
 330:.././hal/sam3u1c/inc/sam3u/sysclk.h ****  */
 331:.././hal/sam3u1c/inc/sam3u/sysclk.h **** static inline void sysclk_enable_peripheral_clock(uint32_t ul_id)
 332:.././hal/sam3u1c/inc/sam3u/sysclk.h **** {
  36              	 .loc 1 332 0
  37              	 .cfi_startproc
  38              	 
  39              	 
  40 0000 80B5     	 push {r7,lr}
  41              	.LCFI0:
  42              	 .cfi_def_cfa_offset 8
  43              	 .cfi_offset 7,-8
  44              	 .cfi_offset 14,-4
  45 0002 82B0     	 sub sp,sp,#8
  46              	.LCFI1:
  47              	 .cfi_def_cfa_offset 16
  48 0004 00AF     	 add r7,sp,#0
  49              	.LCFI2:
  50              	 .cfi_def_cfa_register 7
  51 0006 7860     	 str r0,[r7,#4]
 333:.././hal/sam3u1c/inc/sam3u/sysclk.h **** 	pmc_enable_periph_clk(ul_id);
  52              	 .loc 1 333 0
  53 0008 7868     	 ldr r0,[r7,#4]
  54 000a 034B     	 ldr r3,.L2
  55 000c 9847     	 blx r3
  56              	.LVL0:
 334:.././hal/sam3u1c/inc/sam3u/sysclk.h **** }
  57              	 .loc 1 334 0
  58 000e 00BF     	 nop
  59 0010 0837     	 adds r7,r7,#8
  60              	.LCFI3:
  61              	 .cfi_def_cfa_offset 8
  62 0012 BD46     	 mov sp,r7
  63              	.LCFI4:
  64              	 .cfi_def_cfa_register 13
  65              	 
  66 0014 80BD     	 pop {r7,pc}
  67              	.L3:
  68 0016 00BF     	 .align 2
  69              	.L2:
  70 0018 00000000 	 .word pmc_enable_periph_clk
  71              	 .cfi_endproc
  72              	.LFE87:
  74              	 .section .text.ioport_init,"ax",%progbits
  75              	 .align 1
  76              	 .syntax unified
  77              	 .thumb
  78              	 .thumb_func
  79              	 .fpu softvfp
  81              	ioport_init:
  82              	.LFB110:
  83              	 .file 2 ".././hal/sam3u1c/inc/ioport.h"
   1:.././hal/sam3u1c/inc/ioport.h **** /**
   2:.././hal/sam3u1c/inc/ioport.h ****  * \file
   3:.././hal/sam3u1c/inc/ioport.h ****  *
   4:.././hal/sam3u1c/inc/ioport.h ****  * \brief Common IOPORT service main header file for AVR, UC3 and ARM
   5:.././hal/sam3u1c/inc/ioport.h ****  *        architectures.
   6:.././hal/sam3u1c/inc/ioport.h ****  *
   7:.././hal/sam3u1c/inc/ioport.h ****  * Copyright (c) 2012-2014 Atmel Corporation. All rights reserved.
   8:.././hal/sam3u1c/inc/ioport.h ****  *
   9:.././hal/sam3u1c/inc/ioport.h ****  * \asf_license_start
  10:.././hal/sam3u1c/inc/ioport.h ****  *
  11:.././hal/sam3u1c/inc/ioport.h ****  * \page License
  12:.././hal/sam3u1c/inc/ioport.h ****  *
  13:.././hal/sam3u1c/inc/ioport.h ****  * Redistribution and use in source and binary forms, with or without
  14:.././hal/sam3u1c/inc/ioport.h ****  * modification, are permitted provided that the following conditions are met:
  15:.././hal/sam3u1c/inc/ioport.h ****  *
  16:.././hal/sam3u1c/inc/ioport.h ****  * 1. Redistributions of source code must retain the above copyright notice,
  17:.././hal/sam3u1c/inc/ioport.h ****  *    this list of conditions and the following disclaimer.
  18:.././hal/sam3u1c/inc/ioport.h ****  *
  19:.././hal/sam3u1c/inc/ioport.h ****  * 2. Redistributions in binary form must reproduce the above copyright notice,
  20:.././hal/sam3u1c/inc/ioport.h ****  *    this list of conditions and the following disclaimer in the documentation
  21:.././hal/sam3u1c/inc/ioport.h ****  *    and/or other materials provided with the distribution.
  22:.././hal/sam3u1c/inc/ioport.h ****  *
  23:.././hal/sam3u1c/inc/ioport.h ****  * 3. The name of Atmel may not be used to endorse or promote products derived
  24:.././hal/sam3u1c/inc/ioport.h ****  *    from this software without specific prior written permission.
  25:.././hal/sam3u1c/inc/ioport.h ****  *
  26:.././hal/sam3u1c/inc/ioport.h ****  * 4. This software may only be redistributed and used in connection with an
  27:.././hal/sam3u1c/inc/ioport.h ****  *    Atmel microcontroller product.
  28:.././hal/sam3u1c/inc/ioport.h ****  *
  29:.././hal/sam3u1c/inc/ioport.h ****  * THIS SOFTWARE IS PROVIDED BY ATMEL "AS IS" AND ANY EXPRESS OR IMPLIED
  30:.././hal/sam3u1c/inc/ioport.h ****  * WARRANTIES, INCLUDING, BUT NOT LIMITED TO, THE IMPLIED WARRANTIES OF
  31:.././hal/sam3u1c/inc/ioport.h ****  * MERCHANTABILITY, FITNESS FOR A PARTICULAR PURPOSE AND NON-INFRINGEMENT ARE
  32:.././hal/sam3u1c/inc/ioport.h ****  * EXPRESSLY AND SPECIFICALLY DISCLAIMED. IN NO EVENT SHALL ATMEL BE LIABLE FOR
  33:.././hal/sam3u1c/inc/ioport.h ****  * ANY DIRECT, INDIRECT, INCIDENTAL, SPECIAL, EXEMPLARY, OR CONSEQUENTIAL
  34:.././hal/sam3u1c/inc/ioport.h ****  * DAMAGES (INCLUDING, BUT NOT LIMITED TO, PROCUREMENT OF SUBSTITUTE GOODS
  35:.././hal/sam3u1c/inc/ioport.h ****  * OR SERVICES; LOSS OF USE, DATA, OR PROFITS; OR BUSINESS INTERRUPTION)
  36:.././hal/sam3u1c/inc/ioport.h ****  * HOWEVER CAUSED AND ON ANY THEORY OF LIABILITY, WHETHER IN CONTRACT,
  37:.././hal/sam3u1c/inc/ioport.h ****  * STRICT LIABILITY, OR TORT (INCLUDING NEGLIGENCE OR OTHERWISE) ARISING IN
  38:.././hal/sam3u1c/inc/ioport.h ****  * ANY WAY OUT OF THE USE OF THIS SOFTWARE, EVEN IF ADVISED OF THE
  39:.././hal/sam3u1c/inc/ioport.h ****  * POSSIBILITY OF SUCH DAMAGE.
  40:.././hal/sam3u1c/inc/ioport.h ****  *
  41:.././hal/sam3u1c/inc/ioport.h ****  * \asf_license_stop
  42:.././hal/sam3u1c/inc/ioport.h ****  *
  43:.././hal/sam3u1c/inc/ioport.h ****  */
  44:.././hal/sam3u1c/inc/ioport.h **** #ifndef IOPORT_H
  45:.././hal/sam3u1c/inc/ioport.h **** #define IOPORT_H
  46:.././hal/sam3u1c/inc/ioport.h **** 
  47:.././hal/sam3u1c/inc/ioport.h **** #ifdef __cplusplus
  48:.././hal/sam3u1c/inc/ioport.h **** extern "C" {
  49:.././hal/sam3u1c/inc/ioport.h **** #endif
  50:.././hal/sam3u1c/inc/ioport.h **** 
  51:.././hal/sam3u1c/inc/ioport.h **** #include <parts.h>
  52:.././hal/sam3u1c/inc/ioport.h **** #include <compiler.h>
  53:.././hal/sam3u1c/inc/ioport.h **** 
  54:.././hal/sam3u1c/inc/ioport.h **** /**
  55:.././hal/sam3u1c/inc/ioport.h ****  * \defgroup ioport_group Common IOPORT API
  56:.././hal/sam3u1c/inc/ioport.h ****  *
  57:.././hal/sam3u1c/inc/ioport.h ****  * See \ref ioport_quickstart.
  58:.././hal/sam3u1c/inc/ioport.h ****  *
  59:.././hal/sam3u1c/inc/ioport.h ****  * This is common IOPORT service for GPIO pin configuration and control in a
  60:.././hal/sam3u1c/inc/ioport.h ****  * standardized manner across the MEGA, MEGA_RF, XMEGA, UC3 and ARM devices.
  61:.././hal/sam3u1c/inc/ioport.h ****  *
  62:.././hal/sam3u1c/inc/ioport.h ****  * Port pin control code is optimized for each platform, and should produce
  63:.././hal/sam3u1c/inc/ioport.h ****  * both compact and fast execution times when used with constant values.
  64:.././hal/sam3u1c/inc/ioport.h ****  *
  65:.././hal/sam3u1c/inc/ioport.h ****  * \section dependencies Dependencies
  66:.././hal/sam3u1c/inc/ioport.h ****  * This driver depends on the following modules:
  67:.././hal/sam3u1c/inc/ioport.h ****  * - \ref sysclk_group for clock speed and functions.
  68:.././hal/sam3u1c/inc/ioport.h ****  * @{
  69:.././hal/sam3u1c/inc/ioport.h ****  */
  70:.././hal/sam3u1c/inc/ioport.h **** 
  71:.././hal/sam3u1c/inc/ioport.h **** /**
  72:.././hal/sam3u1c/inc/ioport.h ****  * \def IOPORT_CREATE_PIN(port, pin)
  73:.././hal/sam3u1c/inc/ioport.h ****  * \brief Create IOPORT pin number
  74:.././hal/sam3u1c/inc/ioport.h ****  *
  75:.././hal/sam3u1c/inc/ioport.h ****  * Create a IOPORT pin number for use with the IOPORT functions.
  76:.././hal/sam3u1c/inc/ioport.h ****  *
  77:.././hal/sam3u1c/inc/ioport.h ****  * \param port IOPORT port (e.g. PORTA, PA or PIOA depending on chosen
  78:.././hal/sam3u1c/inc/ioport.h ****  *             architecture)
  79:.././hal/sam3u1c/inc/ioport.h ****  * \param pin IOPORT zero-based index of the I/O pin
  80:.././hal/sam3u1c/inc/ioport.h ****  */
  81:.././hal/sam3u1c/inc/ioport.h **** 
  82:.././hal/sam3u1c/inc/ioport.h **** /** \brief IOPORT pin directions */
  83:.././hal/sam3u1c/inc/ioport.h **** enum ioport_direction {
  84:.././hal/sam3u1c/inc/ioport.h **** 	IOPORT_DIR_INPUT,  /*!< IOPORT input direction */
  85:.././hal/sam3u1c/inc/ioport.h **** 	IOPORT_DIR_OUTPUT, /*!< IOPORT output direction */
  86:.././hal/sam3u1c/inc/ioport.h **** };
  87:.././hal/sam3u1c/inc/ioport.h **** 
  88:.././hal/sam3u1c/inc/ioport.h **** /** \brief IOPORT levels */
  89:.././hal/sam3u1c/inc/ioport.h **** enum ioport_value {
  90:.././hal/sam3u1c/inc/ioport.h **** 	IOPORT_PIN_LEVEL_LOW,  /*!< IOPORT pin value low */
  91:.././hal/sam3u1c/inc/ioport.h **** 	IOPORT_PIN_LEVEL_HIGH, /*!< IOPORT pin value high */
  92:.././hal/sam3u1c/inc/ioport.h **** };
  93:.././hal/sam3u1c/inc/ioport.h **** 
  94:.././hal/sam3u1c/inc/ioport.h **** #if MEGA_RF
  95:.././hal/sam3u1c/inc/ioport.h **** /** \brief IOPORT edge sense modes */
  96:.././hal/sam3u1c/inc/ioport.h **** enum ioport_sense {
  97:.././hal/sam3u1c/inc/ioport.h **** 	IOPORT_SENSE_LEVEL,     /*!< IOPORT sense low level  */
  98:.././hal/sam3u1c/inc/ioport.h **** 	IOPORT_SENSE_BOTHEDGES, /*!< IOPORT sense both rising and falling edges */
  99:.././hal/sam3u1c/inc/ioport.h **** 	IOPORT_SENSE_FALLING,   /*!< IOPORT sense falling edges */
 100:.././hal/sam3u1c/inc/ioport.h **** 	IOPORT_SENSE_RISING,    /*!< IOPORT sense rising edges */
 101:.././hal/sam3u1c/inc/ioport.h **** };
 102:.././hal/sam3u1c/inc/ioport.h **** #elif SAM && !SAM4L
 103:.././hal/sam3u1c/inc/ioport.h **** /** \brief IOPORT edge sense modes */
 104:.././hal/sam3u1c/inc/ioport.h **** enum ioport_sense {
 105:.././hal/sam3u1c/inc/ioport.h **** 	IOPORT_SENSE_BOTHEDGES, /*!< IOPORT sense both rising and falling edges */
 106:.././hal/sam3u1c/inc/ioport.h **** 	IOPORT_SENSE_FALLING,   /*!< IOPORT sense falling edges */
 107:.././hal/sam3u1c/inc/ioport.h **** 	IOPORT_SENSE_RISING,    /*!< IOPORT sense rising edges */
 108:.././hal/sam3u1c/inc/ioport.h **** 	IOPORT_SENSE_LEVEL_LOW, /*!< IOPORT sense low level  */
 109:.././hal/sam3u1c/inc/ioport.h **** 	IOPORT_SENSE_LEVEL_HIGH,/*!< IOPORT sense High level  */
 110:.././hal/sam3u1c/inc/ioport.h **** };
 111:.././hal/sam3u1c/inc/ioport.h **** #else
 112:.././hal/sam3u1c/inc/ioport.h **** enum ioport_sense {
 113:.././hal/sam3u1c/inc/ioport.h **** 	IOPORT_SENSE_BOTHEDGES, /*!< IOPORT sense both rising and falling edges */
 114:.././hal/sam3u1c/inc/ioport.h **** 	IOPORT_SENSE_RISING,    /*!< IOPORT sense rising edges */
 115:.././hal/sam3u1c/inc/ioport.h **** 	IOPORT_SENSE_FALLING,   /*!< IOPORT sense falling edges */
 116:.././hal/sam3u1c/inc/ioport.h **** };
 117:.././hal/sam3u1c/inc/ioport.h **** #endif
 118:.././hal/sam3u1c/inc/ioport.h **** 
 119:.././hal/sam3u1c/inc/ioport.h **** 
 120:.././hal/sam3u1c/inc/ioport.h **** #if XMEGA
 121:.././hal/sam3u1c/inc/ioport.h **** # include "xmega/ioport.h"
 122:.././hal/sam3u1c/inc/ioport.h **** # if defined(IOPORT_XMEGA_COMPAT)
 123:.././hal/sam3u1c/inc/ioport.h **** #  include "xmega/ioport_compat.h"
 124:.././hal/sam3u1c/inc/ioport.h **** # endif
 125:.././hal/sam3u1c/inc/ioport.h **** #elif MEGA
 126:.././hal/sam3u1c/inc/ioport.h **** #  include "mega/ioport.h"
 127:.././hal/sam3u1c/inc/ioport.h **** #elif UC3
 128:.././hal/sam3u1c/inc/ioport.h **** # include "uc3/ioport.h"
 129:.././hal/sam3u1c/inc/ioport.h **** #elif SAM
 130:.././hal/sam3u1c/inc/ioport.h **** # if SAM4L
 131:.././hal/sam3u1c/inc/ioport.h **** #  include "sam/ioport_gpio.h"
 132:.././hal/sam3u1c/inc/ioport.h **** # elif (SAMD20 | SAMD21)
 133:.././hal/sam3u1c/inc/ioport.h **** #  include "sam0/ioport.h"
 134:.././hal/sam3u1c/inc/ioport.h **** # else
 135:.././hal/sam3u1c/inc/ioport.h **** #  include "sam/ioport_pio.h"
 136:.././hal/sam3u1c/inc/ioport.h **** # endif
 137:.././hal/sam3u1c/inc/ioport.h **** #endif
 138:.././hal/sam3u1c/inc/ioport.h **** 
 139:.././hal/sam3u1c/inc/ioport.h **** /**
 140:.././hal/sam3u1c/inc/ioport.h ****  * \brief Initializes the IOPORT service, ready for use.
 141:.././hal/sam3u1c/inc/ioport.h ****  *
 142:.././hal/sam3u1c/inc/ioport.h ****  * This function must be called before using any other functions in the IOPORT
 143:.././hal/sam3u1c/inc/ioport.h ****  * service.
 144:.././hal/sam3u1c/inc/ioport.h ****  */
 145:.././hal/sam3u1c/inc/ioport.h **** static inline void ioport_init(void)
 146:.././hal/sam3u1c/inc/ioport.h **** {
  84              	 .loc 2 146 0
  85              	 .cfi_startproc
  86              	 
  87              	 
  88 0000 80B5     	 push {r7,lr}
  89              	.LCFI5:
  90              	 .cfi_def_cfa_offset 8
  91              	 .cfi_offset 7,-8
  92              	 .cfi_offset 14,-4
  93 0002 00AF     	 add r7,sp,#0
  94              	.LCFI6:
  95              	 .cfi_def_cfa_register 7
  96              	.LBB4:
  97              	.LBB5:
  98              	 .file 3 ".././hal/sam3u1c/inc/sam/ioport_pio.h"
   1:.././hal/sam3u1c/inc/sam/ioport_pio.h **** /**
   2:.././hal/sam3u1c/inc/sam/ioport_pio.h ****  * \file
   3:.././hal/sam3u1c/inc/sam/ioport_pio.h ****  *
   4:.././hal/sam3u1c/inc/sam/ioport_pio.h ****  * \brief SAM architecture specific IOPORT service implementation header file.
   5:.././hal/sam3u1c/inc/sam/ioport_pio.h ****  *
   6:.././hal/sam3u1c/inc/sam/ioport_pio.h ****  * Copyright (c) 2012-2014 Atmel Corporation. All rights reserved.
   7:.././hal/sam3u1c/inc/sam/ioport_pio.h ****  *
   8:.././hal/sam3u1c/inc/sam/ioport_pio.h ****  * \asf_license_start
   9:.././hal/sam3u1c/inc/sam/ioport_pio.h ****  *
  10:.././hal/sam3u1c/inc/sam/ioport_pio.h ****  * \page License
  11:.././hal/sam3u1c/inc/sam/ioport_pio.h ****  *
  12:.././hal/sam3u1c/inc/sam/ioport_pio.h ****  * Redistribution and use in source and binary forms, with or without
  13:.././hal/sam3u1c/inc/sam/ioport_pio.h ****  * modification, are permitted provided that the following conditions are met:
  14:.././hal/sam3u1c/inc/sam/ioport_pio.h ****  *
  15:.././hal/sam3u1c/inc/sam/ioport_pio.h ****  * 1. Redistributions of source code must retain the above copyright notice,
  16:.././hal/sam3u1c/inc/sam/ioport_pio.h ****  *    this list of conditions and the following disclaimer.
  17:.././hal/sam3u1c/inc/sam/ioport_pio.h ****  *
  18:.././hal/sam3u1c/inc/sam/ioport_pio.h ****  * 2. Redistributions in binary form must reproduce the above copyright notice,
  19:.././hal/sam3u1c/inc/sam/ioport_pio.h ****  *    this list of conditions and the following disclaimer in the documentation
  20:.././hal/sam3u1c/inc/sam/ioport_pio.h ****  *    and/or other materials provided with the distribution.
  21:.././hal/sam3u1c/inc/sam/ioport_pio.h ****  *
  22:.././hal/sam3u1c/inc/sam/ioport_pio.h ****  * 3. The name of Atmel may not be used to endorse or promote products derived
  23:.././hal/sam3u1c/inc/sam/ioport_pio.h ****  *    from this software without specific prior written permission.
  24:.././hal/sam3u1c/inc/sam/ioport_pio.h ****  *
  25:.././hal/sam3u1c/inc/sam/ioport_pio.h ****  * 4. This software may only be redistributed and used in connection with an
  26:.././hal/sam3u1c/inc/sam/ioport_pio.h ****  *    Atmel microcontroller product.
  27:.././hal/sam3u1c/inc/sam/ioport_pio.h ****  *
  28:.././hal/sam3u1c/inc/sam/ioport_pio.h ****  * THIS SOFTWARE IS PROVIDED BY ATMEL "AS IS" AND ANY EXPRESS OR IMPLIED
  29:.././hal/sam3u1c/inc/sam/ioport_pio.h ****  * WARRANTIES, INCLUDING, BUT NOT LIMITED TO, THE IMPLIED WARRANTIES OF
  30:.././hal/sam3u1c/inc/sam/ioport_pio.h ****  * MERCHANTABILITY, FITNESS FOR A PARTICULAR PURPOSE AND NON-INFRINGEMENT ARE
  31:.././hal/sam3u1c/inc/sam/ioport_pio.h ****  * EXPRESSLY AND SPECIFICALLY DISCLAIMED. IN NO EVENT SHALL ATMEL BE LIABLE FOR
  32:.././hal/sam3u1c/inc/sam/ioport_pio.h ****  * ANY DIRECT, INDIRECT, INCIDENTAL, SPECIAL, EXEMPLARY, OR CONSEQUENTIAL
  33:.././hal/sam3u1c/inc/sam/ioport_pio.h ****  * DAMAGES (INCLUDING, BUT NOT LIMITED TO, PROCUREMENT OF SUBSTITUTE GOODS
  34:.././hal/sam3u1c/inc/sam/ioport_pio.h ****  * OR SERVICES; LOSS OF USE, DATA, OR PROFITS; OR BUSINESS INTERRUPTION)
  35:.././hal/sam3u1c/inc/sam/ioport_pio.h ****  * HOWEVER CAUSED AND ON ANY THEORY OF LIABILITY, WHETHER IN CONTRACT,
  36:.././hal/sam3u1c/inc/sam/ioport_pio.h ****  * STRICT LIABILITY, OR TORT (INCLUDING NEGLIGENCE OR OTHERWISE) ARISING IN
  37:.././hal/sam3u1c/inc/sam/ioport_pio.h ****  * ANY WAY OUT OF THE USE OF THIS SOFTWARE, EVEN IF ADVISED OF THE
  38:.././hal/sam3u1c/inc/sam/ioport_pio.h ****  * POSSIBILITY OF SUCH DAMAGE.
  39:.././hal/sam3u1c/inc/sam/ioport_pio.h ****  *
  40:.././hal/sam3u1c/inc/sam/ioport_pio.h ****  * \asf_license_stop
  41:.././hal/sam3u1c/inc/sam/ioport_pio.h ****  *
  42:.././hal/sam3u1c/inc/sam/ioport_pio.h ****  */
  43:.././hal/sam3u1c/inc/sam/ioport_pio.h **** #ifndef IOPORT_SAM_H
  44:.././hal/sam3u1c/inc/sam/ioport_pio.h **** #define IOPORT_SAM_H
  45:.././hal/sam3u1c/inc/sam/ioport_pio.h **** 
  46:.././hal/sam3u1c/inc/sam/ioport_pio.h **** #include <sysclk.h>
  47:.././hal/sam3u1c/inc/sam/ioport_pio.h **** 
  48:.././hal/sam3u1c/inc/sam/ioport_pio.h **** #define IOPORT_CREATE_PIN(port, pin) ((IOPORT_ ## port) * 32 + (pin))
  49:.././hal/sam3u1c/inc/sam/ioport_pio.h **** #define IOPORT_BASE_ADDRESS (uintptr_t)PIOA
  50:.././hal/sam3u1c/inc/sam/ioport_pio.h **** #define IOPORT_PIO_OFFSET   ((uintptr_t)PIOB - (uintptr_t)PIOA)
  51:.././hal/sam3u1c/inc/sam/ioport_pio.h **** 
  52:.././hal/sam3u1c/inc/sam/ioport_pio.h **** #define IOPORT_PIOA     0
  53:.././hal/sam3u1c/inc/sam/ioport_pio.h **** #define IOPORT_PIOB     1
  54:.././hal/sam3u1c/inc/sam/ioport_pio.h **** #define IOPORT_PIOC     2
  55:.././hal/sam3u1c/inc/sam/ioport_pio.h **** #define IOPORT_PIOD     3
  56:.././hal/sam3u1c/inc/sam/ioport_pio.h **** #define IOPORT_PIOE     4
  57:.././hal/sam3u1c/inc/sam/ioport_pio.h **** #define IOPORT_PIOF     5
  58:.././hal/sam3u1c/inc/sam/ioport_pio.h **** 
  59:.././hal/sam3u1c/inc/sam/ioport_pio.h **** /**
  60:.././hal/sam3u1c/inc/sam/ioport_pio.h ****  * \weakgroup ioport_group
  61:.././hal/sam3u1c/inc/sam/ioport_pio.h ****  * \section ioport_modes IOPORT Modes
  62:.././hal/sam3u1c/inc/sam/ioport_pio.h ****  *
  63:.././hal/sam3u1c/inc/sam/ioport_pio.h ****  * For details on these please see the SAM Manual.
  64:.././hal/sam3u1c/inc/sam/ioport_pio.h ****  *
  65:.././hal/sam3u1c/inc/sam/ioport_pio.h ****  * @{
  66:.././hal/sam3u1c/inc/sam/ioport_pio.h ****  */
  67:.././hal/sam3u1c/inc/sam/ioport_pio.h **** 
  68:.././hal/sam3u1c/inc/sam/ioport_pio.h **** /** \name IOPORT Mode bit definitions */
  69:.././hal/sam3u1c/inc/sam/ioport_pio.h **** /** @{ */
  70:.././hal/sam3u1c/inc/sam/ioport_pio.h **** #define IOPORT_MODE_MUX_MASK            (0x7 << 0) /*!< MUX bits mask */
  71:.././hal/sam3u1c/inc/sam/ioport_pio.h **** #define IOPORT_MODE_MUX_BIT0            (  1 << 0) /*!< MUX BIT0 mask */
  72:.././hal/sam3u1c/inc/sam/ioport_pio.h **** 
  73:.././hal/sam3u1c/inc/sam/ioport_pio.h **** #if SAM3N || SAM3S || SAM4S || SAM4E || SAM4N || SAM4C || SAM4CM || SAMG || SAM4CP
  74:.././hal/sam3u1c/inc/sam/ioport_pio.h **** #define IOPORT_MODE_MUX_BIT1            (  1 << 1) /*!< MUX BIT1 mask */
  75:.././hal/sam3u1c/inc/sam/ioport_pio.h **** #endif
  76:.././hal/sam3u1c/inc/sam/ioport_pio.h **** 
  77:.././hal/sam3u1c/inc/sam/ioport_pio.h **** #define IOPORT_MODE_MUX_A               (  0 << 0) /*!< MUX function A */
  78:.././hal/sam3u1c/inc/sam/ioport_pio.h **** #define IOPORT_MODE_MUX_B               (  1 << 0) /*!< MUX function B */
  79:.././hal/sam3u1c/inc/sam/ioport_pio.h **** 
  80:.././hal/sam3u1c/inc/sam/ioport_pio.h **** #if SAM3N || SAM3S || SAM4S || SAM4E || SAM4N || SAM4C || SAM4CM || SAMG || SAM4CP
  81:.././hal/sam3u1c/inc/sam/ioport_pio.h **** #define IOPORT_MODE_MUX_C               (  2 << 0) /*!< MUX function C */
  82:.././hal/sam3u1c/inc/sam/ioport_pio.h **** #define IOPORT_MODE_MUX_D               (  3 << 0) /*!< MUX function D */
  83:.././hal/sam3u1c/inc/sam/ioport_pio.h **** #endif
  84:.././hal/sam3u1c/inc/sam/ioport_pio.h **** 
  85:.././hal/sam3u1c/inc/sam/ioport_pio.h **** #define IOPORT_MODE_PULLUP              (  1 << 3) /*!< Pull-up */
  86:.././hal/sam3u1c/inc/sam/ioport_pio.h **** 
  87:.././hal/sam3u1c/inc/sam/ioport_pio.h **** #if SAM3N || SAM3S || SAM4S || SAM4E || SAM4N || SAM4C || SAM4CM || SAMG || SAM4CP
  88:.././hal/sam3u1c/inc/sam/ioport_pio.h **** #define IOPORT_MODE_PULLDOWN            (  1 << 4) /*!< Pull-down */
  89:.././hal/sam3u1c/inc/sam/ioport_pio.h **** #endif
  90:.././hal/sam3u1c/inc/sam/ioport_pio.h **** 
  91:.././hal/sam3u1c/inc/sam/ioport_pio.h **** #define IOPORT_MODE_OPEN_DRAIN          (  1 << 5) /*!< Open drain */
  92:.././hal/sam3u1c/inc/sam/ioport_pio.h **** 
  93:.././hal/sam3u1c/inc/sam/ioport_pio.h **** #define IOPORT_MODE_GLITCH_FILTER       (  1 << 6) /*!< Glitch filter */
  94:.././hal/sam3u1c/inc/sam/ioport_pio.h **** #define IOPORT_MODE_DEBOUNCE            (  1 << 7) /*!< Input debounce */
  95:.././hal/sam3u1c/inc/sam/ioport_pio.h **** /** @} */
  96:.././hal/sam3u1c/inc/sam/ioport_pio.h **** 
  97:.././hal/sam3u1c/inc/sam/ioport_pio.h **** /** @} */
  98:.././hal/sam3u1c/inc/sam/ioport_pio.h **** 
  99:.././hal/sam3u1c/inc/sam/ioport_pio.h **** typedef uint32_t ioport_mode_t;
 100:.././hal/sam3u1c/inc/sam/ioport_pio.h **** typedef uint32_t ioport_pin_t;
 101:.././hal/sam3u1c/inc/sam/ioport_pio.h **** typedef uint32_t ioport_port_t;
 102:.././hal/sam3u1c/inc/sam/ioport_pio.h **** typedef uint32_t ioport_port_mask_t;
 103:.././hal/sam3u1c/inc/sam/ioport_pio.h **** 
 104:.././hal/sam3u1c/inc/sam/ioport_pio.h **** __always_inline static ioport_port_t arch_ioport_pin_to_port_id(ioport_pin_t pin)
 105:.././hal/sam3u1c/inc/sam/ioport_pio.h **** {
 106:.././hal/sam3u1c/inc/sam/ioport_pio.h **** 	return pin >> 5;
 107:.././hal/sam3u1c/inc/sam/ioport_pio.h **** }
 108:.././hal/sam3u1c/inc/sam/ioport_pio.h **** 
 109:.././hal/sam3u1c/inc/sam/ioport_pio.h **** __always_inline static Pio *arch_ioport_port_to_base(ioport_port_t port)
 110:.././hal/sam3u1c/inc/sam/ioport_pio.h **** {
 111:.././hal/sam3u1c/inc/sam/ioport_pio.h **** #if (SAM4C || SAM4CM || SAM4CP)
 112:.././hal/sam3u1c/inc/sam/ioport_pio.h **** 	if (port == IOPORT_PIOC) {
 113:.././hal/sam3u1c/inc/sam/ioport_pio.h **** 		return (Pio *)(uintptr_t)PIOC;
 114:.././hal/sam3u1c/inc/sam/ioport_pio.h **** #  ifdef ID_PIOD
 115:.././hal/sam3u1c/inc/sam/ioport_pio.h **** 	} else if (port == IOPORT_PIOD) {
 116:.././hal/sam3u1c/inc/sam/ioport_pio.h **** 		return (Pio *)(uintptr_t)PIOD;
 117:.././hal/sam3u1c/inc/sam/ioport_pio.h **** #  endif
 118:.././hal/sam3u1c/inc/sam/ioport_pio.h **** 	} else {
 119:.././hal/sam3u1c/inc/sam/ioport_pio.h **** 		return (Pio *)((uintptr_t)IOPORT_BASE_ADDRESS +
 120:.././hal/sam3u1c/inc/sam/ioport_pio.h **** 		       (IOPORT_PIO_OFFSET * port));
 121:.././hal/sam3u1c/inc/sam/ioport_pio.h **** 	}
 122:.././hal/sam3u1c/inc/sam/ioport_pio.h **** #else
 123:.././hal/sam3u1c/inc/sam/ioport_pio.h **** 	return (Pio *)((uintptr_t)IOPORT_BASE_ADDRESS +
 124:.././hal/sam3u1c/inc/sam/ioport_pio.h **** 	       (IOPORT_PIO_OFFSET * port));
 125:.././hal/sam3u1c/inc/sam/ioport_pio.h **** #endif
 126:.././hal/sam3u1c/inc/sam/ioport_pio.h **** }
 127:.././hal/sam3u1c/inc/sam/ioport_pio.h **** 
 128:.././hal/sam3u1c/inc/sam/ioport_pio.h **** __always_inline static Pio *arch_ioport_pin_to_base(ioport_pin_t pin)
 129:.././hal/sam3u1c/inc/sam/ioport_pio.h **** {
 130:.././hal/sam3u1c/inc/sam/ioport_pio.h **** 	return arch_ioport_port_to_base(arch_ioport_pin_to_port_id(pin));
 131:.././hal/sam3u1c/inc/sam/ioport_pio.h **** }
 132:.././hal/sam3u1c/inc/sam/ioport_pio.h **** 
 133:.././hal/sam3u1c/inc/sam/ioport_pio.h **** __always_inline static ioport_port_mask_t arch_ioport_pin_to_mask(ioport_pin_t pin)
 134:.././hal/sam3u1c/inc/sam/ioport_pio.h **** {
 135:.././hal/sam3u1c/inc/sam/ioport_pio.h **** 	return 1U << (pin & 0x1F);
 136:.././hal/sam3u1c/inc/sam/ioport_pio.h **** }
 137:.././hal/sam3u1c/inc/sam/ioport_pio.h **** 
 138:.././hal/sam3u1c/inc/sam/ioport_pio.h **** __always_inline static void arch_ioport_init(void)
 139:.././hal/sam3u1c/inc/sam/ioport_pio.h **** {
 140:.././hal/sam3u1c/inc/sam/ioport_pio.h **** #ifdef ID_PIOA
 141:.././hal/sam3u1c/inc/sam/ioport_pio.h **** 	sysclk_enable_peripheral_clock(ID_PIOA);
  99              	 .loc 3 141 0
 100 0004 0A20     	 movs r0,#10
 101 0006 034B     	 ldr r3,.L5
 102 0008 9847     	 blx r3
 103              	.LVL1:
 142:.././hal/sam3u1c/inc/sam/ioport_pio.h **** #endif
 143:.././hal/sam3u1c/inc/sam/ioport_pio.h **** #ifdef ID_PIOB
 144:.././hal/sam3u1c/inc/sam/ioport_pio.h **** 	sysclk_enable_peripheral_clock(ID_PIOB);
 104              	 .loc 3 144 0
 105 000a 0B20     	 movs r0,#11
 106 000c 014B     	 ldr r3,.L5
 107 000e 9847     	 blx r3
 108              	.LVL2:
 109              	.LBE5:
 110              	.LBE4:
 147:.././hal/sam3u1c/inc/ioport.h **** 	arch_ioport_init();
 148:.././hal/sam3u1c/inc/ioport.h **** }
 111              	 .loc 2 148 0
 112 0010 00BF     	 nop
 113 0012 80BD     	 pop {r7,pc}
 114              	.L6:
 115              	 .align 2
 116              	.L5:
 117 0014 00000000 	 .word sysclk_enable_peripheral_clock
 118              	 .cfi_endproc
 119              	.LFE110:
 121              	 .section .text.iopins_sleep,"ax",%progbits
 122              	 .align 1
 123              	 .global iopins_sleep
 124              	 .syntax unified
 125              	 .thumb
 126              	 .thumb_func
 127              	 .fpu softvfp
 129              	iopins_sleep:
 130              	.LFB131:
 131              	 .file 4 ".././hal/sam3u1c/init.c"
   1:.././hal/sam3u1c/init.c **** /**
   2:.././hal/sam3u1c/init.c ****  * \file
   3:.././hal/sam3u1c/init.c ****  *
   4:.././hal/sam3u1c/init.c ****  * \brief SAM3U-EK board init.
   5:.././hal/sam3u1c/init.c ****  *
   6:.././hal/sam3u1c/init.c ****  * Copyright (c) 2011 - 2013 Atmel Corporation. All rights reserved.
   7:.././hal/sam3u1c/init.c ****  *
   8:.././hal/sam3u1c/init.c ****  * \asf_license_start
   9:.././hal/sam3u1c/init.c ****  *
  10:.././hal/sam3u1c/init.c ****  * \page License
  11:.././hal/sam3u1c/init.c ****  *
  12:.././hal/sam3u1c/init.c ****  * Redistribution and use in source and binary forms, with or without
  13:.././hal/sam3u1c/init.c ****  * modification, are permitted provided that the following conditions are met:
  14:.././hal/sam3u1c/init.c ****  *
  15:.././hal/sam3u1c/init.c ****  * 1. Redistributions of source code must retain the above copyright notice,
  16:.././hal/sam3u1c/init.c ****  *    this list of conditions and the following disclaimer.
  17:.././hal/sam3u1c/init.c ****  *
  18:.././hal/sam3u1c/init.c ****  * 2. Redistributions in binary form must reproduce the above copyright notice,
  19:.././hal/sam3u1c/init.c ****  *    this list of conditions and the following disclaimer in the documentation
  20:.././hal/sam3u1c/init.c ****  *    and/or other materials provided with the distribution.
  21:.././hal/sam3u1c/init.c ****  *
  22:.././hal/sam3u1c/init.c ****  * 3. The name of Atmel may not be used to endorse or promote products derived
  23:.././hal/sam3u1c/init.c ****  *    from this software without specific prior written permission.
  24:.././hal/sam3u1c/init.c ****  *
  25:.././hal/sam3u1c/init.c ****  * 4. This software may only be redistributed and used in connection with an
  26:.././hal/sam3u1c/init.c ****  *    Atmel microcontroller product.
  27:.././hal/sam3u1c/init.c ****  *
  28:.././hal/sam3u1c/init.c ****  * THIS SOFTWARE IS PROVIDED BY ATMEL "AS IS" AND ANY EXPRESS OR IMPLIED
  29:.././hal/sam3u1c/init.c ****  * WARRANTIES, INCLUDING, BUT NOT LIMITED TO, THE IMPLIED WARRANTIES OF
  30:.././hal/sam3u1c/init.c ****  * MERCHANTABILITY, FITNESS FOR A PARTICULAR PURPOSE AND NON-INFRINGEMENT ARE
  31:.././hal/sam3u1c/init.c ****  * EXPRESSLY AND SPECIFICALLY DISCLAIMED. IN NO EVENT SHALL ATMEL BE LIABLE FOR
  32:.././hal/sam3u1c/init.c ****  * ANY DIRECT, INDIRECT, INCIDENTAL, SPECIAL, EXEMPLARY, OR CONSEQUENTIAL
  33:.././hal/sam3u1c/init.c ****  * DAMAGES (INCLUDING, BUT NOT LIMITED TO, PROCUREMENT OF SUBSTITUTE GOODS
  34:.././hal/sam3u1c/init.c ****  * OR SERVICES; LOSS OF USE, DATA, OR PROFITS; OR BUSINESS INTERRUPTION)
  35:.././hal/sam3u1c/init.c ****  * HOWEVER CAUSED AND ON ANY THEORY OF LIABILITY, WHETHER IN CONTRACT,
  36:.././hal/sam3u1c/init.c ****  * STRICT LIABILITY, OR TORT (INCLUDING NEGLIGENCE OR OTHERWISE) ARISING IN
  37:.././hal/sam3u1c/init.c ****  * ANY WAY OUT OF THE USE OF THIS SOFTWARE, EVEN IF ADVISED OF THE
  38:.././hal/sam3u1c/init.c ****  * POSSIBILITY OF SUCH DAMAGE.
  39:.././hal/sam3u1c/init.c ****  *
  40:.././hal/sam3u1c/init.c ****  * \asf_license_stop
  41:.././hal/sam3u1c/init.c ****  *
  42:.././hal/sam3u1c/init.c ****  */
  43:.././hal/sam3u1c/init.c **** 
  44:.././hal/sam3u1c/init.c **** #include "compiler.h"
  45:.././hal/sam3u1c/init.c **** #include "board.h"
  46:.././hal/sam3u1c/init.c **** #include "conf_board.h"
  47:.././hal/sam3u1c/init.c **** #include "gpio.h"
  48:.././hal/sam3u1c/init.c **** #include "ioport.h"
  49:.././hal/sam3u1c/init.c **** 
  50:.././hal/sam3u1c/init.c **** 
  51:.././hal/sam3u1c/init.c **** void iopins_sleep(void);
  52:.././hal/sam3u1c/init.c **** void iopins_normal(void);
  53:.././hal/sam3u1c/init.c **** 
  54:.././hal/sam3u1c/init.c **** void iopins_sleep(void)
  55:.././hal/sam3u1c/init.c **** {
 132              	 .loc 4 55 0
 133              	 .cfi_startproc
 134              	 
 135              	 
 136              	 
 137 0000 80B4     	 push {r7}
 138              	.LCFI7:
 139              	 .cfi_def_cfa_offset 4
 140              	 .cfi_offset 7,-4
 141 0002 00AF     	 add r7,sp,#0
 142              	.LCFI8:
 143              	 .cfi_def_cfa_register 7
  56:.././hal/sam3u1c/init.c **** 	/* LEDs Off */
  57:.././hal/sam3u1c/init.c **** 	
  58:.././hal/sam3u1c/init.c **** 	/* FPGA Program low */
  59:.././hal/sam3u1c/init.c **** 	
  60:.././hal/sam3u1c/init.c **** 	/* */
  61:.././hal/sam3u1c/init.c **** }
 144              	 .loc 4 61 0
 145 0004 00BF     	 nop
 146 0006 BD46     	 mov sp,r7
 147              	.LCFI9:
 148              	 .cfi_def_cfa_register 13
 149              	 
 150 0008 80BC     	 pop {r7}
 151              	.LCFI10:
 152              	 .cfi_restore 7
 153              	 .cfi_def_cfa_offset 0
 154 000a 7047     	 bx lr
 155              	 .cfi_endproc
 156              	.LFE131:
 158              	 .section .text.iopins_normal,"ax",%progbits
 159              	 .align 1
 160              	 .global iopins_normal
 161              	 .syntax unified
 162              	 .thumb
 163              	 .thumb_func
 164              	 .fpu softvfp
 166              	iopins_normal:
 167              	.LFB132:
  62:.././hal/sam3u1c/init.c **** 
  63:.././hal/sam3u1c/init.c **** void iopins_normal(void)
  64:.././hal/sam3u1c/init.c **** {
 168              	 .loc 4 64 0
 169              	 .cfi_startproc
 170              	 
 171              	 
 172 0000 80B5     	 push {r7,lr}
 173              	.LCFI11:
 174              	 .cfi_def_cfa_offset 8
 175              	 .cfi_offset 7,-8
 176              	 .cfi_offset 14,-4
 177 0002 00AF     	 add r7,sp,#0
 178              	.LCFI12:
 179              	 .cfi_def_cfa_register 7
  65:.././hal/sam3u1c/init.c **** 	/* Configure LED pins */
  66:.././hal/sam3u1c/init.c **** 	gpio_configure_pin(LED0_GPIO, LED0_FLAGS);
 180              	 .loc 4 66 0
 181 0004 4FF06051 	 mov r1,#939524096
 182 0008 1D20     	 movs r0,#29
 183 000a 0D4B     	 ldr r3,.L9
 184 000c 9847     	 blx r3
 185              	.LVL3:
  67:.././hal/sam3u1c/init.c **** 	gpio_configure_pin(LED1_GPIO, LED1_FLAGS);
 186              	 .loc 4 67 0
 187 000e 4FF06051 	 mov r1,#939524096
 188 0012 1F20     	 movs r0,#31
 189 0014 0A4B     	 ldr r3,.L9
 190 0016 9847     	 blx r3
 191              	.LVL4:
  68:.././hal/sam3u1c/init.c **** 	//gpio_configure_pin(LED2_GPIO, LED2_FLAGS);
  69:.././hal/sam3u1c/init.c **** 	
  70:.././hal/sam3u1c/init.c **** 	/* Configure MOSFET for turning on-off system */
  71:.././hal/sam3u1c/init.c **** 	gpio_configure_pin(PIN_PWRON_GPIO, PIN_PWRON_FLAGS);
 192              	 .loc 4 71 0
 193 0018 4FF04051 	 mov r1,#805306368
 194 001c 1820     	 movs r0,#24
 195 001e 084B     	 ldr r3,.L9
 196 0020 9847     	 blx r3
 197              	.LVL5:
  72:.././hal/sam3u1c/init.c **** 	//board_sram_pwron();
  73:.././hal/sam3u1c/init.c **** 
  74:.././hal/sam3u1c/init.c **** #ifdef CONF_BOARD_UART_CONSOLE
  75:.././hal/sam3u1c/init.c **** 	/* Configure UART pins */
  76:.././hal/sam3u1c/init.c **** 	gpio_configure_group(PINS_UART_PIO, PINS_UART, PINS_UART_FLAGS);
 198              	 .loc 4 76 0
 199 0022 4FF00062 	 mov r2,#134217728
 200 0026 4FF4C051 	 mov r1,#6144
 201 002a 0648     	 ldr r0,.L9+4
 202 002c 064B     	 ldr r3,.L9+8
 203 002e 9847     	 blx r3
 204              	.LVL6:
  77:.././hal/sam3u1c/init.c **** #endif
  78:.././hal/sam3u1c/init.c **** 
  79:.././hal/sam3u1c/init.c **** #ifdef CONF_BOARD_PWM_LED0
  80:.././hal/sam3u1c/init.c **** 	/* Configure PWM LED0 pin */
  81:.././hal/sam3u1c/init.c **** 	gpio_configure_pin(PIN_PWM_LED0_GPIO, PIN_PWM_LED0_FLAGS);
  82:.././hal/sam3u1c/init.c **** #endif
  83:.././hal/sam3u1c/init.c **** 
  84:.././hal/sam3u1c/init.c **** #ifdef CONF_BOARD_PWM_LED1
  85:.././hal/sam3u1c/init.c **** 	/* Configure PWM LED1 pin */
  86:.././hal/sam3u1c/init.c **** 	gpio_configure_pin(PIN_PWM_LED1_GPIO, PIN_PWM_LED1_FLAGS);
  87:.././hal/sam3u1c/init.c **** #endif
  88:.././hal/sam3u1c/init.c **** 
  89:.././hal/sam3u1c/init.c **** #ifdef CONF_BOARD_TWI0
  90:.././hal/sam3u1c/init.c **** 	gpio_configure_pin(TWI0_DATA_GPIO, TWI0_DATA_FLAGS);
  91:.././hal/sam3u1c/init.c **** 	gpio_configure_pin(TWI0_CLK_GPIO, TWI0_CLK_FLAGS);
  92:.././hal/sam3u1c/init.c **** #endif
  93:.././hal/sam3u1c/init.c **** 
  94:.././hal/sam3u1c/init.c **** 	/* Configure SPI pins */
  95:.././hal/sam3u1c/init.c **** #ifdef CONF_BOARD_SPI
  96:.././hal/sam3u1c/init.c **** 	gpio_configure_pin(SPI_MISO_GPIO, SPI_MISO_FLAGS);
  97:.././hal/sam3u1c/init.c **** 	gpio_configure_pin(SPI_MOSI_GPIO, SPI_MOSI_FLAGS);
  98:.././hal/sam3u1c/init.c **** 	gpio_configure_pin(SPI_SPCK_GPIO, SPI_SPCK_FLAGS);
  99:.././hal/sam3u1c/init.c **** 
 100:.././hal/sam3u1c/init.c **** 	/**
 101:.././hal/sam3u1c/init.c **** 	 * For NPCS 1, 2, and 3, different PINs can be used to access the same NPCS line.
 102:.././hal/sam3u1c/init.c **** 	 * Depending on the application requirements, the default PIN may not be available.
 103:.././hal/sam3u1c/init.c **** 	 * Hence a different PIN should be selected using the CONF_BOARD_SPI_NPCS_GPIO and
 104:.././hal/sam3u1c/init.c **** 	 * CONF_BOARD_SPI_NPCS_FLAGS macros.
 105:.././hal/sam3u1c/init.c **** 	 */
 106:.././hal/sam3u1c/init.c **** 
 107:.././hal/sam3u1c/init.c **** #  ifdef CONF_BOARD_SPI_NPCS0
 108:.././hal/sam3u1c/init.c **** 	gpio_configure_pin(SPI_NPCS0_GPIO, SPI_NPCS0_FLAGS);
 109:.././hal/sam3u1c/init.c **** #  endif
 110:.././hal/sam3u1c/init.c **** 
 111:.././hal/sam3u1c/init.c **** #endif /* CONF_BOARD_SPI */
 112:.././hal/sam3u1c/init.c **** 
 113:.././hal/sam3u1c/init.c **** #ifdef CONF_BOARD_USART_RXD
 114:.././hal/sam3u1c/init.c **** 	/* Configure USART RXD pin */
 115:.././hal/sam3u1c/init.c **** 	gpio_configure_pin(PIN_USART1_RXD_IDX, PIN_USART1_RXD_FLAGS);
 116:.././hal/sam3u1c/init.c **** #endif
 117:.././hal/sam3u1c/init.c **** 
 118:.././hal/sam3u1c/init.c **** #ifdef CONF_BOARD_USART_TXD
 119:.././hal/sam3u1c/init.c **** 	/* Configure USART TXD pin */
 120:.././hal/sam3u1c/init.c **** 	gpio_configure_pin(PIN_USART1_TXD_IDX, PIN_USART1_TXD_FLAGS);
 121:.././hal/sam3u1c/init.c **** #endif
 122:.././hal/sam3u1c/init.c **** 
 123:.././hal/sam3u1c/init.c **** #ifdef CONF_BOARD_USART_SCK
 124:.././hal/sam3u1c/init.c **** 	/* Configure USART synchronous communication SCK pin */
 125:.././hal/sam3u1c/init.c **** 	gpio_configure_pin(PIN_USART1_SCK_IDX, PIN_USART1_SCK_FLAGS);
 126:.././hal/sam3u1c/init.c **** #endif
 127:.././hal/sam3u1c/init.c **** 
 128:.././hal/sam3u1c/init.c **** #ifdef CONF_BOARD_SMC_PSRAM
 129:.././hal/sam3u1c/init.c **** 	gpio_configure_pin(PIN_EBI_DATA_BUS_D0, PIN_EBI_DATA_BUS_FLAG1);
 130:.././hal/sam3u1c/init.c **** 	gpio_configure_pin(PIN_EBI_DATA_BUS_D1, PIN_EBI_DATA_BUS_FLAG1);
 131:.././hal/sam3u1c/init.c **** 	gpio_configure_pin(PIN_EBI_DATA_BUS_D2, PIN_EBI_DATA_BUS_FLAG1);
 132:.././hal/sam3u1c/init.c **** 	gpio_configure_pin(PIN_EBI_DATA_BUS_D3, PIN_EBI_DATA_BUS_FLAG1);
 133:.././hal/sam3u1c/init.c **** 	gpio_configure_pin(PIN_EBI_DATA_BUS_D4, PIN_EBI_DATA_BUS_FLAG1);
 134:.././hal/sam3u1c/init.c **** 	gpio_configure_pin(PIN_EBI_DATA_BUS_D5, PIN_EBI_DATA_BUS_FLAG1);
 135:.././hal/sam3u1c/init.c **** 	gpio_configure_pin(PIN_EBI_DATA_BUS_D6, PIN_EBI_DATA_BUS_FLAG1);
 136:.././hal/sam3u1c/init.c **** 	gpio_configure_pin(PIN_EBI_DATA_BUS_D7, PIN_EBI_DATA_BUS_FLAG1);
 137:.././hal/sam3u1c/init.c **** 	gpio_configure_pin(PIN_EBI_DATA_BUS_D8, PIN_EBI_DATA_BUS_FLAG1);
 138:.././hal/sam3u1c/init.c **** 	gpio_configure_pin(PIN_EBI_DATA_BUS_D9, PIN_EBI_DATA_BUS_FLAG1);
 139:.././hal/sam3u1c/init.c **** 	gpio_configure_pin(PIN_EBI_DATA_BUS_D10, PIN_EBI_DATA_BUS_FLAG1);
 140:.././hal/sam3u1c/init.c **** 	gpio_configure_pin(PIN_EBI_DATA_BUS_D11, PIN_EBI_DATA_BUS_FLAG1);
 141:.././hal/sam3u1c/init.c **** 	gpio_configure_pin(PIN_EBI_DATA_BUS_D12, PIN_EBI_DATA_BUS_FLAG1);
 142:.././hal/sam3u1c/init.c **** 	gpio_configure_pin(PIN_EBI_DATA_BUS_D13, PIN_EBI_DATA_BUS_FLAG1);
 143:.././hal/sam3u1c/init.c **** 	gpio_configure_pin(PIN_EBI_DATA_BUS_D14, PIN_EBI_DATA_BUS_FLAG1);
 144:.././hal/sam3u1c/init.c **** 	gpio_configure_pin(PIN_EBI_DATA_BUS_D15, PIN_EBI_DATA_BUS_FLAG2);
 145:.././hal/sam3u1c/init.c **** 	gpio_configure_pin(PIN_EBI_NRD, PIN_EBI_NRD_FLAGS);
 146:.././hal/sam3u1c/init.c **** 	gpio_configure_pin(PIN_EBI_NWE, PIN_EBI_NWE_FLAGS);
 147:.././hal/sam3u1c/init.c **** 	gpio_configure_pin(PIN_EBI_NCS0, PIN_EBI_NCS0_FLAGS);
 148:.././hal/sam3u1c/init.c **** 	gpio_configure_pin(PIN_EBI_ADDR_BUS_NBS0, PIN_EBI_ADDR_BUS_FLAG1);
 149:.././hal/sam3u1c/init.c **** 	gpio_configure_pin(PIN_EBI_ADDR_BUS_NBS1, PIN_EBI_ADDR_BUS_FLAG2);
 150:.././hal/sam3u1c/init.c **** 	gpio_configure_pin(PIN_EBI_ADDR_BUS_A1, PIN_EBI_ADDR_BUS_FLAG1);
 151:.././hal/sam3u1c/init.c **** 	gpio_configure_pin(PIN_EBI_ADDR_BUS_A2, PIN_EBI_ADDR_BUS_FLAG2);
 152:.././hal/sam3u1c/init.c **** 	gpio_configure_pin(PIN_EBI_ADDR_BUS_A3, PIN_EBI_ADDR_BUS_FLAG2);
 153:.././hal/sam3u1c/init.c **** 	gpio_configure_pin(PIN_EBI_ADDR_BUS_A4, PIN_EBI_ADDR_BUS_FLAG2);
 154:.././hal/sam3u1c/init.c **** 	gpio_configure_pin(PIN_EBI_ADDR_BUS_A5, PIN_EBI_ADDR_BUS_FLAG2);
 155:.././hal/sam3u1c/init.c **** 	gpio_configure_pin(PIN_EBI_ADDR_BUS_A6, PIN_EBI_ADDR_BUS_FLAG2);
 156:.././hal/sam3u1c/init.c **** 	gpio_configure_pin(PIN_EBI_ADDR_BUS_A7, PIN_EBI_ADDR_BUS_FLAG2);
 157:.././hal/sam3u1c/init.c **** 	gpio_configure_pin(PIN_EBI_ADDR_BUS_A8, PIN_EBI_ADDR_BUS_FLAG2);
 158:.././hal/sam3u1c/init.c **** 	gpio_configure_pin(PIN_EBI_ADDR_BUS_A9, PIN_EBI_ADDR_BUS_FLAG2);
 159:.././hal/sam3u1c/init.c **** 	gpio_configure_pin(PIN_EBI_ADDR_BUS_A10, PIN_EBI_ADDR_BUS_FLAG2);
 160:.././hal/sam3u1c/init.c **** 	gpio_configure_pin(PIN_EBI_ADDR_BUS_A11, PIN_EBI_ADDR_BUS_FLAG2);
 161:.././hal/sam3u1c/init.c **** 	gpio_configure_pin(PIN_EBI_ADDR_BUS_A12, PIN_EBI_ADDR_BUS_FLAG2);
 162:.././hal/sam3u1c/init.c **** 	gpio_configure_pin(PIN_EBI_ADDR_BUS_A13, PIN_EBI_ADDR_BUS_FLAG2);
 163:.././hal/sam3u1c/init.c **** 	gpio_configure_pin(PIN_EBI_ADDR_BUS_A14, PIN_EBI_ADDR_BUS_FLAG2);
 164:.././hal/sam3u1c/init.c **** 	gpio_configure_pin(PIN_EBI_ADDR_BUS_A15, PIN_EBI_ADDR_BUS_FLAG2);
 165:.././hal/sam3u1c/init.c **** 	gpio_configure_pin(PIN_EBI_ADDR_BUS_A16, PIN_EBI_ADDR_BUS_FLAG2);
 166:.././hal/sam3u1c/init.c **** 	gpio_configure_pin(PIN_EBI_ADDR_BUS_A17, PIN_EBI_ADDR_BUS_FLAG2);
 167:.././hal/sam3u1c/init.c **** 	gpio_configure_pin(PIN_EBI_ADDR_BUS_A18, PIN_EBI_ADDR_BUS_FLAG2);
 168:.././hal/sam3u1c/init.c **** 	gpio_configure_pin(PIN_EBI_ADDR_BUS_A19, PIN_EBI_ADDR_BUS_FLAG2);
 169:.././hal/sam3u1c/init.c **** 	gpio_configure_pin(PIN_EBI_ADDR_BUS_A20, PIN_EBI_ADDR_BUS_FLAG2);
 170:.././hal/sam3u1c/init.c **** #endif
 171:.././hal/sam3u1c/init.c **** 
 172:.././hal/sam3u1c/init.c **** 
 173:.././hal/sam3u1c/init.c **** #ifdef CONF_BOARD_ISO7816_RST
 174:.././hal/sam3u1c/init.c **** 	/* Configure ISO7816 card reset pin */
 175:.././hal/sam3u1c/init.c **** 	gpio_configure_pin(PIN_ISO7816_RST_IDX, PIN_ISO7816_RST_FLAG);
 176:.././hal/sam3u1c/init.c **** #endif
 177:.././hal/sam3u1c/init.c **** 
 178:.././hal/sam3u1c/init.c **** #ifdef CONF_BOARD_ISO7816
 179:.././hal/sam3u1c/init.c **** 	/* Configure ISO7816 interface TXD & SCK pin */
 180:.././hal/sam3u1c/init.c **** 	gpio_configure_pin(PIN_USART0_TXD_IDX, PIN_USART0_TXD_FLAGS);
 181:.././hal/sam3u1c/init.c **** 	gpio_configure_pin(PIN_USART0_SCK_IDX, PIN_USART0_SCK_FLAGS);
 182:.././hal/sam3u1c/init.c **** #endif
 183:.././hal/sam3u1c/init.c **** 
 184:.././hal/sam3u1c/init.c **** #ifdef CONF_BOARD_TWI0
 185:.././hal/sam3u1c/init.c **** 	gpio_configure_pin(TWI0_DATA_GPIO, TWI0_DATA_FLAGS);
 186:.././hal/sam3u1c/init.c **** 	gpio_configure_pin(TWI0_CLK_GPIO, TWI0_CLK_FLAGS);
 187:.././hal/sam3u1c/init.c **** #endif
 188:.././hal/sam3u1c/init.c **** 
 189:.././hal/sam3u1c/init.c **** #ifdef CONF_BOARD_PCK0
 190:.././hal/sam3u1c/init.c **** 	gpio_configure_pin(PIN_PCK0, PIN_PCK0_FLAGS);
 191:.././hal/sam3u1c/init.c **** #endif
 192:.././hal/sam3u1c/init.c **** 
 193:.././hal/sam3u1c/init.c **** #ifdef CONF_BOARD_PCK1
 194:.././hal/sam3u1c/init.c **** gpio_configure_pin(PIN_PCK1, PIN_PCK1_FLAGS);
 205              	 .loc 4 194 0
 206 0030 4FF08051 	 mov r1,#268435456
 207 0034 3820     	 movs r0,#56
 208 0036 024B     	 ldr r3,.L9
 209 0038 9847     	 blx r3
 210              	.LVL7:
 195:.././hal/sam3u1c/init.c **** #endif
 196:.././hal/sam3u1c/init.c **** 
 197:.././hal/sam3u1c/init.c **** #if defined(CONF_BOARD_USB_PORT)
 198:.././hal/sam3u1c/init.c **** #  if defined(CONF_BOARD_USB_VBUS_DETECT)
 199:.././hal/sam3u1c/init.c **** 	gpio_configure_pin(USB_VBUS_PIN, USB_VBUS_FLAGS);
 200:.././hal/sam3u1c/init.c **** #  endif
 201:.././hal/sam3u1c/init.c **** #endif	
 202:.././hal/sam3u1c/init.c **** }
 211              	 .loc 4 202 0
 212 003a 00BF     	 nop
 213 003c 80BD     	 pop {r7,pc}
 214              	.L10:
 215 003e 00BF     	 .align 2
 216              	.L9:
 217 0040 00000000 	 .word pio_configure_pin
 218 0044 000C0E40 	 .word 1074662400
 219 0048 00000000 	 .word pio_configure_pin_group
 220              	 .cfi_endproc
 221              	.LFE132:
 223              	 .section .text.board_init,"ax",%progbits
 224              	 .align 1
 225              	 .global board_init
 226              	 .syntax unified
 227              	 .thumb
 228              	 .thumb_func
 229              	 .fpu softvfp
 231              	board_init:
 232              	.LFB133:
 203:.././hal/sam3u1c/init.c **** 
 204:.././hal/sam3u1c/init.c **** void board_init(void)
 205:.././hal/sam3u1c/init.c **** {
 233              	 .loc 4 205 0
 234              	 .cfi_startproc
 235              	 
 236              	 
 237 0000 80B5     	 push {r7,lr}
 238              	.LCFI13:
 239              	 .cfi_def_cfa_offset 8
 240              	 .cfi_offset 7,-8
 241              	 .cfi_offset 14,-4
 242 0002 00AF     	 add r7,sp,#0
 243              	.LCFI14:
 244              	 .cfi_def_cfa_register 7
 206:.././hal/sam3u1c/init.c **** #ifndef CONF_BOARD_KEEP_WATCHDOG_AT_INIT
 207:.././hal/sam3u1c/init.c **** 	/* Disable the watchdog */
 208:.././hal/sam3u1c/init.c **** 	WDT->WDT_MR = WDT_MR_WDDIS;
 245              	 .loc 4 208 0
 246 0004 044B     	 ldr r3,.L12
 247 0006 4FF40042 	 mov r2,#32768
 248 000a 5A60     	 str r2,[r3,#4]
 209:.././hal/sam3u1c/init.c **** #endif
 210:.././hal/sam3u1c/init.c **** 
 211:.././hal/sam3u1c/init.c **** 	/* GPIO has been deprecated, the old code just keeps it for compatibility.
 212:.././hal/sam3u1c/init.c **** 	 * In new designs IOPORT is used instead.
 213:.././hal/sam3u1c/init.c **** 	 * Here IOPORT must be initialized for others to use before setting up IO.
 214:.././hal/sam3u1c/init.c **** 	 */
 215:.././hal/sam3u1c/init.c **** 	ioport_init();
 249              	 .loc 4 215 0
 250 000c 034B     	 ldr r3,.L12+4
 251 000e 9847     	 blx r3
 252              	.LVL8:
 216:.././hal/sam3u1c/init.c **** 
 217:.././hal/sam3u1c/init.c **** 	iopins_normal();
 253              	 .loc 4 217 0
 254 0010 034B     	 ldr r3,.L12+8
 255 0012 9847     	 blx r3
 256              	.LVL9:
 218:.././hal/sam3u1c/init.c **** 
 219:.././hal/sam3u1c/init.c **** }
 257              	 .loc 4 219 0
 258 0014 00BF     	 nop
 259 0016 80BD     	 pop {r7,pc}
 260              	.L13:
 261              	 .align 2
 262              	.L12:
 263 0018 50120E40 	 .word 1074664016
 264 001c 00000000 	 .word ioport_init
 265 0020 00000000 	 .word iopins_normal
 266              	 .cfi_endproc
 267              	.LFE133:
 269              	 .text
 270              	.Letext0:
 271              	 .file 5 "c:\\program files (x86)\\gnu tools arm embedded\\7 2018-q2-update\\arm-none-eabi\\include\\machine\\_default_types.h"
 272              	 .file 6 "c:\\program files (x86)\\gnu tools arm embedded\\7 2018-q2-update\\arm-none-eabi\\include\\sys\\_stdint.h"
 273              	 .file 7 ".././hal/sam3u1c/inc/sam3u1c.h"
 274              	 .file 8 ".././hal/sam3u1c/inc/core_cm3.h"
 275              	 .file 9 ".././hal/sam3u1c/inc/system_sam3u.h"
 276              	 .file 10 ".././hal/sam3u1c/inc/component/component_pio.h"
 277              	 .file 11 ".././hal/sam3u1c/inc/component/component_wdt.h"
 278              	 .file 12 "c:\\program files (x86)\\gnu tools arm embedded\\7 2018-q2-update\\arm-none-eabi\\include\\sys\\lock.h"
 279              	 .file 13 "c:\\program files (x86)\\gnu tools arm embedded\\7 2018-q2-update\\arm-none-eabi\\include\\sys\\_types.h"
 280              	 .file 14 "c:\\program files (x86)\\gnu tools arm embedded\\7 2018-q2-update\\lib\\gcc\\arm-none-eabi\\7.3.1\\include\\stddef.h"
 281              	 .file 15 "c:\\program files (x86)\\gnu tools arm embedded\\7 2018-q2-update\\arm-none-eabi\\include\\sys\\reent.h"
 282              	 .file 16 "c:\\program files (x86)\\gnu tools arm embedded\\7 2018-q2-update\\arm-none-eabi\\include\\stdlib.h"
 283              	 .file 17 ".././hal/sam3u1c/inc/interrupt/interrupt_sam_nvic.h"
 284              	 .file 18 ".././hal/sam3u1c/inc/pio.h"
 285              	 .file 19 ".././hal/sam3u1c/inc/pmc.h"