   1              	 .cpu cortex-m3
   2              	 .eabi_attribute 20,1
   3              	 .eabi_attribute 21,1
   4              	 .eabi_attribute 23,3
   5              	 .eabi_attribute 24,1
   6              	 .eabi_attribute 25,1
   7              	 .eabi_attribute 26,1
   8              	 .eabi_attribute 30,6
   9              	 .eabi_attribute 34,1
  10              	 .eabi_attribute 18,4
  11              	 .file "interrupt_sam_nvic.c"
  12              	 .text
  13              	.Ltext0:
  14              	 .cfi_sections .debug_frame
  15              	 .section .bss.cpu_irq_critical_section_counter,"aw",%nobits
  16              	 .align 2
  19              	cpu_irq_critical_section_counter:
  20 0000 00000000 	 .space 4
  21              	 .section .bss.cpu_irq_prev_interrupt_state,"aw",%nobits
  24              	cpu_irq_prev_interrupt_state:
  25 0000 00       	 .space 1
  26              	 .global g_interrupt_enabled
  27              	 .section .data.g_interrupt_enabled,"aw"
  30              	g_interrupt_enabled:
  31 0000 01       	 .byte 1
  32              	 .section .text.cpu_irq_enter_critical,"ax",%progbits
  33              	 .align 1
  34              	 .global cpu_irq_enter_critical
  35              	 .arch armv7-m
  36              	 .syntax unified
  37              	 .thumb
  38              	 .thumb_func
  39              	 .fpu softvfp
  41              	cpu_irq_enter_critical:
  42              	.LFB69:
  43              	 .file 1 ".././hal/sam3u1c/interrupt_sam_nvic.c"
   1:.././hal/sam3u1c/interrupt_sam_nvic.c **** /**
   2:.././hal/sam3u1c/interrupt_sam_nvic.c ****  * \file
   3:.././hal/sam3u1c/interrupt_sam_nvic.c ****  *
   4:.././hal/sam3u1c/interrupt_sam_nvic.c ****  * \brief Global interrupt management for SAM D20, SAM3 and SAM4 (NVIC based)
   5:.././hal/sam3u1c/interrupt_sam_nvic.c ****  *
   6:.././hal/sam3u1c/interrupt_sam_nvic.c ****  * Copyright (c) 2012-2013 Atmel Corporation. All rights reserved.
   7:.././hal/sam3u1c/interrupt_sam_nvic.c ****  *
   8:.././hal/sam3u1c/interrupt_sam_nvic.c ****  * \asf_license_start
   9:.././hal/sam3u1c/interrupt_sam_nvic.c ****  *
  10:.././hal/sam3u1c/interrupt_sam_nvic.c ****  * \page License
  11:.././hal/sam3u1c/interrupt_sam_nvic.c ****  *
  12:.././hal/sam3u1c/interrupt_sam_nvic.c ****  * Redistribution and use in source and binary forms, with or without
  13:.././hal/sam3u1c/interrupt_sam_nvic.c ****  * modification, are permitted provided that the following conditions are met:
  14:.././hal/sam3u1c/interrupt_sam_nvic.c ****  *
  15:.././hal/sam3u1c/interrupt_sam_nvic.c ****  * 1. Redistributions of source code must retain the above copyright notice,
  16:.././hal/sam3u1c/interrupt_sam_nvic.c ****  *    this list of conditions and the following disclaimer.
  17:.././hal/sam3u1c/interrupt_sam_nvic.c ****  *
  18:.././hal/sam3u1c/interrupt_sam_nvic.c ****  * 2. Redistributions in binary form must reproduce the above copyright notice,
  19:.././hal/sam3u1c/interrupt_sam_nvic.c ****  *    this list of conditions and the following disclaimer in the documentation
  20:.././hal/sam3u1c/interrupt_sam_nvic.c ****  *    and/or other materials provided with the distribution.
  21:.././hal/sam3u1c/interrupt_sam_nvic.c ****  *
  22:.././hal/sam3u1c/interrupt_sam_nvic.c ****  * 3. The name of Atmel may not be used to endorse or promote products derived
  23:.././hal/sam3u1c/interrupt_sam_nvic.c ****  *    from this software without specific prior written permission.
  24:.././hal/sam3u1c/interrupt_sam_nvic.c ****  *
  25:.././hal/sam3u1c/interrupt_sam_nvic.c ****  * 4. This software may only be redistributed and used in connection with an
  26:.././hal/sam3u1c/interrupt_sam_nvic.c ****  *    Atmel microcontroller product.
  27:.././hal/sam3u1c/interrupt_sam_nvic.c ****  *
  28:.././hal/sam3u1c/interrupt_sam_nvic.c ****  * THIS SOFTWARE IS PROVIDED BY ATMEL "AS IS" AND ANY EXPRESS OR IMPLIED
  29:.././hal/sam3u1c/interrupt_sam_nvic.c ****  * WARRANTIES, INCLUDING, BUT NOT LIMITED TO, THE IMPLIED WARRANTIES OF
  30:.././hal/sam3u1c/interrupt_sam_nvic.c ****  * MERCHANTABILITY, FITNESS FOR A PARTICULAR PURPOSE AND NON-INFRINGEMENT ARE
  31:.././hal/sam3u1c/interrupt_sam_nvic.c ****  * EXPRESSLY AND SPECIFICALLY DISCLAIMED. IN NO EVENT SHALL ATMEL BE LIABLE FOR
  32:.././hal/sam3u1c/interrupt_sam_nvic.c ****  * ANY DIRECT, INDIRECT, INCIDENTAL, SPECIAL, EXEMPLARY, OR CONSEQUENTIAL
  33:.././hal/sam3u1c/interrupt_sam_nvic.c ****  * DAMAGES (INCLUDING, BUT NOT LIMITED TO, PROCUREMENT OF SUBSTITUTE GOODS
  34:.././hal/sam3u1c/interrupt_sam_nvic.c ****  * OR SERVICES; LOSS OF USE, DATA, OR PROFITS; OR BUSINESS INTERRUPTION)
  35:.././hal/sam3u1c/interrupt_sam_nvic.c ****  * HOWEVER CAUSED AND ON ANY THEORY OF LIABILITY, WHETHER IN CONTRACT,
  36:.././hal/sam3u1c/interrupt_sam_nvic.c ****  * STRICT LIABILITY, OR TORT (INCLUDING NEGLIGENCE OR OTHERWISE) ARISING IN
  37:.././hal/sam3u1c/interrupt_sam_nvic.c ****  * ANY WAY OUT OF THE USE OF THIS SOFTWARE, EVEN IF ADVISED OF THE
  38:.././hal/sam3u1c/interrupt_sam_nvic.c ****  * POSSIBILITY OF SUCH DAMAGE.
  39:.././hal/sam3u1c/interrupt_sam_nvic.c ****  *
  40:.././hal/sam3u1c/interrupt_sam_nvic.c ****  * \asf_license_stop
  41:.././hal/sam3u1c/interrupt_sam_nvic.c ****  *
  42:.././hal/sam3u1c/interrupt_sam_nvic.c ****  */
  43:.././hal/sam3u1c/interrupt_sam_nvic.c **** 
  44:.././hal/sam3u1c/interrupt_sam_nvic.c **** #include "interrupt_sam_nvic.h"
  45:.././hal/sam3u1c/interrupt_sam_nvic.c **** 
  46:.././hal/sam3u1c/interrupt_sam_nvic.c **** #if !defined(__DOXYGEN__)
  47:.././hal/sam3u1c/interrupt_sam_nvic.c **** /* Deprecated - global flag to determine the global interrupt state. Required by
  48:.././hal/sam3u1c/interrupt_sam_nvic.c ****  * QTouch library, however new applications should use cpu_irq_is_enabled()
  49:.././hal/sam3u1c/interrupt_sam_nvic.c ****  * which probes the true global interrupt state from the CPU special registers.
  50:.././hal/sam3u1c/interrupt_sam_nvic.c ****  */
  51:.././hal/sam3u1c/interrupt_sam_nvic.c **** volatile bool g_interrupt_enabled = true;
  52:.././hal/sam3u1c/interrupt_sam_nvic.c **** #endif
  53:.././hal/sam3u1c/interrupt_sam_nvic.c **** 
  54:.././hal/sam3u1c/interrupt_sam_nvic.c **** void cpu_irq_enter_critical(void)
  55:.././hal/sam3u1c/interrupt_sam_nvic.c **** {
  44              	 .loc 1 55 1
  45              	 .cfi_startproc
  46              	 
  47              	 
  48              	 
  49 0000 80B4     	 push {r7}
  50              	.LCFI0:
  51              	 .cfi_def_cfa_offset 4
  52              	 .cfi_offset 7,-4
  53 0002 83B0     	 sub sp,sp,#12
  54              	.LCFI1:
  55              	 .cfi_def_cfa_offset 16
  56 0004 00AF     	 add r7,sp,#0
  57              	.LCFI2:
  58              	 .cfi_def_cfa_register 7
  56:.././hal/sam3u1c/interrupt_sam_nvic.c **** 	if (cpu_irq_critical_section_counter == 0) {
  59              	 .loc 1 56 39
  60 0006 104B     	 ldr r3,.L5
  61 0008 1B68     	 ldr r3,[r3]
  62              	 .loc 1 56 5
  63 000a 002B     	 cmp r3,#0
  64 000c 12D1     	 bne .L2
  65              	.LBB12:
  66              	.LBB13:
  67              	 .file 2 ".././hal/sam3u1c/inc/core_cmFunc.h"
   1:.././hal/sam3u1c/inc/core_cmFunc.h **** /**************************************************************************//**
   2:.././hal/sam3u1c/inc/core_cmFunc.h ****  * @file     core_cmFunc.h
   3:.././hal/sam3u1c/inc/core_cmFunc.h ****  * @brief    CMSIS Cortex-M Core Function Access Header File
   4:.././hal/sam3u1c/inc/core_cmFunc.h ****  * @version  V3.00
   5:.././hal/sam3u1c/inc/core_cmFunc.h ****  * @date     19. January 2012
   6:.././hal/sam3u1c/inc/core_cmFunc.h ****  *
   7:.././hal/sam3u1c/inc/core_cmFunc.h ****  * @note
   8:.././hal/sam3u1c/inc/core_cmFunc.h ****  * Copyright (C) 2009-2012 ARM Limited. All rights reserved.
   9:.././hal/sam3u1c/inc/core_cmFunc.h ****  *
  10:.././hal/sam3u1c/inc/core_cmFunc.h ****  * @par
  11:.././hal/sam3u1c/inc/core_cmFunc.h ****  * ARM Limited (ARM) is supplying this software for use with Cortex-M 
  12:.././hal/sam3u1c/inc/core_cmFunc.h ****  * processor based microcontrollers.  This file can be freely distributed 
  13:.././hal/sam3u1c/inc/core_cmFunc.h ****  * within development tools that are supporting such ARM based processors. 
  14:.././hal/sam3u1c/inc/core_cmFunc.h ****  *
  15:.././hal/sam3u1c/inc/core_cmFunc.h ****  * @par
  16:.././hal/sam3u1c/inc/core_cmFunc.h ****  * THIS SOFTWARE IS PROVIDED "AS IS".  NO WARRANTIES, WHETHER EXPRESS, IMPLIED
  17:.././hal/sam3u1c/inc/core_cmFunc.h ****  * OR STATUTORY, INCLUDING, BUT NOT LIMITED TO, IMPLIED WARRANTIES OF
  18:.././hal/sam3u1c/inc/core_cmFunc.h ****  * MERCHANTABILITY AND FITNESS FOR A PARTICULAR PURPOSE APPLY TO THIS SOFTWARE.
  19:.././hal/sam3u1c/inc/core_cmFunc.h ****  * ARM SHALL NOT, IN ANY CIRCUMSTANCES, BE LIABLE FOR SPECIAL, INCIDENTAL, OR
  20:.././hal/sam3u1c/inc/core_cmFunc.h ****  * CONSEQUENTIAL DAMAGES, FOR ANY REASON WHATSOEVER.
  21:.././hal/sam3u1c/inc/core_cmFunc.h ****  *
  22:.././hal/sam3u1c/inc/core_cmFunc.h ****  ******************************************************************************/
  23:.././hal/sam3u1c/inc/core_cmFunc.h **** 
  24:.././hal/sam3u1c/inc/core_cmFunc.h **** #ifndef __CORE_CMFUNC_H
  25:.././hal/sam3u1c/inc/core_cmFunc.h **** #define __CORE_CMFUNC_H
  26:.././hal/sam3u1c/inc/core_cmFunc.h **** 
  27:.././hal/sam3u1c/inc/core_cmFunc.h **** 
  28:.././hal/sam3u1c/inc/core_cmFunc.h **** /* ###########################  Core Function Access  ########################### */
  29:.././hal/sam3u1c/inc/core_cmFunc.h **** /** \ingroup  CMSIS_Core_FunctionInterface   
  30:.././hal/sam3u1c/inc/core_cmFunc.h ****     \defgroup CMSIS_Core_RegAccFunctions CMSIS Core Register Access Functions
  31:.././hal/sam3u1c/inc/core_cmFunc.h ****   @{
  32:.././hal/sam3u1c/inc/core_cmFunc.h ****  */
  33:.././hal/sam3u1c/inc/core_cmFunc.h **** 
  34:.././hal/sam3u1c/inc/core_cmFunc.h **** #if   defined ( __CC_ARM ) /*------------------RealView Compiler -----------------*/
  35:.././hal/sam3u1c/inc/core_cmFunc.h **** /* ARM armcc specific functions */
  36:.././hal/sam3u1c/inc/core_cmFunc.h **** 
  37:.././hal/sam3u1c/inc/core_cmFunc.h **** #if (__ARMCC_VERSION < 400677)
  38:.././hal/sam3u1c/inc/core_cmFunc.h ****   #error "Please use ARM Compiler Toolchain V4.0.677 or later!"
  39:.././hal/sam3u1c/inc/core_cmFunc.h **** #endif
  40:.././hal/sam3u1c/inc/core_cmFunc.h **** 
  41:.././hal/sam3u1c/inc/core_cmFunc.h **** /* intrinsic void __enable_irq();     */
  42:.././hal/sam3u1c/inc/core_cmFunc.h **** /* intrinsic void __disable_irq();    */
  43:.././hal/sam3u1c/inc/core_cmFunc.h **** 
  44:.././hal/sam3u1c/inc/core_cmFunc.h **** /** \brief  Get Control Register
  45:.././hal/sam3u1c/inc/core_cmFunc.h **** 
  46:.././hal/sam3u1c/inc/core_cmFunc.h ****     This function returns the content of the Control Register.
  47:.././hal/sam3u1c/inc/core_cmFunc.h **** 
  48:.././hal/sam3u1c/inc/core_cmFunc.h ****     \return               Control Register value
  49:.././hal/sam3u1c/inc/core_cmFunc.h ****  */
  50:.././hal/sam3u1c/inc/core_cmFunc.h **** __STATIC_INLINE uint32_t __get_CONTROL(void)
  51:.././hal/sam3u1c/inc/core_cmFunc.h **** {
  52:.././hal/sam3u1c/inc/core_cmFunc.h ****   register uint32_t __regControl         __ASM("control");
  53:.././hal/sam3u1c/inc/core_cmFunc.h ****   return(__regControl);
  54:.././hal/sam3u1c/inc/core_cmFunc.h **** }
  55:.././hal/sam3u1c/inc/core_cmFunc.h **** 
  56:.././hal/sam3u1c/inc/core_cmFunc.h **** 
  57:.././hal/sam3u1c/inc/core_cmFunc.h **** /** \brief  Set Control Register
  58:.././hal/sam3u1c/inc/core_cmFunc.h **** 
  59:.././hal/sam3u1c/inc/core_cmFunc.h ****     This function writes the given value to the Control Register.
  60:.././hal/sam3u1c/inc/core_cmFunc.h **** 
  61:.././hal/sam3u1c/inc/core_cmFunc.h ****     \param [in]    control  Control Register value to set
  62:.././hal/sam3u1c/inc/core_cmFunc.h ****  */
  63:.././hal/sam3u1c/inc/core_cmFunc.h **** __STATIC_INLINE void __set_CONTROL(uint32_t control)
  64:.././hal/sam3u1c/inc/core_cmFunc.h **** {
  65:.././hal/sam3u1c/inc/core_cmFunc.h ****   register uint32_t __regControl         __ASM("control");
  66:.././hal/sam3u1c/inc/core_cmFunc.h ****   __regControl = control;
  67:.././hal/sam3u1c/inc/core_cmFunc.h **** }
  68:.././hal/sam3u1c/inc/core_cmFunc.h **** 
  69:.././hal/sam3u1c/inc/core_cmFunc.h **** 
  70:.././hal/sam3u1c/inc/core_cmFunc.h **** /** \brief  Get IPSR Register
  71:.././hal/sam3u1c/inc/core_cmFunc.h **** 
  72:.././hal/sam3u1c/inc/core_cmFunc.h ****     This function returns the content of the IPSR Register.
  73:.././hal/sam3u1c/inc/core_cmFunc.h **** 
  74:.././hal/sam3u1c/inc/core_cmFunc.h ****     \return               IPSR Register value
  75:.././hal/sam3u1c/inc/core_cmFunc.h ****  */
  76:.././hal/sam3u1c/inc/core_cmFunc.h **** __STATIC_INLINE uint32_t __get_IPSR(void)
  77:.././hal/sam3u1c/inc/core_cmFunc.h **** {
  78:.././hal/sam3u1c/inc/core_cmFunc.h ****   register uint32_t __regIPSR          __ASM("ipsr");
  79:.././hal/sam3u1c/inc/core_cmFunc.h ****   return(__regIPSR);
  80:.././hal/sam3u1c/inc/core_cmFunc.h **** }
  81:.././hal/sam3u1c/inc/core_cmFunc.h **** 
  82:.././hal/sam3u1c/inc/core_cmFunc.h **** 
  83:.././hal/sam3u1c/inc/core_cmFunc.h **** /** \brief  Get APSR Register
  84:.././hal/sam3u1c/inc/core_cmFunc.h **** 
  85:.././hal/sam3u1c/inc/core_cmFunc.h ****     This function returns the content of the APSR Register.
  86:.././hal/sam3u1c/inc/core_cmFunc.h **** 
  87:.././hal/sam3u1c/inc/core_cmFunc.h ****     \return               APSR Register value
  88:.././hal/sam3u1c/inc/core_cmFunc.h ****  */
  89:.././hal/sam3u1c/inc/core_cmFunc.h **** __STATIC_INLINE uint32_t __get_APSR(void)
  90:.././hal/sam3u1c/inc/core_cmFunc.h **** {
  91:.././hal/sam3u1c/inc/core_cmFunc.h ****   register uint32_t __regAPSR          __ASM("apsr");
  92:.././hal/sam3u1c/inc/core_cmFunc.h ****   return(__regAPSR);
  93:.././hal/sam3u1c/inc/core_cmFunc.h **** }
  94:.././hal/sam3u1c/inc/core_cmFunc.h **** 
  95:.././hal/sam3u1c/inc/core_cmFunc.h **** 
  96:.././hal/sam3u1c/inc/core_cmFunc.h **** /** \brief  Get xPSR Register
  97:.././hal/sam3u1c/inc/core_cmFunc.h **** 
  98:.././hal/sam3u1c/inc/core_cmFunc.h ****     This function returns the content of the xPSR Register.
  99:.././hal/sam3u1c/inc/core_cmFunc.h **** 
 100:.././hal/sam3u1c/inc/core_cmFunc.h ****     \return               xPSR Register value
 101:.././hal/sam3u1c/inc/core_cmFunc.h ****  */
 102:.././hal/sam3u1c/inc/core_cmFunc.h **** __STATIC_INLINE uint32_t __get_xPSR(void)
 103:.././hal/sam3u1c/inc/core_cmFunc.h **** {
 104:.././hal/sam3u1c/inc/core_cmFunc.h ****   register uint32_t __regXPSR          __ASM("xpsr");
 105:.././hal/sam3u1c/inc/core_cmFunc.h ****   return(__regXPSR);
 106:.././hal/sam3u1c/inc/core_cmFunc.h **** }
 107:.././hal/sam3u1c/inc/core_cmFunc.h **** 
 108:.././hal/sam3u1c/inc/core_cmFunc.h **** 
 109:.././hal/sam3u1c/inc/core_cmFunc.h **** /** \brief  Get Process Stack Pointer
 110:.././hal/sam3u1c/inc/core_cmFunc.h **** 
 111:.././hal/sam3u1c/inc/core_cmFunc.h ****     This function returns the current value of the Process Stack Pointer (PSP).
 112:.././hal/sam3u1c/inc/core_cmFunc.h **** 
 113:.././hal/sam3u1c/inc/core_cmFunc.h ****     \return               PSP Register value
 114:.././hal/sam3u1c/inc/core_cmFunc.h ****  */
 115:.././hal/sam3u1c/inc/core_cmFunc.h **** __STATIC_INLINE uint32_t __get_PSP(void)
 116:.././hal/sam3u1c/inc/core_cmFunc.h **** {
 117:.././hal/sam3u1c/inc/core_cmFunc.h ****   register uint32_t __regProcessStackPointer  __ASM("psp");
 118:.././hal/sam3u1c/inc/core_cmFunc.h ****   return(__regProcessStackPointer);
 119:.././hal/sam3u1c/inc/core_cmFunc.h **** }
 120:.././hal/sam3u1c/inc/core_cmFunc.h **** 
 121:.././hal/sam3u1c/inc/core_cmFunc.h **** 
 122:.././hal/sam3u1c/inc/core_cmFunc.h **** /** \brief  Set Process Stack Pointer
 123:.././hal/sam3u1c/inc/core_cmFunc.h **** 
 124:.././hal/sam3u1c/inc/core_cmFunc.h ****     This function assigns the given value to the Process Stack Pointer (PSP).
 125:.././hal/sam3u1c/inc/core_cmFunc.h **** 
 126:.././hal/sam3u1c/inc/core_cmFunc.h ****     \param [in]    topOfProcStack  Process Stack Pointer value to set
 127:.././hal/sam3u1c/inc/core_cmFunc.h ****  */
 128:.././hal/sam3u1c/inc/core_cmFunc.h **** __STATIC_INLINE void __set_PSP(uint32_t topOfProcStack)
 129:.././hal/sam3u1c/inc/core_cmFunc.h **** {
 130:.././hal/sam3u1c/inc/core_cmFunc.h ****   register uint32_t __regProcessStackPointer  __ASM("psp");
 131:.././hal/sam3u1c/inc/core_cmFunc.h ****   __regProcessStackPointer = topOfProcStack;
 132:.././hal/sam3u1c/inc/core_cmFunc.h **** }
 133:.././hal/sam3u1c/inc/core_cmFunc.h **** 
 134:.././hal/sam3u1c/inc/core_cmFunc.h **** 
 135:.././hal/sam3u1c/inc/core_cmFunc.h **** /** \brief  Get Main Stack Pointer
 136:.././hal/sam3u1c/inc/core_cmFunc.h **** 
 137:.././hal/sam3u1c/inc/core_cmFunc.h ****     This function returns the current value of the Main Stack Pointer (MSP).
 138:.././hal/sam3u1c/inc/core_cmFunc.h **** 
 139:.././hal/sam3u1c/inc/core_cmFunc.h ****     \return               MSP Register value
 140:.././hal/sam3u1c/inc/core_cmFunc.h ****  */
 141:.././hal/sam3u1c/inc/core_cmFunc.h **** __STATIC_INLINE uint32_t __get_MSP(void)
 142:.././hal/sam3u1c/inc/core_cmFunc.h **** {
 143:.././hal/sam3u1c/inc/core_cmFunc.h ****   register uint32_t __regMainStackPointer     __ASM("msp");
 144:.././hal/sam3u1c/inc/core_cmFunc.h ****   return(__regMainStackPointer);
 145:.././hal/sam3u1c/inc/core_cmFunc.h **** }
 146:.././hal/sam3u1c/inc/core_cmFunc.h **** 
 147:.././hal/sam3u1c/inc/core_cmFunc.h **** 
 148:.././hal/sam3u1c/inc/core_cmFunc.h **** /** \brief  Set Main Stack Pointer
 149:.././hal/sam3u1c/inc/core_cmFunc.h **** 
 150:.././hal/sam3u1c/inc/core_cmFunc.h ****     This function assigns the given value to the Main Stack Pointer (MSP).
 151:.././hal/sam3u1c/inc/core_cmFunc.h **** 
 152:.././hal/sam3u1c/inc/core_cmFunc.h ****     \param [in]    topOfMainStack  Main Stack Pointer value to set
 153:.././hal/sam3u1c/inc/core_cmFunc.h ****  */
 154:.././hal/sam3u1c/inc/core_cmFunc.h **** __STATIC_INLINE void __set_MSP(uint32_t topOfMainStack)
 155:.././hal/sam3u1c/inc/core_cmFunc.h **** {
 156:.././hal/sam3u1c/inc/core_cmFunc.h ****   register uint32_t __regMainStackPointer     __ASM("msp");
 157:.././hal/sam3u1c/inc/core_cmFunc.h ****   __regMainStackPointer = topOfMainStack;
 158:.././hal/sam3u1c/inc/core_cmFunc.h **** }
 159:.././hal/sam3u1c/inc/core_cmFunc.h **** 
 160:.././hal/sam3u1c/inc/core_cmFunc.h **** 
 161:.././hal/sam3u1c/inc/core_cmFunc.h **** /** \brief  Get Priority Mask
 162:.././hal/sam3u1c/inc/core_cmFunc.h **** 
 163:.././hal/sam3u1c/inc/core_cmFunc.h ****     This function returns the current state of the priority mask bit from the Priority Mask Registe
 164:.././hal/sam3u1c/inc/core_cmFunc.h **** 
 165:.././hal/sam3u1c/inc/core_cmFunc.h ****     \return               Priority Mask value
 166:.././hal/sam3u1c/inc/core_cmFunc.h ****  */
 167:.././hal/sam3u1c/inc/core_cmFunc.h **** __STATIC_INLINE uint32_t __get_PRIMASK(void)
 168:.././hal/sam3u1c/inc/core_cmFunc.h **** {
 169:.././hal/sam3u1c/inc/core_cmFunc.h ****   register uint32_t __regPriMask         __ASM("primask");
 170:.././hal/sam3u1c/inc/core_cmFunc.h ****   return(__regPriMask);
 171:.././hal/sam3u1c/inc/core_cmFunc.h **** }
 172:.././hal/sam3u1c/inc/core_cmFunc.h **** 
 173:.././hal/sam3u1c/inc/core_cmFunc.h **** 
 174:.././hal/sam3u1c/inc/core_cmFunc.h **** /** \brief  Set Priority Mask
 175:.././hal/sam3u1c/inc/core_cmFunc.h **** 
 176:.././hal/sam3u1c/inc/core_cmFunc.h ****     This function assigns the given value to the Priority Mask Register.
 177:.././hal/sam3u1c/inc/core_cmFunc.h **** 
 178:.././hal/sam3u1c/inc/core_cmFunc.h ****     \param [in]    priMask  Priority Mask
 179:.././hal/sam3u1c/inc/core_cmFunc.h ****  */
 180:.././hal/sam3u1c/inc/core_cmFunc.h **** __STATIC_INLINE void __set_PRIMASK(uint32_t priMask)
 181:.././hal/sam3u1c/inc/core_cmFunc.h **** {
 182:.././hal/sam3u1c/inc/core_cmFunc.h ****   register uint32_t __regPriMask         __ASM("primask");
 183:.././hal/sam3u1c/inc/core_cmFunc.h ****   __regPriMask = (priMask);
 184:.././hal/sam3u1c/inc/core_cmFunc.h **** }
 185:.././hal/sam3u1c/inc/core_cmFunc.h ****  
 186:.././hal/sam3u1c/inc/core_cmFunc.h **** 
 187:.././hal/sam3u1c/inc/core_cmFunc.h **** #if       (__CORTEX_M >= 0x03)
 188:.././hal/sam3u1c/inc/core_cmFunc.h **** 
 189:.././hal/sam3u1c/inc/core_cmFunc.h **** /** \brief  Enable FIQ
 190:.././hal/sam3u1c/inc/core_cmFunc.h **** 
 191:.././hal/sam3u1c/inc/core_cmFunc.h ****     This function enables FIQ interrupts by clearing the F-bit in the CPSR.
 192:.././hal/sam3u1c/inc/core_cmFunc.h ****     Can only be executed in Privileged modes.
 193:.././hal/sam3u1c/inc/core_cmFunc.h ****  */
 194:.././hal/sam3u1c/inc/core_cmFunc.h **** #define __enable_fault_irq                __enable_fiq
 195:.././hal/sam3u1c/inc/core_cmFunc.h **** 
 196:.././hal/sam3u1c/inc/core_cmFunc.h **** 
 197:.././hal/sam3u1c/inc/core_cmFunc.h **** /** \brief  Disable FIQ
 198:.././hal/sam3u1c/inc/core_cmFunc.h **** 
 199:.././hal/sam3u1c/inc/core_cmFunc.h ****     This function disables FIQ interrupts by setting the F-bit in the CPSR.
 200:.././hal/sam3u1c/inc/core_cmFunc.h ****     Can only be executed in Privileged modes.
 201:.././hal/sam3u1c/inc/core_cmFunc.h ****  */
 202:.././hal/sam3u1c/inc/core_cmFunc.h **** #define __disable_fault_irq               __disable_fiq
 203:.././hal/sam3u1c/inc/core_cmFunc.h **** 
 204:.././hal/sam3u1c/inc/core_cmFunc.h **** 
 205:.././hal/sam3u1c/inc/core_cmFunc.h **** /** \brief  Get Base Priority
 206:.././hal/sam3u1c/inc/core_cmFunc.h **** 
 207:.././hal/sam3u1c/inc/core_cmFunc.h ****     This function returns the current value of the Base Priority register.
 208:.././hal/sam3u1c/inc/core_cmFunc.h **** 
 209:.././hal/sam3u1c/inc/core_cmFunc.h ****     \return               Base Priority register value
 210:.././hal/sam3u1c/inc/core_cmFunc.h ****  */
 211:.././hal/sam3u1c/inc/core_cmFunc.h **** __STATIC_INLINE uint32_t  __get_BASEPRI(void)
 212:.././hal/sam3u1c/inc/core_cmFunc.h **** {
 213:.././hal/sam3u1c/inc/core_cmFunc.h ****   register uint32_t __regBasePri         __ASM("basepri");
 214:.././hal/sam3u1c/inc/core_cmFunc.h ****   return(__regBasePri);
 215:.././hal/sam3u1c/inc/core_cmFunc.h **** }
 216:.././hal/sam3u1c/inc/core_cmFunc.h **** 
 217:.././hal/sam3u1c/inc/core_cmFunc.h **** 
 218:.././hal/sam3u1c/inc/core_cmFunc.h **** /** \brief  Set Base Priority
 219:.././hal/sam3u1c/inc/core_cmFunc.h **** 
 220:.././hal/sam3u1c/inc/core_cmFunc.h ****     This function assigns the given value to the Base Priority register.
 221:.././hal/sam3u1c/inc/core_cmFunc.h **** 
 222:.././hal/sam3u1c/inc/core_cmFunc.h ****     \param [in]    basePri  Base Priority value to set
 223:.././hal/sam3u1c/inc/core_cmFunc.h ****  */
 224:.././hal/sam3u1c/inc/core_cmFunc.h **** __STATIC_INLINE void __set_BASEPRI(uint32_t basePri)
 225:.././hal/sam3u1c/inc/core_cmFunc.h **** {
 226:.././hal/sam3u1c/inc/core_cmFunc.h ****   register uint32_t __regBasePri         __ASM("basepri");
 227:.././hal/sam3u1c/inc/core_cmFunc.h ****   __regBasePri = (basePri & 0xff);
 228:.././hal/sam3u1c/inc/core_cmFunc.h **** }
 229:.././hal/sam3u1c/inc/core_cmFunc.h ****  
 230:.././hal/sam3u1c/inc/core_cmFunc.h **** 
 231:.././hal/sam3u1c/inc/core_cmFunc.h **** /** \brief  Get Fault Mask
 232:.././hal/sam3u1c/inc/core_cmFunc.h **** 
 233:.././hal/sam3u1c/inc/core_cmFunc.h ****     This function returns the current value of the Fault Mask register.
 234:.././hal/sam3u1c/inc/core_cmFunc.h **** 
 235:.././hal/sam3u1c/inc/core_cmFunc.h ****     \return               Fault Mask register value
 236:.././hal/sam3u1c/inc/core_cmFunc.h ****  */
 237:.././hal/sam3u1c/inc/core_cmFunc.h **** __STATIC_INLINE uint32_t __get_FAULTMASK(void)
 238:.././hal/sam3u1c/inc/core_cmFunc.h **** {
 239:.././hal/sam3u1c/inc/core_cmFunc.h ****   register uint32_t __regFaultMask       __ASM("faultmask");
 240:.././hal/sam3u1c/inc/core_cmFunc.h ****   return(__regFaultMask);
 241:.././hal/sam3u1c/inc/core_cmFunc.h **** }
 242:.././hal/sam3u1c/inc/core_cmFunc.h **** 
 243:.././hal/sam3u1c/inc/core_cmFunc.h **** 
 244:.././hal/sam3u1c/inc/core_cmFunc.h **** /** \brief  Set Fault Mask
 245:.././hal/sam3u1c/inc/core_cmFunc.h **** 
 246:.././hal/sam3u1c/inc/core_cmFunc.h ****     This function assigns the given value to the Fault Mask register.
 247:.././hal/sam3u1c/inc/core_cmFunc.h **** 
 248:.././hal/sam3u1c/inc/core_cmFunc.h ****     \param [in]    faultMask  Fault Mask value to set
 249:.././hal/sam3u1c/inc/core_cmFunc.h ****  */
 250:.././hal/sam3u1c/inc/core_cmFunc.h **** __STATIC_INLINE void __set_FAULTMASK(uint32_t faultMask)
 251:.././hal/sam3u1c/inc/core_cmFunc.h **** {
 252:.././hal/sam3u1c/inc/core_cmFunc.h ****   register uint32_t __regFaultMask       __ASM("faultmask");
 253:.././hal/sam3u1c/inc/core_cmFunc.h ****   __regFaultMask = (faultMask & (uint32_t)1);
 254:.././hal/sam3u1c/inc/core_cmFunc.h **** }
 255:.././hal/sam3u1c/inc/core_cmFunc.h **** 
 256:.././hal/sam3u1c/inc/core_cmFunc.h **** #endif /* (__CORTEX_M >= 0x03) */
 257:.././hal/sam3u1c/inc/core_cmFunc.h **** 
 258:.././hal/sam3u1c/inc/core_cmFunc.h **** 
 259:.././hal/sam3u1c/inc/core_cmFunc.h **** #if       (__CORTEX_M == 0x04)
 260:.././hal/sam3u1c/inc/core_cmFunc.h **** 
 261:.././hal/sam3u1c/inc/core_cmFunc.h **** /** \brief  Get FPSCR
 262:.././hal/sam3u1c/inc/core_cmFunc.h **** 
 263:.././hal/sam3u1c/inc/core_cmFunc.h ****     This function returns the current value of the Floating Point Status/Control register.
 264:.././hal/sam3u1c/inc/core_cmFunc.h **** 
 265:.././hal/sam3u1c/inc/core_cmFunc.h ****     \return               Floating Point Status/Control register value
 266:.././hal/sam3u1c/inc/core_cmFunc.h ****  */
 267:.././hal/sam3u1c/inc/core_cmFunc.h **** __STATIC_INLINE uint32_t __get_FPSCR(void)
 268:.././hal/sam3u1c/inc/core_cmFunc.h **** {
 269:.././hal/sam3u1c/inc/core_cmFunc.h **** #if (__FPU_PRESENT == 1) && (__FPU_USED == 1)
 270:.././hal/sam3u1c/inc/core_cmFunc.h ****   register uint32_t __regfpscr         __ASM("fpscr");
 271:.././hal/sam3u1c/inc/core_cmFunc.h ****   return(__regfpscr);
 272:.././hal/sam3u1c/inc/core_cmFunc.h **** #else
 273:.././hal/sam3u1c/inc/core_cmFunc.h ****    return(0);
 274:.././hal/sam3u1c/inc/core_cmFunc.h **** #endif
 275:.././hal/sam3u1c/inc/core_cmFunc.h **** }
 276:.././hal/sam3u1c/inc/core_cmFunc.h **** 
 277:.././hal/sam3u1c/inc/core_cmFunc.h **** 
 278:.././hal/sam3u1c/inc/core_cmFunc.h **** /** \brief  Set FPSCR
 279:.././hal/sam3u1c/inc/core_cmFunc.h **** 
 280:.././hal/sam3u1c/inc/core_cmFunc.h ****     This function assigns the given value to the Floating Point Status/Control register.
 281:.././hal/sam3u1c/inc/core_cmFunc.h **** 
 282:.././hal/sam3u1c/inc/core_cmFunc.h ****     \param [in]    fpscr  Floating Point Status/Control value to set
 283:.././hal/sam3u1c/inc/core_cmFunc.h ****  */
 284:.././hal/sam3u1c/inc/core_cmFunc.h **** __STATIC_INLINE void __set_FPSCR(uint32_t fpscr)
 285:.././hal/sam3u1c/inc/core_cmFunc.h **** {
 286:.././hal/sam3u1c/inc/core_cmFunc.h **** #if (__FPU_PRESENT == 1) && (__FPU_USED == 1)
 287:.././hal/sam3u1c/inc/core_cmFunc.h ****   register uint32_t __regfpscr         __ASM("fpscr");
 288:.././hal/sam3u1c/inc/core_cmFunc.h ****   __regfpscr = (fpscr);
 289:.././hal/sam3u1c/inc/core_cmFunc.h **** #endif
 290:.././hal/sam3u1c/inc/core_cmFunc.h **** }
 291:.././hal/sam3u1c/inc/core_cmFunc.h **** 
 292:.././hal/sam3u1c/inc/core_cmFunc.h **** #endif /* (__CORTEX_M == 0x04) */
 293:.././hal/sam3u1c/inc/core_cmFunc.h **** 
 294:.././hal/sam3u1c/inc/core_cmFunc.h **** 
 295:.././hal/sam3u1c/inc/core_cmFunc.h **** #elif defined ( __ICCARM__ ) /*------------------ ICC Compiler -------------------*/
 296:.././hal/sam3u1c/inc/core_cmFunc.h **** /* IAR iccarm specific functions */
 297:.././hal/sam3u1c/inc/core_cmFunc.h **** 
 298:.././hal/sam3u1c/inc/core_cmFunc.h **** #include <cmsis_iar.h>
 299:.././hal/sam3u1c/inc/core_cmFunc.h **** 
 300:.././hal/sam3u1c/inc/core_cmFunc.h **** 
 301:.././hal/sam3u1c/inc/core_cmFunc.h **** #elif defined ( __TMS470__ ) /*---------------- TI CCS Compiler ------------------*/
 302:.././hal/sam3u1c/inc/core_cmFunc.h **** /* TI CCS specific functions */
 303:.././hal/sam3u1c/inc/core_cmFunc.h **** 
 304:.././hal/sam3u1c/inc/core_cmFunc.h **** #include <cmsis_ccs.h>
 305:.././hal/sam3u1c/inc/core_cmFunc.h **** 
 306:.././hal/sam3u1c/inc/core_cmFunc.h **** 
 307:.././hal/sam3u1c/inc/core_cmFunc.h **** #elif defined ( __GNUC__ ) /*------------------ GNU Compiler ---------------------*/
 308:.././hal/sam3u1c/inc/core_cmFunc.h **** /* GNU gcc specific functions */
 309:.././hal/sam3u1c/inc/core_cmFunc.h **** 
 310:.././hal/sam3u1c/inc/core_cmFunc.h **** /** \brief  Enable IRQ Interrupts
 311:.././hal/sam3u1c/inc/core_cmFunc.h **** 
 312:.././hal/sam3u1c/inc/core_cmFunc.h ****   This function enables IRQ interrupts by clearing the I-bit in the CPSR.
 313:.././hal/sam3u1c/inc/core_cmFunc.h ****   Can only be executed in Privileged modes.
 314:.././hal/sam3u1c/inc/core_cmFunc.h ****  */
 315:.././hal/sam3u1c/inc/core_cmFunc.h **** __attribute__( ( always_inline ) ) __STATIC_INLINE void __enable_irq(void)
 316:.././hal/sam3u1c/inc/core_cmFunc.h **** {
 317:.././hal/sam3u1c/inc/core_cmFunc.h ****   __ASM volatile ("cpsie i");
 318:.././hal/sam3u1c/inc/core_cmFunc.h **** }
 319:.././hal/sam3u1c/inc/core_cmFunc.h **** 
 320:.././hal/sam3u1c/inc/core_cmFunc.h **** 
 321:.././hal/sam3u1c/inc/core_cmFunc.h **** /** \brief  Disable IRQ Interrupts
 322:.././hal/sam3u1c/inc/core_cmFunc.h **** 
 323:.././hal/sam3u1c/inc/core_cmFunc.h ****   This function disables IRQ interrupts by setting the I-bit in the CPSR.
 324:.././hal/sam3u1c/inc/core_cmFunc.h ****   Can only be executed in Privileged modes.
 325:.././hal/sam3u1c/inc/core_cmFunc.h ****  */
 326:.././hal/sam3u1c/inc/core_cmFunc.h **** __attribute__( ( always_inline ) ) __STATIC_INLINE void __disable_irq(void)
 327:.././hal/sam3u1c/inc/core_cmFunc.h **** {
 328:.././hal/sam3u1c/inc/core_cmFunc.h ****   __ASM volatile ("cpsid i");
 329:.././hal/sam3u1c/inc/core_cmFunc.h **** }
 330:.././hal/sam3u1c/inc/core_cmFunc.h **** 
 331:.././hal/sam3u1c/inc/core_cmFunc.h **** 
 332:.././hal/sam3u1c/inc/core_cmFunc.h **** /** \brief  Get Control Register
 333:.././hal/sam3u1c/inc/core_cmFunc.h **** 
 334:.././hal/sam3u1c/inc/core_cmFunc.h ****     This function returns the content of the Control Register.
 335:.././hal/sam3u1c/inc/core_cmFunc.h **** 
 336:.././hal/sam3u1c/inc/core_cmFunc.h ****     \return               Control Register value
 337:.././hal/sam3u1c/inc/core_cmFunc.h ****  */
 338:.././hal/sam3u1c/inc/core_cmFunc.h **** __attribute__( ( always_inline ) ) __STATIC_INLINE uint32_t __get_CONTROL(void)
 339:.././hal/sam3u1c/inc/core_cmFunc.h **** {
 340:.././hal/sam3u1c/inc/core_cmFunc.h ****   uint32_t result;
 341:.././hal/sam3u1c/inc/core_cmFunc.h **** 
 342:.././hal/sam3u1c/inc/core_cmFunc.h ****   __ASM volatile ("MRS %0, control" : "=r" (result) );
 343:.././hal/sam3u1c/inc/core_cmFunc.h ****   return(result);
 344:.././hal/sam3u1c/inc/core_cmFunc.h **** }
 345:.././hal/sam3u1c/inc/core_cmFunc.h **** 
 346:.././hal/sam3u1c/inc/core_cmFunc.h **** 
 347:.././hal/sam3u1c/inc/core_cmFunc.h **** /** \brief  Set Control Register
 348:.././hal/sam3u1c/inc/core_cmFunc.h **** 
 349:.././hal/sam3u1c/inc/core_cmFunc.h ****     This function writes the given value to the Control Register.
 350:.././hal/sam3u1c/inc/core_cmFunc.h **** 
 351:.././hal/sam3u1c/inc/core_cmFunc.h ****     \param [in]    control  Control Register value to set
 352:.././hal/sam3u1c/inc/core_cmFunc.h ****  */
 353:.././hal/sam3u1c/inc/core_cmFunc.h **** __attribute__( ( always_inline ) ) __STATIC_INLINE void __set_CONTROL(uint32_t control)
 354:.././hal/sam3u1c/inc/core_cmFunc.h **** {
 355:.././hal/sam3u1c/inc/core_cmFunc.h ****   __ASM volatile ("MSR control, %0" : : "r" (control) );
 356:.././hal/sam3u1c/inc/core_cmFunc.h **** }
 357:.././hal/sam3u1c/inc/core_cmFunc.h **** 
 358:.././hal/sam3u1c/inc/core_cmFunc.h **** 
 359:.././hal/sam3u1c/inc/core_cmFunc.h **** /** \brief  Get IPSR Register
 360:.././hal/sam3u1c/inc/core_cmFunc.h **** 
 361:.././hal/sam3u1c/inc/core_cmFunc.h ****     This function returns the content of the IPSR Register.
 362:.././hal/sam3u1c/inc/core_cmFunc.h **** 
 363:.././hal/sam3u1c/inc/core_cmFunc.h ****     \return               IPSR Register value
 364:.././hal/sam3u1c/inc/core_cmFunc.h ****  */
 365:.././hal/sam3u1c/inc/core_cmFunc.h **** __attribute__( ( always_inline ) ) __STATIC_INLINE uint32_t __get_IPSR(void)
 366:.././hal/sam3u1c/inc/core_cmFunc.h **** {
 367:.././hal/sam3u1c/inc/core_cmFunc.h ****   uint32_t result;
 368:.././hal/sam3u1c/inc/core_cmFunc.h **** 
 369:.././hal/sam3u1c/inc/core_cmFunc.h ****   __ASM volatile ("MRS %0, ipsr" : "=r" (result) );
 370:.././hal/sam3u1c/inc/core_cmFunc.h ****   return(result);
 371:.././hal/sam3u1c/inc/core_cmFunc.h **** }
 372:.././hal/sam3u1c/inc/core_cmFunc.h **** 
 373:.././hal/sam3u1c/inc/core_cmFunc.h **** 
 374:.././hal/sam3u1c/inc/core_cmFunc.h **** /** \brief  Get APSR Register
 375:.././hal/sam3u1c/inc/core_cmFunc.h **** 
 376:.././hal/sam3u1c/inc/core_cmFunc.h ****     This function returns the content of the APSR Register.
 377:.././hal/sam3u1c/inc/core_cmFunc.h **** 
 378:.././hal/sam3u1c/inc/core_cmFunc.h ****     \return               APSR Register value
 379:.././hal/sam3u1c/inc/core_cmFunc.h ****  */
 380:.././hal/sam3u1c/inc/core_cmFunc.h **** __attribute__( ( always_inline ) ) __STATIC_INLINE uint32_t __get_APSR(void)
 381:.././hal/sam3u1c/inc/core_cmFunc.h **** {
 382:.././hal/sam3u1c/inc/core_cmFunc.h ****   uint32_t result;
 383:.././hal/sam3u1c/inc/core_cmFunc.h **** 
 384:.././hal/sam3u1c/inc/core_cmFunc.h ****   __ASM volatile ("MRS %0, apsr" : "=r" (result) );
 385:.././hal/sam3u1c/inc/core_cmFunc.h ****   return(result);
 386:.././hal/sam3u1c/inc/core_cmFunc.h **** }
 387:.././hal/sam3u1c/inc/core_cmFunc.h **** 
 388:.././hal/sam3u1c/inc/core_cmFunc.h **** 
 389:.././hal/sam3u1c/inc/core_cmFunc.h **** /** \brief  Get xPSR Register
 390:.././hal/sam3u1c/inc/core_cmFunc.h **** 
 391:.././hal/sam3u1c/inc/core_cmFunc.h ****     This function returns the content of the xPSR Register.
 392:.././hal/sam3u1c/inc/core_cmFunc.h **** 
 393:.././hal/sam3u1c/inc/core_cmFunc.h ****     \return               xPSR Register value
 394:.././hal/sam3u1c/inc/core_cmFunc.h ****  */
 395:.././hal/sam3u1c/inc/core_cmFunc.h **** __attribute__( ( always_inline ) ) __STATIC_INLINE uint32_t __get_xPSR(void)
 396:.././hal/sam3u1c/inc/core_cmFunc.h **** {
 397:.././hal/sam3u1c/inc/core_cmFunc.h ****   uint32_t result;
 398:.././hal/sam3u1c/inc/core_cmFunc.h **** 
 399:.././hal/sam3u1c/inc/core_cmFunc.h ****   __ASM volatile ("MRS %0, xpsr" : "=r" (result) );
 400:.././hal/sam3u1c/inc/core_cmFunc.h ****   return(result);
 401:.././hal/sam3u1c/inc/core_cmFunc.h **** }
 402:.././hal/sam3u1c/inc/core_cmFunc.h **** 
 403:.././hal/sam3u1c/inc/core_cmFunc.h **** 
 404:.././hal/sam3u1c/inc/core_cmFunc.h **** /** \brief  Get Process Stack Pointer
 405:.././hal/sam3u1c/inc/core_cmFunc.h **** 
 406:.././hal/sam3u1c/inc/core_cmFunc.h ****     This function returns the current value of the Process Stack Pointer (PSP).
 407:.././hal/sam3u1c/inc/core_cmFunc.h **** 
 408:.././hal/sam3u1c/inc/core_cmFunc.h ****     \return               PSP Register value
 409:.././hal/sam3u1c/inc/core_cmFunc.h ****  */
 410:.././hal/sam3u1c/inc/core_cmFunc.h **** __attribute__( ( always_inline ) ) __STATIC_INLINE uint32_t __get_PSP(void)
 411:.././hal/sam3u1c/inc/core_cmFunc.h **** {
 412:.././hal/sam3u1c/inc/core_cmFunc.h ****   register uint32_t result;
 413:.././hal/sam3u1c/inc/core_cmFunc.h **** 
 414:.././hal/sam3u1c/inc/core_cmFunc.h ****   __ASM volatile ("MRS %0, psp\n"  : "=r" (result) );
 415:.././hal/sam3u1c/inc/core_cmFunc.h ****   return(result);
 416:.././hal/sam3u1c/inc/core_cmFunc.h **** }
 417:.././hal/sam3u1c/inc/core_cmFunc.h ****  
 418:.././hal/sam3u1c/inc/core_cmFunc.h **** 
 419:.././hal/sam3u1c/inc/core_cmFunc.h **** /** \brief  Set Process Stack Pointer
 420:.././hal/sam3u1c/inc/core_cmFunc.h **** 
 421:.././hal/sam3u1c/inc/core_cmFunc.h ****     This function assigns the given value to the Process Stack Pointer (PSP).
 422:.././hal/sam3u1c/inc/core_cmFunc.h **** 
 423:.././hal/sam3u1c/inc/core_cmFunc.h ****     \param [in]    topOfProcStack  Process Stack Pointer value to set
 424:.././hal/sam3u1c/inc/core_cmFunc.h ****  */
 425:.././hal/sam3u1c/inc/core_cmFunc.h **** __attribute__( ( always_inline ) ) __STATIC_INLINE void __set_PSP(uint32_t topOfProcStack)
 426:.././hal/sam3u1c/inc/core_cmFunc.h **** {
 427:.././hal/sam3u1c/inc/core_cmFunc.h ****   __ASM volatile ("MSR psp, %0\n" : : "r" (topOfProcStack) );
 428:.././hal/sam3u1c/inc/core_cmFunc.h **** }
 429:.././hal/sam3u1c/inc/core_cmFunc.h **** 
 430:.././hal/sam3u1c/inc/core_cmFunc.h **** 
 431:.././hal/sam3u1c/inc/core_cmFunc.h **** /** \brief  Get Main Stack Pointer
 432:.././hal/sam3u1c/inc/core_cmFunc.h **** 
 433:.././hal/sam3u1c/inc/core_cmFunc.h ****     This function returns the current value of the Main Stack Pointer (MSP).
 434:.././hal/sam3u1c/inc/core_cmFunc.h **** 
 435:.././hal/sam3u1c/inc/core_cmFunc.h ****     \return               MSP Register value
 436:.././hal/sam3u1c/inc/core_cmFunc.h ****  */
 437:.././hal/sam3u1c/inc/core_cmFunc.h **** __attribute__( ( always_inline ) ) __STATIC_INLINE uint32_t __get_MSP(void)
 438:.././hal/sam3u1c/inc/core_cmFunc.h **** {
 439:.././hal/sam3u1c/inc/core_cmFunc.h ****   register uint32_t result;
 440:.././hal/sam3u1c/inc/core_cmFunc.h **** 
 441:.././hal/sam3u1c/inc/core_cmFunc.h ****   __ASM volatile ("MRS %0, msp\n" : "=r" (result) );
 442:.././hal/sam3u1c/inc/core_cmFunc.h ****   return(result);
 443:.././hal/sam3u1c/inc/core_cmFunc.h **** }
 444:.././hal/sam3u1c/inc/core_cmFunc.h ****  
 445:.././hal/sam3u1c/inc/core_cmFunc.h **** 
 446:.././hal/sam3u1c/inc/core_cmFunc.h **** /** \brief  Set Main Stack Pointer
 447:.././hal/sam3u1c/inc/core_cmFunc.h **** 
 448:.././hal/sam3u1c/inc/core_cmFunc.h ****     This function assigns the given value to the Main Stack Pointer (MSP).
 449:.././hal/sam3u1c/inc/core_cmFunc.h **** 
 450:.././hal/sam3u1c/inc/core_cmFunc.h ****     \param [in]    topOfMainStack  Main Stack Pointer value to set
 451:.././hal/sam3u1c/inc/core_cmFunc.h ****  */
 452:.././hal/sam3u1c/inc/core_cmFunc.h **** __attribute__( ( always_inline ) ) __STATIC_INLINE void __set_MSP(uint32_t topOfMainStack)
 453:.././hal/sam3u1c/inc/core_cmFunc.h **** {
 454:.././hal/sam3u1c/inc/core_cmFunc.h ****   __ASM volatile ("MSR msp, %0\n" : : "r" (topOfMainStack) );
 455:.././hal/sam3u1c/inc/core_cmFunc.h **** }
 456:.././hal/sam3u1c/inc/core_cmFunc.h **** 
 457:.././hal/sam3u1c/inc/core_cmFunc.h **** 
 458:.././hal/sam3u1c/inc/core_cmFunc.h **** /** \brief  Get Priority Mask
 459:.././hal/sam3u1c/inc/core_cmFunc.h **** 
 460:.././hal/sam3u1c/inc/core_cmFunc.h ****     This function returns the current state of the priority mask bit from the Priority Mask Registe
 461:.././hal/sam3u1c/inc/core_cmFunc.h **** 
 462:.././hal/sam3u1c/inc/core_cmFunc.h ****     \return               Priority Mask value
 463:.././hal/sam3u1c/inc/core_cmFunc.h ****  */
 464:.././hal/sam3u1c/inc/core_cmFunc.h **** __attribute__( ( always_inline ) ) __STATIC_INLINE uint32_t __get_PRIMASK(void)
 465:.././hal/sam3u1c/inc/core_cmFunc.h **** {
 466:.././hal/sam3u1c/inc/core_cmFunc.h ****   uint32_t result;
 467:.././hal/sam3u1c/inc/core_cmFunc.h **** 
 468:.././hal/sam3u1c/inc/core_cmFunc.h ****   __ASM volatile ("MRS %0, primask" : "=r" (result) );
  68              	 .loc 2 468 3
  69              	 .syntax unified
  70              	
  71 000e EFF31083 	 MRS r3,primask
  72              	
  73              	 .thumb
  74              	 .syntax unified
  75 0012 7B60     	 str r3,[r7,#4]
 469:.././hal/sam3u1c/inc/core_cmFunc.h ****   return(result);
  76              	 .loc 2 469 9
  77 0014 7B68     	 ldr r3,[r7,#4]
  78              	.LBE13:
  79              	.LBE12:
  57:.././hal/sam3u1c/interrupt_sam_nvic.c **** 		if (cpu_irq_is_enabled()) {
  80              	 .loc 1 57 6
  81 0016 002B     	 cmp r3,#0
  82 0018 09D1     	 bne .L4
  83              	.LBB14:
  84              	.LBB15:
 328:.././hal/sam3u1c/inc/core_cmFunc.h **** }
  85              	 .loc 2 328 3
  86              	 .syntax unified
  87              	
  88 001a 72B6     	 cpsid i
  89              	
  90              	 .thumb
  91              	 .syntax unified
  92              	.LBE15:
  93              	.LBE14:
  94              	.LBB16:
  95              	.LBB17:
  96              	 .file 3 ".././hal/sam3u1c/inc/core_cmInstr.h"
   1:.././hal/sam3u1c/inc/core_cmInstr.h **** /**************************************************************************//**
   2:.././hal/sam3u1c/inc/core_cmInstr.h ****  * @file     core_cmInstr.h
   3:.././hal/sam3u1c/inc/core_cmInstr.h ****  * @brief    CMSIS Cortex-M Core Instruction Access Header File
   4:.././hal/sam3u1c/inc/core_cmInstr.h ****  * @version  V3.00
   5:.././hal/sam3u1c/inc/core_cmInstr.h ****  * @date     07. February 2012
   6:.././hal/sam3u1c/inc/core_cmInstr.h ****  *
   7:.././hal/sam3u1c/inc/core_cmInstr.h ****  * @note
   8:.././hal/sam3u1c/inc/core_cmInstr.h ****  * Copyright (C) 2009-2012 ARM Limited. All rights reserved.
   9:.././hal/sam3u1c/inc/core_cmInstr.h ****  *
  10:.././hal/sam3u1c/inc/core_cmInstr.h ****  * @par
  11:.././hal/sam3u1c/inc/core_cmInstr.h ****  * ARM Limited (ARM) is supplying this software for use with Cortex-M
  12:.././hal/sam3u1c/inc/core_cmInstr.h ****  * processor based microcontrollers.  This file can be freely distributed
  13:.././hal/sam3u1c/inc/core_cmInstr.h ****  * within development tools that are supporting such ARM based processors.
  14:.././hal/sam3u1c/inc/core_cmInstr.h ****  *
  15:.././hal/sam3u1c/inc/core_cmInstr.h ****  * @par
  16:.././hal/sam3u1c/inc/core_cmInstr.h ****  * THIS SOFTWARE IS PROVIDED "AS IS".  NO WARRANTIES, WHETHER EXPRESS, IMPLIED
  17:.././hal/sam3u1c/inc/core_cmInstr.h ****  * OR STATUTORY, INCLUDING, BUT NOT LIMITED TO, IMPLIED WARRANTIES OF
  18:.././hal/sam3u1c/inc/core_cmInstr.h ****  * MERCHANTABILITY AND FITNESS FOR A PARTICULAR PURPOSE APPLY TO THIS SOFTWARE.
  19:.././hal/sam3u1c/inc/core_cmInstr.h ****  * ARM SHALL NOT, IN ANY CIRCUMSTANCES, BE LIABLE FOR SPECIAL, INCIDENTAL, OR
  20:.././hal/sam3u1c/inc/core_cmInstr.h ****  * CONSEQUENTIAL DAMAGES, FOR ANY REASON WHATSOEVER.
  21:.././hal/sam3u1c/inc/core_cmInstr.h ****  *
  22:.././hal/sam3u1c/inc/core_cmInstr.h ****  ******************************************************************************/
  23:.././hal/sam3u1c/inc/core_cmInstr.h **** 
  24:.././hal/sam3u1c/inc/core_cmInstr.h **** #ifndef __CORE_CMINSTR_H
  25:.././hal/sam3u1c/inc/core_cmInstr.h **** #define __CORE_CMINSTR_H
  26:.././hal/sam3u1c/inc/core_cmInstr.h **** 
  27:.././hal/sam3u1c/inc/core_cmInstr.h **** 
  28:.././hal/sam3u1c/inc/core_cmInstr.h **** /* ##########################  Core Instruction Access  ######################### */
  29:.././hal/sam3u1c/inc/core_cmInstr.h **** /** \defgroup CMSIS_Core_InstructionInterface CMSIS Core Instruction Interface
  30:.././hal/sam3u1c/inc/core_cmInstr.h ****   Access to dedicated instructions
  31:.././hal/sam3u1c/inc/core_cmInstr.h ****   @{
  32:.././hal/sam3u1c/inc/core_cmInstr.h **** */
  33:.././hal/sam3u1c/inc/core_cmInstr.h **** 
  34:.././hal/sam3u1c/inc/core_cmInstr.h **** #if   defined ( __CC_ARM ) /*------------------RealView Compiler -----------------*/
  35:.././hal/sam3u1c/inc/core_cmInstr.h **** /* ARM armcc specific functions */
  36:.././hal/sam3u1c/inc/core_cmInstr.h **** 
  37:.././hal/sam3u1c/inc/core_cmInstr.h **** #if (__ARMCC_VERSION < 400677)
  38:.././hal/sam3u1c/inc/core_cmInstr.h ****   #error "Please use ARM Compiler Toolchain V4.0.677 or later!"
  39:.././hal/sam3u1c/inc/core_cmInstr.h **** #endif
  40:.././hal/sam3u1c/inc/core_cmInstr.h **** 
  41:.././hal/sam3u1c/inc/core_cmInstr.h **** 
  42:.././hal/sam3u1c/inc/core_cmInstr.h **** /** \brief  No Operation
  43:.././hal/sam3u1c/inc/core_cmInstr.h **** 
  44:.././hal/sam3u1c/inc/core_cmInstr.h ****     No Operation does nothing. This instruction can be used for code alignment purposes.
  45:.././hal/sam3u1c/inc/core_cmInstr.h ****  */
  46:.././hal/sam3u1c/inc/core_cmInstr.h **** #define __NOP                             __nop
  47:.././hal/sam3u1c/inc/core_cmInstr.h **** 
  48:.././hal/sam3u1c/inc/core_cmInstr.h **** 
  49:.././hal/sam3u1c/inc/core_cmInstr.h **** /** \brief  Wait For Interrupt
  50:.././hal/sam3u1c/inc/core_cmInstr.h **** 
  51:.././hal/sam3u1c/inc/core_cmInstr.h ****     Wait For Interrupt is a hint instruction that suspends execution
  52:.././hal/sam3u1c/inc/core_cmInstr.h ****     until one of a number of events occurs.
  53:.././hal/sam3u1c/inc/core_cmInstr.h ****  */
  54:.././hal/sam3u1c/inc/core_cmInstr.h **** #define __WFI                             __wfi
  55:.././hal/sam3u1c/inc/core_cmInstr.h **** 
  56:.././hal/sam3u1c/inc/core_cmInstr.h **** 
  57:.././hal/sam3u1c/inc/core_cmInstr.h **** /** \brief  Wait For Event
  58:.././hal/sam3u1c/inc/core_cmInstr.h **** 
  59:.././hal/sam3u1c/inc/core_cmInstr.h ****     Wait For Event is a hint instruction that permits the processor to enter
  60:.././hal/sam3u1c/inc/core_cmInstr.h ****     a low-power state until one of a number of events occurs.
  61:.././hal/sam3u1c/inc/core_cmInstr.h ****  */
  62:.././hal/sam3u1c/inc/core_cmInstr.h **** #define __WFE                             __wfe
  63:.././hal/sam3u1c/inc/core_cmInstr.h **** 
  64:.././hal/sam3u1c/inc/core_cmInstr.h **** 
  65:.././hal/sam3u1c/inc/core_cmInstr.h **** /** \brief  Send Event
  66:.././hal/sam3u1c/inc/core_cmInstr.h **** 
  67:.././hal/sam3u1c/inc/core_cmInstr.h ****     Send Event is a hint instruction. It causes an event to be signaled to the CPU.
  68:.././hal/sam3u1c/inc/core_cmInstr.h ****  */
  69:.././hal/sam3u1c/inc/core_cmInstr.h **** #define __SEV                             __sev
  70:.././hal/sam3u1c/inc/core_cmInstr.h **** 
  71:.././hal/sam3u1c/inc/core_cmInstr.h **** 
  72:.././hal/sam3u1c/inc/core_cmInstr.h **** /** \brief  Instruction Synchronization Barrier
  73:.././hal/sam3u1c/inc/core_cmInstr.h **** 
  74:.././hal/sam3u1c/inc/core_cmInstr.h ****     Instruction Synchronization Barrier flushes the pipeline in the processor,
  75:.././hal/sam3u1c/inc/core_cmInstr.h ****     so that all instructions following the ISB are fetched from cache or
  76:.././hal/sam3u1c/inc/core_cmInstr.h ****     memory, after the instruction has been completed.
  77:.././hal/sam3u1c/inc/core_cmInstr.h ****  */
  78:.././hal/sam3u1c/inc/core_cmInstr.h **** #define __ISB()                           __isb(0xF)
  79:.././hal/sam3u1c/inc/core_cmInstr.h **** 
  80:.././hal/sam3u1c/inc/core_cmInstr.h **** 
  81:.././hal/sam3u1c/inc/core_cmInstr.h **** /** \brief  Data Synchronization Barrier
  82:.././hal/sam3u1c/inc/core_cmInstr.h **** 
  83:.././hal/sam3u1c/inc/core_cmInstr.h ****     This function acts as a special kind of Data Memory Barrier.
  84:.././hal/sam3u1c/inc/core_cmInstr.h ****     It completes when all explicit memory accesses before this instruction complete.
  85:.././hal/sam3u1c/inc/core_cmInstr.h ****  */
  86:.././hal/sam3u1c/inc/core_cmInstr.h **** #define __DSB()                           __dsb(0xF)
  87:.././hal/sam3u1c/inc/core_cmInstr.h **** 
  88:.././hal/sam3u1c/inc/core_cmInstr.h **** 
  89:.././hal/sam3u1c/inc/core_cmInstr.h **** /** \brief  Data Memory Barrier
  90:.././hal/sam3u1c/inc/core_cmInstr.h **** 
  91:.././hal/sam3u1c/inc/core_cmInstr.h ****     This function ensures the apparent order of the explicit memory operations before
  92:.././hal/sam3u1c/inc/core_cmInstr.h ****     and after the instruction, without ensuring their completion.
  93:.././hal/sam3u1c/inc/core_cmInstr.h ****  */
  94:.././hal/sam3u1c/inc/core_cmInstr.h **** #define __DMB()                           __dmb(0xF)
  95:.././hal/sam3u1c/inc/core_cmInstr.h **** 
  96:.././hal/sam3u1c/inc/core_cmInstr.h **** 
  97:.././hal/sam3u1c/inc/core_cmInstr.h **** /** \brief  Reverse byte order (32 bit)
  98:.././hal/sam3u1c/inc/core_cmInstr.h **** 
  99:.././hal/sam3u1c/inc/core_cmInstr.h ****     This function reverses the byte order in integer value.
 100:.././hal/sam3u1c/inc/core_cmInstr.h **** 
 101:.././hal/sam3u1c/inc/core_cmInstr.h ****     \param [in]    value  Value to reverse
 102:.././hal/sam3u1c/inc/core_cmInstr.h ****     \return               Reversed value
 103:.././hal/sam3u1c/inc/core_cmInstr.h ****  */
 104:.././hal/sam3u1c/inc/core_cmInstr.h **** #define __REV                             __rev
 105:.././hal/sam3u1c/inc/core_cmInstr.h **** 
 106:.././hal/sam3u1c/inc/core_cmInstr.h **** 
 107:.././hal/sam3u1c/inc/core_cmInstr.h **** /** \brief  Reverse byte order (16 bit)
 108:.././hal/sam3u1c/inc/core_cmInstr.h **** 
 109:.././hal/sam3u1c/inc/core_cmInstr.h ****     This function reverses the byte order in two unsigned short values.
 110:.././hal/sam3u1c/inc/core_cmInstr.h **** 
 111:.././hal/sam3u1c/inc/core_cmInstr.h ****     \param [in]    value  Value to reverse
 112:.././hal/sam3u1c/inc/core_cmInstr.h ****     \return               Reversed value
 113:.././hal/sam3u1c/inc/core_cmInstr.h ****  */
 114:.././hal/sam3u1c/inc/core_cmInstr.h **** __attribute__((section(".rev16_text"))) __STATIC_INLINE __ASM uint32_t __REV16(uint32_t value)
 115:.././hal/sam3u1c/inc/core_cmInstr.h **** {
 116:.././hal/sam3u1c/inc/core_cmInstr.h ****   rev16 r0, r0
 117:.././hal/sam3u1c/inc/core_cmInstr.h ****   bx lr
 118:.././hal/sam3u1c/inc/core_cmInstr.h **** }
 119:.././hal/sam3u1c/inc/core_cmInstr.h **** 
 120:.././hal/sam3u1c/inc/core_cmInstr.h **** 
 121:.././hal/sam3u1c/inc/core_cmInstr.h **** /** \brief  Reverse byte order in signed short value
 122:.././hal/sam3u1c/inc/core_cmInstr.h **** 
 123:.././hal/sam3u1c/inc/core_cmInstr.h ****     This function reverses the byte order in a signed short value with sign extension to integer.
 124:.././hal/sam3u1c/inc/core_cmInstr.h **** 
 125:.././hal/sam3u1c/inc/core_cmInstr.h ****     \param [in]    value  Value to reverse
 126:.././hal/sam3u1c/inc/core_cmInstr.h ****     \return               Reversed value
 127:.././hal/sam3u1c/inc/core_cmInstr.h ****  */
 128:.././hal/sam3u1c/inc/core_cmInstr.h **** __attribute__((section(".revsh_text"))) __STATIC_INLINE __ASM int32_t __REVSH(int32_t value)
 129:.././hal/sam3u1c/inc/core_cmInstr.h **** {
 130:.././hal/sam3u1c/inc/core_cmInstr.h ****   revsh r0, r0
 131:.././hal/sam3u1c/inc/core_cmInstr.h ****   bx lr
 132:.././hal/sam3u1c/inc/core_cmInstr.h **** }
 133:.././hal/sam3u1c/inc/core_cmInstr.h **** 
 134:.././hal/sam3u1c/inc/core_cmInstr.h **** 
 135:.././hal/sam3u1c/inc/core_cmInstr.h **** /** \brief  Rotate Right in unsigned value (32 bit)
 136:.././hal/sam3u1c/inc/core_cmInstr.h **** 
 137:.././hal/sam3u1c/inc/core_cmInstr.h ****     This function Rotate Right (immediate) provides the value of the contents of a register rotated
 138:.././hal/sam3u1c/inc/core_cmInstr.h **** 
 139:.././hal/sam3u1c/inc/core_cmInstr.h ****     \param [in]    value  Value to rotate
 140:.././hal/sam3u1c/inc/core_cmInstr.h ****     \param [in]    value  Number of Bits to rotate
 141:.././hal/sam3u1c/inc/core_cmInstr.h ****     \return               Rotated value
 142:.././hal/sam3u1c/inc/core_cmInstr.h ****  */
 143:.././hal/sam3u1c/inc/core_cmInstr.h **** #define __ROR                             __ror
 144:.././hal/sam3u1c/inc/core_cmInstr.h **** 
 145:.././hal/sam3u1c/inc/core_cmInstr.h **** 
 146:.././hal/sam3u1c/inc/core_cmInstr.h **** #if       (__CORTEX_M >= 0x03)
 147:.././hal/sam3u1c/inc/core_cmInstr.h **** 
 148:.././hal/sam3u1c/inc/core_cmInstr.h **** /** \brief  Reverse bit order of value
 149:.././hal/sam3u1c/inc/core_cmInstr.h **** 
 150:.././hal/sam3u1c/inc/core_cmInstr.h ****     This function reverses the bit order of the given value.
 151:.././hal/sam3u1c/inc/core_cmInstr.h **** 
 152:.././hal/sam3u1c/inc/core_cmInstr.h ****     \param [in]    value  Value to reverse
 153:.././hal/sam3u1c/inc/core_cmInstr.h ****     \return               Reversed value
 154:.././hal/sam3u1c/inc/core_cmInstr.h ****  */
 155:.././hal/sam3u1c/inc/core_cmInstr.h **** #define __RBIT                            __rbit
 156:.././hal/sam3u1c/inc/core_cmInstr.h **** 
 157:.././hal/sam3u1c/inc/core_cmInstr.h **** 
 158:.././hal/sam3u1c/inc/core_cmInstr.h **** /** \brief  LDR Exclusive (8 bit)
 159:.././hal/sam3u1c/inc/core_cmInstr.h **** 
 160:.././hal/sam3u1c/inc/core_cmInstr.h ****     This function performs a exclusive LDR command for 8 bit value.
 161:.././hal/sam3u1c/inc/core_cmInstr.h **** 
 162:.././hal/sam3u1c/inc/core_cmInstr.h ****     \param [in]    ptr  Pointer to data
 163:.././hal/sam3u1c/inc/core_cmInstr.h ****     \return             value of type uint8_t at (*ptr)
 164:.././hal/sam3u1c/inc/core_cmInstr.h ****  */
 165:.././hal/sam3u1c/inc/core_cmInstr.h **** #define __LDREXB(ptr)                     ((uint8_t ) __ldrex(ptr))
 166:.././hal/sam3u1c/inc/core_cmInstr.h **** 
 167:.././hal/sam3u1c/inc/core_cmInstr.h **** 
 168:.././hal/sam3u1c/inc/core_cmInstr.h **** /** \brief  LDR Exclusive (16 bit)
 169:.././hal/sam3u1c/inc/core_cmInstr.h **** 
 170:.././hal/sam3u1c/inc/core_cmInstr.h ****     This function performs a exclusive LDR command for 16 bit values.
 171:.././hal/sam3u1c/inc/core_cmInstr.h **** 
 172:.././hal/sam3u1c/inc/core_cmInstr.h ****     \param [in]    ptr  Pointer to data
 173:.././hal/sam3u1c/inc/core_cmInstr.h ****     \return        value of type uint16_t at (*ptr)
 174:.././hal/sam3u1c/inc/core_cmInstr.h ****  */
 175:.././hal/sam3u1c/inc/core_cmInstr.h **** #define __LDREXH(ptr)                     ((uint16_t) __ldrex(ptr))
 176:.././hal/sam3u1c/inc/core_cmInstr.h **** 
 177:.././hal/sam3u1c/inc/core_cmInstr.h **** 
 178:.././hal/sam3u1c/inc/core_cmInstr.h **** /** \brief  LDR Exclusive (32 bit)
 179:.././hal/sam3u1c/inc/core_cmInstr.h **** 
 180:.././hal/sam3u1c/inc/core_cmInstr.h ****     This function performs a exclusive LDR command for 32 bit values.
 181:.././hal/sam3u1c/inc/core_cmInstr.h **** 
 182:.././hal/sam3u1c/inc/core_cmInstr.h ****     \param [in]    ptr  Pointer to data
 183:.././hal/sam3u1c/inc/core_cmInstr.h ****     \return        value of type uint32_t at (*ptr)
 184:.././hal/sam3u1c/inc/core_cmInstr.h ****  */
 185:.././hal/sam3u1c/inc/core_cmInstr.h **** #define __LDREXW(ptr)                     ((uint32_t ) __ldrex(ptr))
 186:.././hal/sam3u1c/inc/core_cmInstr.h **** 
 187:.././hal/sam3u1c/inc/core_cmInstr.h **** 
 188:.././hal/sam3u1c/inc/core_cmInstr.h **** /** \brief  STR Exclusive (8 bit)
 189:.././hal/sam3u1c/inc/core_cmInstr.h **** 
 190:.././hal/sam3u1c/inc/core_cmInstr.h ****     This function performs a exclusive STR command for 8 bit values.
 191:.././hal/sam3u1c/inc/core_cmInstr.h **** 
 192:.././hal/sam3u1c/inc/core_cmInstr.h ****     \param [in]  value  Value to store
 193:.././hal/sam3u1c/inc/core_cmInstr.h ****     \param [in]    ptr  Pointer to location
 194:.././hal/sam3u1c/inc/core_cmInstr.h ****     \return          0  Function succeeded
 195:.././hal/sam3u1c/inc/core_cmInstr.h ****     \return          1  Function failed
 196:.././hal/sam3u1c/inc/core_cmInstr.h ****  */
 197:.././hal/sam3u1c/inc/core_cmInstr.h **** #define __STREXB(value, ptr)              __strex(value, ptr)
 198:.././hal/sam3u1c/inc/core_cmInstr.h **** 
 199:.././hal/sam3u1c/inc/core_cmInstr.h **** 
 200:.././hal/sam3u1c/inc/core_cmInstr.h **** /** \brief  STR Exclusive (16 bit)
 201:.././hal/sam3u1c/inc/core_cmInstr.h **** 
 202:.././hal/sam3u1c/inc/core_cmInstr.h ****     This function performs a exclusive STR command for 16 bit values.
 203:.././hal/sam3u1c/inc/core_cmInstr.h **** 
 204:.././hal/sam3u1c/inc/core_cmInstr.h ****     \param [in]  value  Value to store
 205:.././hal/sam3u1c/inc/core_cmInstr.h ****     \param [in]    ptr  Pointer to location
 206:.././hal/sam3u1c/inc/core_cmInstr.h ****     \return          0  Function succeeded
 207:.././hal/sam3u1c/inc/core_cmInstr.h ****     \return          1  Function failed
 208:.././hal/sam3u1c/inc/core_cmInstr.h ****  */
 209:.././hal/sam3u1c/inc/core_cmInstr.h **** #define __STREXH(value, ptr)              __strex(value, ptr)
 210:.././hal/sam3u1c/inc/core_cmInstr.h **** 
 211:.././hal/sam3u1c/inc/core_cmInstr.h **** 
 212:.././hal/sam3u1c/inc/core_cmInstr.h **** /** \brief  STR Exclusive (32 bit)
 213:.././hal/sam3u1c/inc/core_cmInstr.h **** 
 214:.././hal/sam3u1c/inc/core_cmInstr.h ****     This function performs a exclusive STR command for 32 bit values.
 215:.././hal/sam3u1c/inc/core_cmInstr.h **** 
 216:.././hal/sam3u1c/inc/core_cmInstr.h ****     \param [in]  value  Value to store
 217:.././hal/sam3u1c/inc/core_cmInstr.h ****     \param [in]    ptr  Pointer to location
 218:.././hal/sam3u1c/inc/core_cmInstr.h ****     \return          0  Function succeeded
 219:.././hal/sam3u1c/inc/core_cmInstr.h ****     \return          1  Function failed
 220:.././hal/sam3u1c/inc/core_cmInstr.h ****  */
 221:.././hal/sam3u1c/inc/core_cmInstr.h **** #define __STREXW(value, ptr)              __strex(value, ptr)
 222:.././hal/sam3u1c/inc/core_cmInstr.h **** 
 223:.././hal/sam3u1c/inc/core_cmInstr.h **** 
 224:.././hal/sam3u1c/inc/core_cmInstr.h **** /** \brief  Remove the exclusive lock
 225:.././hal/sam3u1c/inc/core_cmInstr.h **** 
 226:.././hal/sam3u1c/inc/core_cmInstr.h ****     This function removes the exclusive lock which is created by LDREX.
 227:.././hal/sam3u1c/inc/core_cmInstr.h **** 
 228:.././hal/sam3u1c/inc/core_cmInstr.h ****  */
 229:.././hal/sam3u1c/inc/core_cmInstr.h **** #define __CLREX                           __clrex
 230:.././hal/sam3u1c/inc/core_cmInstr.h **** 
 231:.././hal/sam3u1c/inc/core_cmInstr.h **** 
 232:.././hal/sam3u1c/inc/core_cmInstr.h **** /** \brief  Signed Saturate
 233:.././hal/sam3u1c/inc/core_cmInstr.h **** 
 234:.././hal/sam3u1c/inc/core_cmInstr.h ****     This function saturates a signed value.
 235:.././hal/sam3u1c/inc/core_cmInstr.h **** 
 236:.././hal/sam3u1c/inc/core_cmInstr.h ****     \param [in]  value  Value to be saturated
 237:.././hal/sam3u1c/inc/core_cmInstr.h ****     \param [in]    sat  Bit position to saturate to (1..32)
 238:.././hal/sam3u1c/inc/core_cmInstr.h ****     \return             Saturated value
 239:.././hal/sam3u1c/inc/core_cmInstr.h ****  */
 240:.././hal/sam3u1c/inc/core_cmInstr.h **** #define __SSAT                            __ssat
 241:.././hal/sam3u1c/inc/core_cmInstr.h **** 
 242:.././hal/sam3u1c/inc/core_cmInstr.h **** 
 243:.././hal/sam3u1c/inc/core_cmInstr.h **** /** \brief  Unsigned Saturate
 244:.././hal/sam3u1c/inc/core_cmInstr.h **** 
 245:.././hal/sam3u1c/inc/core_cmInstr.h ****     This function saturates an unsigned value.
 246:.././hal/sam3u1c/inc/core_cmInstr.h **** 
 247:.././hal/sam3u1c/inc/core_cmInstr.h ****     \param [in]  value  Value to be saturated
 248:.././hal/sam3u1c/inc/core_cmInstr.h ****     \param [in]    sat  Bit position to saturate to (0..31)
 249:.././hal/sam3u1c/inc/core_cmInstr.h ****     \return             Saturated value
 250:.././hal/sam3u1c/inc/core_cmInstr.h ****  */
 251:.././hal/sam3u1c/inc/core_cmInstr.h **** #define __USAT                            __usat
 252:.././hal/sam3u1c/inc/core_cmInstr.h **** 
 253:.././hal/sam3u1c/inc/core_cmInstr.h **** 
 254:.././hal/sam3u1c/inc/core_cmInstr.h **** /** \brief  Count leading zeros
 255:.././hal/sam3u1c/inc/core_cmInstr.h **** 
 256:.././hal/sam3u1c/inc/core_cmInstr.h ****     This function counts the number of leading zeros of a data value.
 257:.././hal/sam3u1c/inc/core_cmInstr.h **** 
 258:.././hal/sam3u1c/inc/core_cmInstr.h ****     \param [in]  value  Value to count the leading zeros
 259:.././hal/sam3u1c/inc/core_cmInstr.h ****     \return             number of leading zeros in value
 260:.././hal/sam3u1c/inc/core_cmInstr.h ****  */
 261:.././hal/sam3u1c/inc/core_cmInstr.h **** #define __CLZ                             __clz
 262:.././hal/sam3u1c/inc/core_cmInstr.h **** 
 263:.././hal/sam3u1c/inc/core_cmInstr.h **** #endif /* (__CORTEX_M >= 0x03) */
 264:.././hal/sam3u1c/inc/core_cmInstr.h **** 
 265:.././hal/sam3u1c/inc/core_cmInstr.h **** 
 266:.././hal/sam3u1c/inc/core_cmInstr.h **** 
 267:.././hal/sam3u1c/inc/core_cmInstr.h **** #elif defined ( __ICCARM__ ) /*------------------ ICC Compiler -------------------*/
 268:.././hal/sam3u1c/inc/core_cmInstr.h **** /* IAR iccarm specific functions */
 269:.././hal/sam3u1c/inc/core_cmInstr.h **** 
 270:.././hal/sam3u1c/inc/core_cmInstr.h **** #include <cmsis_iar.h>
 271:.././hal/sam3u1c/inc/core_cmInstr.h **** 
 272:.././hal/sam3u1c/inc/core_cmInstr.h **** 
 273:.././hal/sam3u1c/inc/core_cmInstr.h **** #elif defined ( __TMS470__ ) /*---------------- TI CCS Compiler ------------------*/
 274:.././hal/sam3u1c/inc/core_cmInstr.h **** /* TI CCS specific functions */
 275:.././hal/sam3u1c/inc/core_cmInstr.h **** 
 276:.././hal/sam3u1c/inc/core_cmInstr.h **** #include <cmsis_ccs.h>
 277:.././hal/sam3u1c/inc/core_cmInstr.h **** 
 278:.././hal/sam3u1c/inc/core_cmInstr.h **** 
 279:.././hal/sam3u1c/inc/core_cmInstr.h **** #elif defined ( __GNUC__ ) /*------------------ GNU Compiler ---------------------*/
 280:.././hal/sam3u1c/inc/core_cmInstr.h **** /* GNU gcc specific functions */
 281:.././hal/sam3u1c/inc/core_cmInstr.h **** 
 282:.././hal/sam3u1c/inc/core_cmInstr.h **** /** \brief  No Operation
 283:.././hal/sam3u1c/inc/core_cmInstr.h **** 
 284:.././hal/sam3u1c/inc/core_cmInstr.h ****     No Operation does nothing. This instruction can be used for code alignment purposes.
 285:.././hal/sam3u1c/inc/core_cmInstr.h ****  */
 286:.././hal/sam3u1c/inc/core_cmInstr.h **** __attribute__( ( always_inline ) ) __STATIC_INLINE void __NOP(void)
 287:.././hal/sam3u1c/inc/core_cmInstr.h **** {
 288:.././hal/sam3u1c/inc/core_cmInstr.h ****   __ASM volatile ("nop");
 289:.././hal/sam3u1c/inc/core_cmInstr.h **** }
 290:.././hal/sam3u1c/inc/core_cmInstr.h **** 
 291:.././hal/sam3u1c/inc/core_cmInstr.h **** 
 292:.././hal/sam3u1c/inc/core_cmInstr.h **** /** \brief  Wait For Interrupt
 293:.././hal/sam3u1c/inc/core_cmInstr.h **** 
 294:.././hal/sam3u1c/inc/core_cmInstr.h ****     Wait For Interrupt is a hint instruction that suspends execution
 295:.././hal/sam3u1c/inc/core_cmInstr.h ****     until one of a number of events occurs.
 296:.././hal/sam3u1c/inc/core_cmInstr.h ****  */
 297:.././hal/sam3u1c/inc/core_cmInstr.h **** __attribute__( ( always_inline ) ) __STATIC_INLINE void __WFI(void)
 298:.././hal/sam3u1c/inc/core_cmInstr.h **** {
 299:.././hal/sam3u1c/inc/core_cmInstr.h ****   __ASM volatile ("wfi");
 300:.././hal/sam3u1c/inc/core_cmInstr.h **** }
 301:.././hal/sam3u1c/inc/core_cmInstr.h **** 
 302:.././hal/sam3u1c/inc/core_cmInstr.h **** 
 303:.././hal/sam3u1c/inc/core_cmInstr.h **** /** \brief  Wait For Event
 304:.././hal/sam3u1c/inc/core_cmInstr.h **** 
 305:.././hal/sam3u1c/inc/core_cmInstr.h ****     Wait For Event is a hint instruction that permits the processor to enter
 306:.././hal/sam3u1c/inc/core_cmInstr.h ****     a low-power state until one of a number of events occurs.
 307:.././hal/sam3u1c/inc/core_cmInstr.h ****  */
 308:.././hal/sam3u1c/inc/core_cmInstr.h **** __attribute__( ( always_inline ) ) __STATIC_INLINE void __WFE(void)
 309:.././hal/sam3u1c/inc/core_cmInstr.h **** {
 310:.././hal/sam3u1c/inc/core_cmInstr.h ****   __ASM volatile ("wfe");
 311:.././hal/sam3u1c/inc/core_cmInstr.h **** }
 312:.././hal/sam3u1c/inc/core_cmInstr.h **** 
 313:.././hal/sam3u1c/inc/core_cmInstr.h **** 
 314:.././hal/sam3u1c/inc/core_cmInstr.h **** /** \brief  Send Event
 315:.././hal/sam3u1c/inc/core_cmInstr.h **** 
 316:.././hal/sam3u1c/inc/core_cmInstr.h ****     Send Event is a hint instruction. It causes an event to be signaled to the CPU.
 317:.././hal/sam3u1c/inc/core_cmInstr.h ****  */
 318:.././hal/sam3u1c/inc/core_cmInstr.h **** __attribute__( ( always_inline ) ) __STATIC_INLINE void __SEV(void)
 319:.././hal/sam3u1c/inc/core_cmInstr.h **** {
 320:.././hal/sam3u1c/inc/core_cmInstr.h ****   __ASM volatile ("sev");
 321:.././hal/sam3u1c/inc/core_cmInstr.h **** }
 322:.././hal/sam3u1c/inc/core_cmInstr.h **** 
 323:.././hal/sam3u1c/inc/core_cmInstr.h **** 
 324:.././hal/sam3u1c/inc/core_cmInstr.h **** /** \brief  Instruction Synchronization Barrier
 325:.././hal/sam3u1c/inc/core_cmInstr.h **** 
 326:.././hal/sam3u1c/inc/core_cmInstr.h ****     Instruction Synchronization Barrier flushes the pipeline in the processor,
 327:.././hal/sam3u1c/inc/core_cmInstr.h ****     so that all instructions following the ISB are fetched from cache or
 328:.././hal/sam3u1c/inc/core_cmInstr.h ****     memory, after the instruction has been completed.
 329:.././hal/sam3u1c/inc/core_cmInstr.h ****  */
 330:.././hal/sam3u1c/inc/core_cmInstr.h **** __attribute__( ( always_inline ) ) __STATIC_INLINE void __ISB(void)
 331:.././hal/sam3u1c/inc/core_cmInstr.h **** {
 332:.././hal/sam3u1c/inc/core_cmInstr.h ****   __ASM volatile ("isb");
 333:.././hal/sam3u1c/inc/core_cmInstr.h **** }
 334:.././hal/sam3u1c/inc/core_cmInstr.h **** 
 335:.././hal/sam3u1c/inc/core_cmInstr.h **** 
 336:.././hal/sam3u1c/inc/core_cmInstr.h **** /** \brief  Data Synchronization Barrier
 337:.././hal/sam3u1c/inc/core_cmInstr.h **** 
 338:.././hal/sam3u1c/inc/core_cmInstr.h ****     This function acts as a special kind of Data Memory Barrier.
 339:.././hal/sam3u1c/inc/core_cmInstr.h ****     It completes when all explicit memory accesses before this instruction complete.
 340:.././hal/sam3u1c/inc/core_cmInstr.h ****  */
 341:.././hal/sam3u1c/inc/core_cmInstr.h **** __attribute__( ( always_inline ) ) __STATIC_INLINE void __DSB(void)
 342:.././hal/sam3u1c/inc/core_cmInstr.h **** {
 343:.././hal/sam3u1c/inc/core_cmInstr.h ****   __ASM volatile ("dsb");
 344:.././hal/sam3u1c/inc/core_cmInstr.h **** }
 345:.././hal/sam3u1c/inc/core_cmInstr.h **** 
 346:.././hal/sam3u1c/inc/core_cmInstr.h **** 
 347:.././hal/sam3u1c/inc/core_cmInstr.h **** /** \brief  Data Memory Barrier
 348:.././hal/sam3u1c/inc/core_cmInstr.h **** 
 349:.././hal/sam3u1c/inc/core_cmInstr.h ****     This function ensures the apparent order of the explicit memory operations before
 350:.././hal/sam3u1c/inc/core_cmInstr.h ****     and after the instruction, without ensuring their completion.
 351:.././hal/sam3u1c/inc/core_cmInstr.h ****  */
 352:.././hal/sam3u1c/inc/core_cmInstr.h **** __attribute__( ( always_inline ) ) __STATIC_INLINE void __DMB(void)
 353:.././hal/sam3u1c/inc/core_cmInstr.h **** {
 354:.././hal/sam3u1c/inc/core_cmInstr.h ****   __ASM volatile ("dmb");
  97              	 .loc 3 354 3
  98              	 .syntax unified
  99              	
 100 001c BFF35F8F 	 dmb
 101              	
 102              	 .thumb
 103              	 .syntax unified
 104              	.LBE17:
 105              	.LBE16:
  58:.././hal/sam3u1c/interrupt_sam_nvic.c **** 			cpu_irq_disable();
 106              	 .loc 1 58 4
 107 0020 0A4B     	 ldr r3,.L5+4
 108 0022 0022     	 movs r2,#0
 109 0024 1A70     	 strb r2,[r3]
  59:.././hal/sam3u1c/interrupt_sam_nvic.c **** 			cpu_irq_prev_interrupt_state = true;
 110              	 .loc 1 59 33
 111 0026 0A4B     	 ldr r3,.L5+8
 112 0028 0122     	 movs r2,#1
 113 002a 1A70     	 strb r2,[r3]
 114 002c 02E0     	 b .L2
 115              	.L4:
  60:.././hal/sam3u1c/interrupt_sam_nvic.c **** 		} else {
  61:.././hal/sam3u1c/interrupt_sam_nvic.c **** 			/* Make sure the to save the prev state as false */
  62:.././hal/sam3u1c/interrupt_sam_nvic.c **** 			cpu_irq_prev_interrupt_state = false;
 116              	 .loc 1 62 33
 117 002e 084B     	 ldr r3,.L5+8
 118 0030 0022     	 movs r2,#0
 119 0032 1A70     	 strb r2,[r3]
 120              	.L2:
  63:.././hal/sam3u1c/interrupt_sam_nvic.c **** 		}
  64:.././hal/sam3u1c/interrupt_sam_nvic.c **** 
  65:.././hal/sam3u1c/interrupt_sam_nvic.c **** 	}
  66:.././hal/sam3u1c/interrupt_sam_nvic.c **** 
  67:.././hal/sam3u1c/interrupt_sam_nvic.c **** 	cpu_irq_critical_section_counter++;
 121              	 .loc 1 67 34
 122 0034 044B     	 ldr r3,.L5
 123 0036 1B68     	 ldr r3,[r3]
 124 0038 0133     	 adds r3,r3,#1
 125 003a 034A     	 ldr r2,.L5
 126 003c 1360     	 str r3,[r2]
  68:.././hal/sam3u1c/interrupt_sam_nvic.c **** }
 127              	 .loc 1 68 1
 128 003e 00BF     	 nop
 129 0040 0C37     	 adds r7,r7,#12
 130              	.LCFI3:
 131              	 .cfi_def_cfa_offset 4
 132 0042 BD46     	 mov sp,r7
 133              	.LCFI4:
 134              	 .cfi_def_cfa_register 13
 135              	 
 136 0044 80BC     	 pop {r7}
 137              	.LCFI5:
 138              	 .cfi_restore 7
 139              	 .cfi_def_cfa_offset 0
 140 0046 7047     	 bx lr
 141              	.L6:
 142              	 .align 2
 143              	.L5:
 144 0048 00000000 	 .word cpu_irq_critical_section_counter
 145 004c 00000000 	 .word g_interrupt_enabled
 146 0050 00000000 	 .word cpu_irq_prev_interrupt_state
 147              	 .cfi_endproc
 148              	.LFE69:
 150              	 .section .text.cpu_irq_leave_critical,"ax",%progbits
 151              	 .align 1
 152              	 .global cpu_irq_leave_critical
 153              	 .syntax unified
 154              	 .thumb
 155              	 .thumb_func
 156              	 .fpu softvfp
 158              	cpu_irq_leave_critical:
 159              	.LFB70:
  69:.././hal/sam3u1c/interrupt_sam_nvic.c **** 
  70:.././hal/sam3u1c/interrupt_sam_nvic.c **** void cpu_irq_leave_critical(void)
  71:.././hal/sam3u1c/interrupt_sam_nvic.c **** {
 160              	 .loc 1 71 1
 161              	 .cfi_startproc
 162              	 
 163              	 
 164              	 
 165 0000 80B4     	 push {r7}
 166              	.LCFI6:
 167              	 .cfi_def_cfa_offset 4
 168              	 .cfi_offset 7,-4
 169 0002 00AF     	 add r7,sp,#0
 170              	.LCFI7:
 171              	 .cfi_def_cfa_register 7
  72:.././hal/sam3u1c/interrupt_sam_nvic.c **** 	/* Check if the user is trying to leave a critical section when not in a critical section */
  73:.././hal/sam3u1c/interrupt_sam_nvic.c **** 	Assert(cpu_irq_critical_section_counter > 0);
  74:.././hal/sam3u1c/interrupt_sam_nvic.c **** 
  75:.././hal/sam3u1c/interrupt_sam_nvic.c **** 	cpu_irq_critical_section_counter--;
 172              	 .loc 1 75 34
 173 0004 0B4B     	 ldr r3,.L10
 174 0006 1B68     	 ldr r3,[r3]
 175 0008 013B     	 subs r3,r3,#1
 176 000a 0A4A     	 ldr r2,.L10
 177 000c 1360     	 str r3,[r2]
  76:.././hal/sam3u1c/interrupt_sam_nvic.c **** 
  77:.././hal/sam3u1c/interrupt_sam_nvic.c **** 	/* Only enable global interrupts when the counter reaches 0 and the state of the global interrupt 
  78:.././hal/sam3u1c/interrupt_sam_nvic.c **** 	   was enabled when entering critical state */
  79:.././hal/sam3u1c/interrupt_sam_nvic.c **** 	if ((cpu_irq_critical_section_counter == 0) && (cpu_irq_prev_interrupt_state)) {
 178              	 .loc 1 79 40
 179 000e 094B     	 ldr r3,.L10
 180 0010 1B68     	 ldr r3,[r3]
 181              	 .loc 1 79 5
 182 0012 002B     	 cmp r3,#0
 183 0014 0AD1     	 bne .L9
 184              	 .loc 1 79 46 discriminator 1
 185 0016 084B     	 ldr r3,.L10+4
 186 0018 1B78     	 ldrb r3,[r3]
 187 001a DBB2     	 uxtb r3,r3
 188 001c 002B     	 cmp r3,#0
 189 001e 05D0     	 beq .L9
  80:.././hal/sam3u1c/interrupt_sam_nvic.c **** 		cpu_irq_enable();
 190              	 .loc 1 80 3
 191 0020 064B     	 ldr r3,.L10+8
 192 0022 0122     	 movs r2,#1
 193 0024 1A70     	 strb r2,[r3]
 194              	.LBB18:
 195              	.LBB19:
 196              	 .loc 3 354 3
 197              	 .syntax unified
 198              	
 199 0026 BFF35F8F 	 dmb
 200              	
 201              	 .thumb
 202              	 .syntax unified
 203              	.LBE19:
 204              	.LBE18:
 205              	.LBB20:
 206              	.LBB21:
 317:.././hal/sam3u1c/inc/core_cmFunc.h **** }
 207              	 .loc 2 317 3
 208              	 .syntax unified
 209              	
 210 002a 62B6     	 cpsie i
 211              	
 212              	 .thumb
 213              	 .syntax unified
 214              	.L9:
 215              	.LBE21:
 216              	.LBE20:
  81:.././hal/sam3u1c/interrupt_sam_nvic.c **** 	}
  82:.././hal/sam3u1c/interrupt_sam_nvic.c **** }
 217              	 .loc 1 82 1
 218 002c 00BF     	 nop
 219 002e BD46     	 mov sp,r7
 220              	.LCFI8:
 221              	 .cfi_def_cfa_register 13
 222              	 
 223 0030 80BC     	 pop {r7}
 224              	.LCFI9:
 225              	 .cfi_restore 7
 226              	 .cfi_def_cfa_offset 0
 227 0032 7047     	 bx lr
 228              	.L11:
 229              	 .align 2
 230              	.L10:
 231 0034 00000000 	 .word cpu_irq_critical_section_counter
 232 0038 00000000 	 .word cpu_irq_prev_interrupt_state
 233 003c 00000000 	 .word g_interrupt_enabled
 234              	 .cfi_endproc
 235              	.LFE70:
 237              	 .text
 238              	.Letext0:
 239              	 .file 4 "c:\\program files (x86)\\gnu tools arm embedded\\8 2018-q4-major\\arm-none-eabi\\include\\machine\\_default_types.h"
 240              	 .file 5 "c:\\program files (x86)\\gnu tools arm embedded\\8 2018-q4-major\\arm-none-eabi\\include\\sys\\_stdint.h"
 241              	 .file 6 ".././hal/sam3u1c/inc/core_cm3.h"
 242              	 .file 7 ".././hal/sam3u1c/inc/system_sam3u.h"
 243              	 .file 8 "c:\\program files (x86)\\gnu tools arm embedded\\8 2018-q4-major\\arm-none-eabi\\include\\sys\\lock.h"
 244              	 .file 9 "c:\\program files (x86)\\gnu tools arm embedded\\8 2018-q4-major\\arm-none-eabi\\include\\sys\\_types.h"
 245              	 .file 10 "c:\\program files (x86)\\gnu tools arm embedded\\8 2018-q4-major\\lib\\gcc\\arm-none-eabi\\8.2.1\\include\\stddef.h"
 246              	 .file 11 "c:\\program files (x86)\\gnu tools arm embedded\\8 2018-q4-major\\arm-none-eabi\\include\\sys\\reent.h"
 247              	 .file 12 "c:\\program files (x86)\\gnu tools arm embedded\\8 2018-q4-major\\arm-none-eabi\\include\\stdlib.h"
 248              	 .file 13 ".././hal/sam3u1c/inc/interrupt_sam_nvic.h"