   1              	 .cpu cortex-m3
   2              	 .eabi_attribute 20,1
   3              	 .eabi_attribute 21,1
   4              	 .eabi_attribute 23,3
   5              	 .eabi_attribute 24,1
   6              	 .eabi_attribute 25,1
   7              	 .eabi_attribute 26,1
   8              	 .eabi_attribute 30,6
   9              	 .eabi_attribute 34,1
  10              	 .eabi_attribute 18,4
  11              	 .file "sleep.c"
  12              	 .text
  13              	.Ltext0:
  14              	 .cfi_sections .debug_frame
  15              	 .section .bss.cpu_irq_critical_section_counter,"aw",%nobits
  16              	 .align 2
  19              	cpu_irq_critical_section_counter:
  20 0000 00000000 	 .space 4
  21              	 .section .bss.cpu_irq_prev_interrupt_state,"aw",%nobits
  24              	cpu_irq_prev_interrupt_state:
  25 0000 00       	 .space 1
  26              	 .section .bss.b_is_sleep_clock_used,"aw",%nobits
  29              	b_is_sleep_clock_used:
  30 0000 00       	 .space 1
  31              	 .section .bss.callback_clocks_restored,"aw",%nobits
  32              	 .align 2
  35              	callback_clocks_restored:
  36 0000 00000000 	 .space 4
  37              	 .section .text.pmc_sleep,"ax",%progbits
  38              	 .align 1
  39              	 .global pmc_sleep
  40              	 .syntax unified
  41              	 .thumb
  42              	 .thumb_func
  43              	 .fpu softvfp
  45              	pmc_sleep:
  46              	.LFB71:
  47              	 .file 1 ".././hal/sam3u1c/sleep.c"
   1:.././hal/sam3u1c/sleep.c **** /**
   2:.././hal/sam3u1c/sleep.c ****  * \file
   3:.././hal/sam3u1c/sleep.c ****  *
   4:.././hal/sam3u1c/sleep.c ****  * \brief Sleep mode access
   5:.././hal/sam3u1c/sleep.c ****  *
   6:.././hal/sam3u1c/sleep.c ****  * Copyright (c) 2012 - 2014 Atmel Corporation. All rights reserved.
   7:.././hal/sam3u1c/sleep.c ****  *
   8:.././hal/sam3u1c/sleep.c ****  * \asf_license_start
   9:.././hal/sam3u1c/sleep.c ****  *
  10:.././hal/sam3u1c/sleep.c ****  * \page License
  11:.././hal/sam3u1c/sleep.c ****  *
  12:.././hal/sam3u1c/sleep.c ****  * Redistribution and use in source and binary forms, with or without
  13:.././hal/sam3u1c/sleep.c ****  * modification, are permitted provided that the following conditions are met:
  14:.././hal/sam3u1c/sleep.c ****  *
  15:.././hal/sam3u1c/sleep.c ****  * 1. Redistributions of source code must retain the above copyright notice,
  16:.././hal/sam3u1c/sleep.c ****  *    this list of conditions and the following disclaimer.
  17:.././hal/sam3u1c/sleep.c ****  *
  18:.././hal/sam3u1c/sleep.c ****  * 2. Redistributions in binary form must reproduce the above copyright notice,
  19:.././hal/sam3u1c/sleep.c ****  *    this list of conditions and the following disclaimer in the documentation
  20:.././hal/sam3u1c/sleep.c ****  *    and/or other materials provided with the distribution.
  21:.././hal/sam3u1c/sleep.c ****  *
  22:.././hal/sam3u1c/sleep.c ****  * 3. The name of Atmel may not be used to endorse or promote products derived
  23:.././hal/sam3u1c/sleep.c ****  *    from this software without specific prior written permission.
  24:.././hal/sam3u1c/sleep.c ****  *
  25:.././hal/sam3u1c/sleep.c ****  * 4. This software may only be redistributed and used in connection with an
  26:.././hal/sam3u1c/sleep.c ****  *    Atmel microcontroller product.
  27:.././hal/sam3u1c/sleep.c ****  *
  28:.././hal/sam3u1c/sleep.c ****  * THIS SOFTWARE IS PROVIDED BY ATMEL "AS IS" AND ANY EXPRESS OR IMPLIED
  29:.././hal/sam3u1c/sleep.c ****  * WARRANTIES, INCLUDING, BUT NOT LIMITED TO, THE IMPLIED WARRANTIES OF
  30:.././hal/sam3u1c/sleep.c ****  * MERCHANTABILITY, FITNESS FOR A PARTICULAR PURPOSE AND NON-INFRINGEMENT ARE
  31:.././hal/sam3u1c/sleep.c ****  * EXPRESSLY AND SPECIFICALLY DISCLAIMED. IN NO EVENT SHALL ATMEL BE LIABLE FOR
  32:.././hal/sam3u1c/sleep.c ****  * ANY DIRECT, INDIRECT, INCIDENTAL, SPECIAL, EXEMPLARY, OR CONSEQUENTIAL
  33:.././hal/sam3u1c/sleep.c ****  * DAMAGES (INCLUDING, BUT NOT LIMITED TO, PROCUREMENT OF SUBSTITUTE GOODS
  34:.././hal/sam3u1c/sleep.c ****  * OR SERVICES; LOSS OF USE, DATA, OR PROFITS; OR BUSINESS INTERRUPTION)
  35:.././hal/sam3u1c/sleep.c ****  * HOWEVER CAUSED AND ON ANY THEORY OF LIABILITY, WHETHER IN CONTRACT,
  36:.././hal/sam3u1c/sleep.c ****  * STRICT LIABILITY, OR TORT (INCLUDING NEGLIGENCE OR OTHERWISE) ARISING IN
  37:.././hal/sam3u1c/sleep.c ****  * ANY WAY OUT OF THE USE OF THIS SOFTWARE, EVEN IF ADVISED OF THE
  38:.././hal/sam3u1c/sleep.c ****  * POSSIBILITY OF SUCH DAMAGE.
  39:.././hal/sam3u1c/sleep.c ****  *
  40:.././hal/sam3u1c/sleep.c ****  * \asf_license_stop
  41:.././hal/sam3u1c/sleep.c ****  *
  42:.././hal/sam3u1c/sleep.c ****  */
  43:.././hal/sam3u1c/sleep.c **** 
  44:.././hal/sam3u1c/sleep.c **** #include <compiler.h>
  45:.././hal/sam3u1c/sleep.c **** #include "sleep.h"
  46:.././hal/sam3u1c/sleep.c **** 
  47:.././hal/sam3u1c/sleep.c **** /* SAM3 and SAM4 series */
  48:.././hal/sam3u1c/sleep.c **** #if (SAM3S || SAM3N || SAM3XA || SAM3U || SAM4S || SAM4E || SAM4N || SAM4C || \
  49:.././hal/sam3u1c/sleep.c **** 		SAM4CM || SAMG || SAM4CP)
  50:.././hal/sam3u1c/sleep.c **** # include "pmc.h"
  51:.././hal/sam3u1c/sleep.c **** # include "board.h"
  52:.././hal/sam3u1c/sleep.c **** 
  53:.././hal/sam3u1c/sleep.c **** /* Checking board configuration of main clock xtal statup time */
  54:.././hal/sam3u1c/sleep.c **** #if !defined(BOARD_OSC_STARTUP_US)
  55:.././hal/sam3u1c/sleep.c **** # warning The board main clock xtal statup time has not been defined. Using default settings.
  56:.././hal/sam3u1c/sleep.c **** # define BOARD_OSC_STARTUP_US    (15625UL)
  57:.././hal/sam3u1c/sleep.c **** #endif
  58:.././hal/sam3u1c/sleep.c **** 
  59:.././hal/sam3u1c/sleep.c **** #if !defined(EFC0)
  60:.././hal/sam3u1c/sleep.c **** # define EFC0 EFC
  61:.././hal/sam3u1c/sleep.c **** #endif
  62:.././hal/sam3u1c/sleep.c **** 
  63:.././hal/sam3u1c/sleep.c **** /**
  64:.././hal/sam3u1c/sleep.c ****  * Save clock settings and shutdown PLLs
  65:.././hal/sam3u1c/sleep.c ****  */
  66:.././hal/sam3u1c/sleep.c **** __always_inline static void pmc_save_clock_settings(
  67:.././hal/sam3u1c/sleep.c **** 		uint32_t *p_osc_setting,
  68:.././hal/sam3u1c/sleep.c **** 		uint32_t *p_pll0_setting,
  69:.././hal/sam3u1c/sleep.c **** 		uint32_t *p_pll1_setting,
  70:.././hal/sam3u1c/sleep.c **** 		uint32_t *p_mck_setting,
  71:.././hal/sam3u1c/sleep.c **** 		uint32_t *p_fmr_setting,
  72:.././hal/sam3u1c/sleep.c **** #if defined(EFC1)
  73:.././hal/sam3u1c/sleep.c **** 		uint32_t *p_fmr_setting1,
  74:.././hal/sam3u1c/sleep.c **** #endif
  75:.././hal/sam3u1c/sleep.c **** 		const bool disable_xtal)
  76:.././hal/sam3u1c/sleep.c **** {
  77:.././hal/sam3u1c/sleep.c **** 	uint32_t mor  = PMC->CKGR_MOR;
  78:.././hal/sam3u1c/sleep.c **** 	uint32_t mckr = PMC->PMC_MCKR;
  79:.././hal/sam3u1c/sleep.c **** 	uint32_t fmr  = EFC0->EEFC_FMR;
  80:.././hal/sam3u1c/sleep.c **** # if defined(EFC1)
  81:.././hal/sam3u1c/sleep.c **** 	uint32_t fmr1 = EFC1->EEFC_FMR;
  82:.././hal/sam3u1c/sleep.c **** # endif
  83:.././hal/sam3u1c/sleep.c **** 
  84:.././hal/sam3u1c/sleep.c **** 	if (p_osc_setting) {
  85:.././hal/sam3u1c/sleep.c **** 		*p_osc_setting = mor;
  86:.././hal/sam3u1c/sleep.c **** 	}
  87:.././hal/sam3u1c/sleep.c **** 	if (p_pll0_setting) {
  88:.././hal/sam3u1c/sleep.c **** 		*p_pll0_setting = PMC->CKGR_PLLAR;
  89:.././hal/sam3u1c/sleep.c **** 	}
  90:.././hal/sam3u1c/sleep.c **** 	if (p_pll1_setting) {
  91:.././hal/sam3u1c/sleep.c **** #if (SAM3S || SAM4S || SAM4C || SAM4CM || SAM4CP)
  92:.././hal/sam3u1c/sleep.c **** 		*p_pll1_setting = PMC->CKGR_PLLBR;
  93:.././hal/sam3u1c/sleep.c **** #elif (SAM3U || SAM3XA)
  94:.././hal/sam3u1c/sleep.c **** 		*p_pll1_setting = PMC->CKGR_UCKR;
  95:.././hal/sam3u1c/sleep.c **** #else
  96:.././hal/sam3u1c/sleep.c **** 		*p_pll1_setting = 0;
  97:.././hal/sam3u1c/sleep.c **** #endif
  98:.././hal/sam3u1c/sleep.c **** 	}
  99:.././hal/sam3u1c/sleep.c **** 	if (p_mck_setting) {
 100:.././hal/sam3u1c/sleep.c **** 		*p_mck_setting  = mckr;
 101:.././hal/sam3u1c/sleep.c **** 	}
 102:.././hal/sam3u1c/sleep.c **** 	if (p_fmr_setting) {
 103:.././hal/sam3u1c/sleep.c **** 		*p_fmr_setting  = fmr;
 104:.././hal/sam3u1c/sleep.c **** 	}
 105:.././hal/sam3u1c/sleep.c **** #if defined(EFC1)
 106:.././hal/sam3u1c/sleep.c **** 	if (p_fmr_setting1) {
 107:.././hal/sam3u1c/sleep.c **** 		*p_fmr_setting1 = fmr1;
 108:.././hal/sam3u1c/sleep.c **** 	}
 109:.././hal/sam3u1c/sleep.c **** #endif
 110:.././hal/sam3u1c/sleep.c **** 
 111:.././hal/sam3u1c/sleep.c **** 	/* Enable FAST RC */
 112:.././hal/sam3u1c/sleep.c **** 	PMC->CKGR_MOR = CKGR_MOR_KEY_PASSWD | mor | CKGR_MOR_MOSCRCEN;
 113:.././hal/sam3u1c/sleep.c **** 	/* if MCK source is PLL, switch to mainck */
 114:.././hal/sam3u1c/sleep.c **** 	if ((mckr & PMC_MCKR_CSS_Msk) > PMC_MCKR_CSS_MAIN_CLK) {
 115:.././hal/sam3u1c/sleep.c **** 		/* MCK -> MAINCK */
 116:.././hal/sam3u1c/sleep.c **** 		mckr = (mckr & (~PMC_MCKR_CSS_Msk)) | PMC_MCKR_CSS_MAIN_CLK;
 117:.././hal/sam3u1c/sleep.c **** 		PMC->PMC_MCKR = mckr;
 118:.././hal/sam3u1c/sleep.c **** 		while(!(PMC->PMC_SR & PMC_SR_MCKRDY));
 119:.././hal/sam3u1c/sleep.c **** 	}
 120:.././hal/sam3u1c/sleep.c **** 	/* MCK prescale -> 1 */
 121:.././hal/sam3u1c/sleep.c **** 	if (mckr & PMC_MCKR_PRES_Msk) {
 122:.././hal/sam3u1c/sleep.c **** 		mckr = (mckr & (~PMC_MCKR_PRES_Msk));
 123:.././hal/sam3u1c/sleep.c **** 		PMC->PMC_MCKR = mckr;
 124:.././hal/sam3u1c/sleep.c **** 		while(!(PMC->PMC_SR & PMC_SR_MCKRDY));
 125:.././hal/sam3u1c/sleep.c **** 	}
 126:.././hal/sam3u1c/sleep.c **** 	/* Disable PLLs */
 127:.././hal/sam3u1c/sleep.c **** 	pmc_disable_pllack();
 128:.././hal/sam3u1c/sleep.c **** #if (SAM3S || SAM4S || SAM4C || SAM4CM || SAM4CP)
 129:.././hal/sam3u1c/sleep.c **** 	pmc_disable_pllbck();
 130:.././hal/sam3u1c/sleep.c **** #elif (SAM3U || SAM3XA)
 131:.././hal/sam3u1c/sleep.c **** 	pmc_disable_upll_clock();
 132:.././hal/sam3u1c/sleep.c **** #endif
 133:.././hal/sam3u1c/sleep.c **** 
 134:.././hal/sam3u1c/sleep.c **** 	/* Prepare for entering WAIT mode */
 135:.././hal/sam3u1c/sleep.c **** 	/* Wait fast RC ready */
 136:.././hal/sam3u1c/sleep.c **** 	while (!(PMC->PMC_SR & PMC_SR_MOSCRCS));
 137:.././hal/sam3u1c/sleep.c **** 
 138:.././hal/sam3u1c/sleep.c **** 	/* Switch mainck to FAST RC */
 139:.././hal/sam3u1c/sleep.c **** #if SAMG
 140:.././hal/sam3u1c/sleep.c **** 	/**
 141:.././hal/sam3u1c/sleep.c **** 	 * For the sleepwalking feature, we need an accurate RC clock. Only 24M and
 142:.././hal/sam3u1c/sleep.c **** 	 * 16M are trimmed in production. Here we select the 24M.
 143:.././hal/sam3u1c/sleep.c **** 	 * And so wait state need to be 1.
 144:.././hal/sam3u1c/sleep.c **** 	 */
 145:.././hal/sam3u1c/sleep.c **** 	EFC0->EEFC_FMR = (fmr & (~EEFC_FMR_FWS_Msk)) | EEFC_FMR_FWS(1);
 146:.././hal/sam3u1c/sleep.c **** 
 147:.././hal/sam3u1c/sleep.c **** 	PMC->CKGR_MOR = (PMC->CKGR_MOR & ~CKGR_MOR_MOSCSEL) | CKGR_MOR_MOSCRCF_24_MHz |
 148:.././hal/sam3u1c/sleep.c **** 			CKGR_MOR_KEY_PASSWD;
 149:.././hal/sam3u1c/sleep.c **** #else
 150:.././hal/sam3u1c/sleep.c **** 	PMC->CKGR_MOR = (PMC->CKGR_MOR & ~CKGR_MOR_MOSCSEL) |
 151:.././hal/sam3u1c/sleep.c **** 			CKGR_MOR_KEY_PASSWD;
 152:.././hal/sam3u1c/sleep.c **** #endif
 153:.././hal/sam3u1c/sleep.c **** 	while (!(PMC->PMC_SR & PMC_SR_MOSCSELS));
 154:.././hal/sam3u1c/sleep.c **** 
 155:.././hal/sam3u1c/sleep.c **** #if (!SAMG)
 156:.././hal/sam3u1c/sleep.c **** 	/* FWS update */
 157:.././hal/sam3u1c/sleep.c **** 	EFC0->EEFC_FMR = fmr & (~EEFC_FMR_FWS_Msk);
 158:.././hal/sam3u1c/sleep.c **** #if defined(EFC1)
 159:.././hal/sam3u1c/sleep.c **** 	EFC1->EEFC_FMR = fmr1 & (~EEFC_FMR_FWS_Msk);
 160:.././hal/sam3u1c/sleep.c **** #endif
 161:.././hal/sam3u1c/sleep.c **** #endif
 162:.././hal/sam3u1c/sleep.c **** 
 163:.././hal/sam3u1c/sleep.c **** 	/* Disable XTALs */
 164:.././hal/sam3u1c/sleep.c **** 	if (disable_xtal) {
 165:.././hal/sam3u1c/sleep.c **** 		PMC->CKGR_MOR = (PMC->CKGR_MOR & ~CKGR_MOR_MOSCXTEN) |
 166:.././hal/sam3u1c/sleep.c **** 				CKGR_MOR_KEY_PASSWD;
 167:.././hal/sam3u1c/sleep.c **** 	}
 168:.././hal/sam3u1c/sleep.c **** }
 169:.././hal/sam3u1c/sleep.c **** 
 170:.././hal/sam3u1c/sleep.c **** /**
 171:.././hal/sam3u1c/sleep.c ****  * Restore clock settings
 172:.././hal/sam3u1c/sleep.c ****  */
 173:.././hal/sam3u1c/sleep.c **** __always_inline static void pmc_restore_clock_setting(
 174:.././hal/sam3u1c/sleep.c **** 		const uint32_t osc_setting,
 175:.././hal/sam3u1c/sleep.c **** 		const uint32_t pll0_setting,
 176:.././hal/sam3u1c/sleep.c **** 		const uint32_t pll1_setting,
 177:.././hal/sam3u1c/sleep.c **** 		const uint32_t mck_setting,
 178:.././hal/sam3u1c/sleep.c **** 		const uint32_t fmr_setting
 179:.././hal/sam3u1c/sleep.c **** #if defined(EFC1)
 180:.././hal/sam3u1c/sleep.c **** 		, const uint32_t fmr_setting1
 181:.././hal/sam3u1c/sleep.c **** #endif
 182:.././hal/sam3u1c/sleep.c **** 		)
 183:.././hal/sam3u1c/sleep.c **** {
 184:.././hal/sam3u1c/sleep.c **** 	uint32_t mckr;
 185:.././hal/sam3u1c/sleep.c **** 	uint32_t pll_sr = 0;
 186:.././hal/sam3u1c/sleep.c **** 
 187:.././hal/sam3u1c/sleep.c **** 	/* Switch mainck to external xtal */
 188:.././hal/sam3u1c/sleep.c **** 	if (CKGR_MOR_MOSCXTBY == (osc_setting & CKGR_MOR_MOSCXTBY)) {
 189:.././hal/sam3u1c/sleep.c **** 		/* Bypass mode */
 190:.././hal/sam3u1c/sleep.c **** 		PMC->CKGR_MOR = (PMC->CKGR_MOR & ~CKGR_MOR_MOSCXTEN) |
 191:.././hal/sam3u1c/sleep.c **** 				CKGR_MOR_KEY_PASSWD | CKGR_MOR_MOSCXTBY |
 192:.././hal/sam3u1c/sleep.c **** 				CKGR_MOR_MOSCSEL;
 193:.././hal/sam3u1c/sleep.c **** 		PMC->CKGR_MOR = (PMC->CKGR_MOR & ~CKGR_MOR_MOSCRCEN &
 194:.././hal/sam3u1c/sleep.c **** 					~CKGR_MOR_MOSCRCF_Msk)
 195:.././hal/sam3u1c/sleep.c **** 				| CKGR_MOR_KEY_PASSWD;
 196:.././hal/sam3u1c/sleep.c **** 	} else if (CKGR_MOR_MOSCXTEN == (osc_setting & CKGR_MOR_MOSCXTEN)) {
 197:.././hal/sam3u1c/sleep.c **** 		/* Enable External XTAL */
 198:.././hal/sam3u1c/sleep.c **** 		if (!(PMC->CKGR_MOR & CKGR_MOR_MOSCXTEN)) {
 199:.././hal/sam3u1c/sleep.c **** 			PMC->CKGR_MOR = (PMC->CKGR_MOR & ~CKGR_MOR_MOSCXTBY) |
 200:.././hal/sam3u1c/sleep.c **** 					CKGR_MOR_KEY_PASSWD | CKGR_MOR_MOSCXTEN;
 201:.././hal/sam3u1c/sleep.c **** 			/* Wait the Xtal to stabilize */
 202:.././hal/sam3u1c/sleep.c **** 			while (!(PMC->PMC_SR & PMC_SR_MOSCXTS));
 203:.././hal/sam3u1c/sleep.c **** 		}
 204:.././hal/sam3u1c/sleep.c **** 		/* Select External XTAL */
 205:.././hal/sam3u1c/sleep.c **** 		if (!(PMC->CKGR_MOR & CKGR_MOR_MOSCSEL)) {
 206:.././hal/sam3u1c/sleep.c **** 			PMC->CKGR_MOR |= CKGR_MOR_KEY_PASSWD | CKGR_MOR_MOSCSEL;
 207:.././hal/sam3u1c/sleep.c **** 			while (!(PMC->PMC_SR & PMC_SR_MOSCSELS));
 208:.././hal/sam3u1c/sleep.c **** 		}
 209:.././hal/sam3u1c/sleep.c **** 		/* Disable Fast RC */
 210:.././hal/sam3u1c/sleep.c **** 		PMC->CKGR_MOR = (PMC->CKGR_MOR & ~CKGR_MOR_MOSCRCEN &
 211:.././hal/sam3u1c/sleep.c **** 						~CKGR_MOR_MOSCRCF_Msk)
 212:.././hal/sam3u1c/sleep.c **** 					| CKGR_MOR_KEY_PASSWD;
 213:.././hal/sam3u1c/sleep.c **** 	}
 214:.././hal/sam3u1c/sleep.c **** 
 215:.././hal/sam3u1c/sleep.c **** 	if (pll0_setting & CKGR_PLLAR_MULA_Msk) {
 216:.././hal/sam3u1c/sleep.c **** #if (SAM4C || SAM4CM || SAMG || SAM4CP)
 217:.././hal/sam3u1c/sleep.c **** 		PMC->CKGR_PLLAR = pll0_setting;
 218:.././hal/sam3u1c/sleep.c **** #else
 219:.././hal/sam3u1c/sleep.c **** 		PMC->CKGR_PLLAR = CKGR_PLLAR_ONE | pll0_setting;
 220:.././hal/sam3u1c/sleep.c **** #endif
 221:.././hal/sam3u1c/sleep.c **** 		pll_sr |= PMC_SR_LOCKA;
 222:.././hal/sam3u1c/sleep.c **** 	}
 223:.././hal/sam3u1c/sleep.c **** #if (SAM3S || SAM4S || SAM4C || SAM4CM || SAM4CP)
 224:.././hal/sam3u1c/sleep.c **** 	if (pll1_setting & CKGR_PLLBR_MULB_Msk) {
 225:.././hal/sam3u1c/sleep.c **** 		PMC->CKGR_PLLBR = pll1_setting;
 226:.././hal/sam3u1c/sleep.c **** 		pll_sr |= PMC_SR_LOCKB;
 227:.././hal/sam3u1c/sleep.c **** 	}
 228:.././hal/sam3u1c/sleep.c **** #elif (SAM3U || SAM3XA)
 229:.././hal/sam3u1c/sleep.c **** 	if (pll1_setting & CKGR_UCKR_UPLLEN) {
 230:.././hal/sam3u1c/sleep.c **** 		PMC->CKGR_UCKR = pll1_setting;
 231:.././hal/sam3u1c/sleep.c **** 		pll_sr |= PMC_SR_LOCKU;
 232:.././hal/sam3u1c/sleep.c **** 	}
 233:.././hal/sam3u1c/sleep.c **** #else
 234:.././hal/sam3u1c/sleep.c **** 	UNUSED(pll1_setting);
 235:.././hal/sam3u1c/sleep.c **** #endif
 236:.././hal/sam3u1c/sleep.c **** 	/* Wait MCK source ready */
 237:.././hal/sam3u1c/sleep.c **** 	switch(mck_setting & PMC_MCKR_CSS_Msk) {
 238:.././hal/sam3u1c/sleep.c **** 	case PMC_MCKR_CSS_PLLA_CLK:
 239:.././hal/sam3u1c/sleep.c **** 		while (!(PMC->PMC_SR & PMC_SR_LOCKA));
 240:.././hal/sam3u1c/sleep.c **** 		break;
 241:.././hal/sam3u1c/sleep.c **** #if (SAM3S || SAM4S || SAM4C || SAM4CM || SAM4CP)
 242:.././hal/sam3u1c/sleep.c **** 	case PMC_MCKR_CSS_PLLB_CLK:
 243:.././hal/sam3u1c/sleep.c **** 		while (!(PMC->PMC_SR & PMC_SR_LOCKB));
 244:.././hal/sam3u1c/sleep.c **** 		break;
 245:.././hal/sam3u1c/sleep.c **** #elif (SAM3U || SAM3XA)
 246:.././hal/sam3u1c/sleep.c **** 	case PMC_MCKR_CSS_UPLL_CLK:
 247:.././hal/sam3u1c/sleep.c **** 		while (!(PMC->PMC_SR & PMC_SR_LOCKU));
 248:.././hal/sam3u1c/sleep.c **** 		break;
 249:.././hal/sam3u1c/sleep.c **** #endif
 250:.././hal/sam3u1c/sleep.c **** 	}
 251:.././hal/sam3u1c/sleep.c **** 
 252:.././hal/sam3u1c/sleep.c **** 	/* Switch to faster clock */
 253:.././hal/sam3u1c/sleep.c **** 	mckr = PMC->PMC_MCKR;
 254:.././hal/sam3u1c/sleep.c **** 
 255:.././hal/sam3u1c/sleep.c **** 	/* Set PRES */
 256:.././hal/sam3u1c/sleep.c **** 	PMC->PMC_MCKR = (mckr & ~PMC_MCKR_PRES_Msk)
 257:.././hal/sam3u1c/sleep.c **** 		| (mck_setting & PMC_MCKR_PRES_Msk);
 258:.././hal/sam3u1c/sleep.c **** 	while (!(PMC->PMC_SR & PMC_SR_MCKRDY));
 259:.././hal/sam3u1c/sleep.c **** 
 260:.././hal/sam3u1c/sleep.c **** 	/* Restore flash wait states */
 261:.././hal/sam3u1c/sleep.c **** 	EFC0->EEFC_FMR = fmr_setting;
 262:.././hal/sam3u1c/sleep.c **** #if defined(EFC1)
 263:.././hal/sam3u1c/sleep.c **** 	EFC1->EEFC_FMR = fmr_setting1;
 264:.././hal/sam3u1c/sleep.c **** #endif
 265:.././hal/sam3u1c/sleep.c **** 
 266:.././hal/sam3u1c/sleep.c **** 	/* Set CSS and others */
 267:.././hal/sam3u1c/sleep.c **** 	PMC->PMC_MCKR = mck_setting;
 268:.././hal/sam3u1c/sleep.c **** 	while (!(PMC->PMC_SR & PMC_SR_MCKRDY));
 269:.././hal/sam3u1c/sleep.c **** 
 270:.././hal/sam3u1c/sleep.c **** 	/* Waiting all restored PLLs ready */
 271:.././hal/sam3u1c/sleep.c **** 	while (!(PMC->PMC_SR & pll_sr));
 272:.././hal/sam3u1c/sleep.c **** }
 273:.././hal/sam3u1c/sleep.c **** 
 274:.././hal/sam3u1c/sleep.c **** /** If clocks are switched for some sleep mode */
 275:.././hal/sam3u1c/sleep.c **** static volatile bool b_is_sleep_clock_used = false;
 276:.././hal/sam3u1c/sleep.c **** /** Callback invoked once when clocks are restored */
 277:.././hal/sam3u1c/sleep.c **** static pmc_callback_wakeup_clocks_restored_t callback_clocks_restored = NULL;
 278:.././hal/sam3u1c/sleep.c **** 
 279:.././hal/sam3u1c/sleep.c **** void pmc_sleep(int sleep_mode)
 280:.././hal/sam3u1c/sleep.c **** {
  48              	 .loc 1 280 0
  49              	 .cfi_startproc
  50              	 
  51              	 
  52 0000 B0B5     	 push {r4,r5,r7,lr}
  53              	.LCFI0:
  54              	 .cfi_def_cfa_offset 16
  55              	 .cfi_offset 4,-16
  56              	 .cfi_offset 5,-12
  57              	 .cfi_offset 7,-8
  58              	 .cfi_offset 14,-4
  59 0002 9CB0     	 sub sp,sp,#112
  60              	.LCFI1:
  61              	 .cfi_def_cfa_offset 128
  62 0004 00AF     	 add r7,sp,#0
  63              	.LCFI2:
  64              	 .cfi_def_cfa_register 7
  65 0006 7860     	 str r0,[r7,#4]
 281:.././hal/sam3u1c/sleep.c **** 	switch (sleep_mode) {
  66              	 .loc 1 281 0
  67 0008 7B68     	 ldr r3,[r7,#4]
  68 000a 013B     	 subs r3,r3,#1
  69 000c 042B     	 cmp r3,#4
  70 000e 00F2D981 	 bhi .L39
  71 0012 01A2     	 adr r2,.L4
  72 0014 52F823F0 	 ldr pc,[r2,r3,lsl#2]
  73              	 .p2align 2
  74              	.L4:
  75 0018 2D000000 	 .word .L3+1
  76 001c 2D000000 	 .word .L3+1
  77 0020 5F000000 	 .word .L5+1
  78 0024 5F000000 	 .word .L5+1
  79 0028 A9030000 	 .word .L6+1
  80              	 .p2align 1
  81              	.L3:
 282:.././hal/sam3u1c/sleep.c **** #if (!(SAMG51 || SAMG53 || SAMG54))
 283:.././hal/sam3u1c/sleep.c **** 	case SAM_PM_SMODE_SLEEP_WFI:
 284:.././hal/sam3u1c/sleep.c **** 	case SAM_PM_SMODE_SLEEP_WFE:
 285:.././hal/sam3u1c/sleep.c **** #if (SAM4S || SAM4E || SAM4N || SAM4C || SAM4CM || SAM4CP || SAMG55)
 286:.././hal/sam3u1c/sleep.c **** 		SCB->SCR &= (uint32_t)~SCR_SLEEPDEEP;
 287:.././hal/sam3u1c/sleep.c **** 		cpu_irq_enable();
 288:.././hal/sam3u1c/sleep.c **** 		__WFI();
 289:.././hal/sam3u1c/sleep.c **** 		break;
 290:.././hal/sam3u1c/sleep.c **** #else
 291:.././hal/sam3u1c/sleep.c **** 		PMC->PMC_FSMR &= (uint32_t)~PMC_FSMR_LPM;
  82              	 .loc 1 291 0
  83 002c 804B     	 ldr r3,.L40
  84 002e 1B6F     	 ldr r3,[r3,#112]
  85 0030 7F4A     	 ldr r2,.L40
  86 0032 23F48013 	 bic r3,r3,#1048576
  87 0036 1367     	 str r3,[r2,#112]
 292:.././hal/sam3u1c/sleep.c **** 		SCB->SCR &= (uint32_t)~SCR_SLEEPDEEP;
  88              	 .loc 1 292 0
  89 0038 7E4B     	 ldr r3,.L40+4
  90 003a 1B69     	 ldr r3,[r3,#16]
  91 003c 7D4A     	 ldr r2,.L40+4
  92 003e 23F00403 	 bic r3,r3,#4
  93 0042 1361     	 str r3,[r2,#16]
 293:.././hal/sam3u1c/sleep.c **** 		cpu_irq_enable();
  94              	 .loc 1 293 0
  95 0044 7C4B     	 ldr r3,.L40+8
  96 0046 0122     	 movs r2,#1
  97 0048 1A70     	 strb r2,[r3]
  98              	.LBB41:
  99              	.LBB42:
 100              	 .file 2 ".././hal/sam3u1c/inc/core_cmInstr.h"
   1:.././hal/sam3u1c/inc/core_cmInstr.h **** /**************************************************************************//**
   2:.././hal/sam3u1c/inc/core_cmInstr.h ****  * @file     core_cmInstr.h
   3:.././hal/sam3u1c/inc/core_cmInstr.h ****  * @brief    CMSIS Cortex-M Core Instruction Access Header File
   4:.././hal/sam3u1c/inc/core_cmInstr.h ****  * @version  V3.00
   5:.././hal/sam3u1c/inc/core_cmInstr.h ****  * @date     07. February 2012
   6:.././hal/sam3u1c/inc/core_cmInstr.h ****  *
   7:.././hal/sam3u1c/inc/core_cmInstr.h ****  * @note
   8:.././hal/sam3u1c/inc/core_cmInstr.h ****  * Copyright (C) 2009-2012 ARM Limited. All rights reserved.
   9:.././hal/sam3u1c/inc/core_cmInstr.h ****  *
  10:.././hal/sam3u1c/inc/core_cmInstr.h ****  * @par
  11:.././hal/sam3u1c/inc/core_cmInstr.h ****  * ARM Limited (ARM) is supplying this software for use with Cortex-M
  12:.././hal/sam3u1c/inc/core_cmInstr.h ****  * processor based microcontrollers.  This file can be freely distributed
  13:.././hal/sam3u1c/inc/core_cmInstr.h ****  * within development tools that are supporting such ARM based processors.
  14:.././hal/sam3u1c/inc/core_cmInstr.h ****  *
  15:.././hal/sam3u1c/inc/core_cmInstr.h ****  * @par
  16:.././hal/sam3u1c/inc/core_cmInstr.h ****  * THIS SOFTWARE IS PROVIDED "AS IS".  NO WARRANTIES, WHETHER EXPRESS, IMPLIED
  17:.././hal/sam3u1c/inc/core_cmInstr.h ****  * OR STATUTORY, INCLUDING, BUT NOT LIMITED TO, IMPLIED WARRANTIES OF
  18:.././hal/sam3u1c/inc/core_cmInstr.h ****  * MERCHANTABILITY AND FITNESS FOR A PARTICULAR PURPOSE APPLY TO THIS SOFTWARE.
  19:.././hal/sam3u1c/inc/core_cmInstr.h ****  * ARM SHALL NOT, IN ANY CIRCUMSTANCES, BE LIABLE FOR SPECIAL, INCIDENTAL, OR
  20:.././hal/sam3u1c/inc/core_cmInstr.h ****  * CONSEQUENTIAL DAMAGES, FOR ANY REASON WHATSOEVER.
  21:.././hal/sam3u1c/inc/core_cmInstr.h ****  *
  22:.././hal/sam3u1c/inc/core_cmInstr.h ****  ******************************************************************************/
  23:.././hal/sam3u1c/inc/core_cmInstr.h **** 
  24:.././hal/sam3u1c/inc/core_cmInstr.h **** #ifndef __CORE_CMINSTR_H
  25:.././hal/sam3u1c/inc/core_cmInstr.h **** #define __CORE_CMINSTR_H
  26:.././hal/sam3u1c/inc/core_cmInstr.h **** 
  27:.././hal/sam3u1c/inc/core_cmInstr.h **** 
  28:.././hal/sam3u1c/inc/core_cmInstr.h **** /* ##########################  Core Instruction Access  ######################### */
  29:.././hal/sam3u1c/inc/core_cmInstr.h **** /** \defgroup CMSIS_Core_InstructionInterface CMSIS Core Instruction Interface
  30:.././hal/sam3u1c/inc/core_cmInstr.h ****   Access to dedicated instructions
  31:.././hal/sam3u1c/inc/core_cmInstr.h ****   @{
  32:.././hal/sam3u1c/inc/core_cmInstr.h **** */
  33:.././hal/sam3u1c/inc/core_cmInstr.h **** 
  34:.././hal/sam3u1c/inc/core_cmInstr.h **** #if   defined ( __CC_ARM ) /*------------------RealView Compiler -----------------*/
  35:.././hal/sam3u1c/inc/core_cmInstr.h **** /* ARM armcc specific functions */
  36:.././hal/sam3u1c/inc/core_cmInstr.h **** 
  37:.././hal/sam3u1c/inc/core_cmInstr.h **** #if (__ARMCC_VERSION < 400677)
  38:.././hal/sam3u1c/inc/core_cmInstr.h ****   #error "Please use ARM Compiler Toolchain V4.0.677 or later!"
  39:.././hal/sam3u1c/inc/core_cmInstr.h **** #endif
  40:.././hal/sam3u1c/inc/core_cmInstr.h **** 
  41:.././hal/sam3u1c/inc/core_cmInstr.h **** 
  42:.././hal/sam3u1c/inc/core_cmInstr.h **** /** \brief  No Operation
  43:.././hal/sam3u1c/inc/core_cmInstr.h **** 
  44:.././hal/sam3u1c/inc/core_cmInstr.h ****     No Operation does nothing. This instruction can be used for code alignment purposes.
  45:.././hal/sam3u1c/inc/core_cmInstr.h ****  */
  46:.././hal/sam3u1c/inc/core_cmInstr.h **** #define __NOP                             __nop
  47:.././hal/sam3u1c/inc/core_cmInstr.h **** 
  48:.././hal/sam3u1c/inc/core_cmInstr.h **** 
  49:.././hal/sam3u1c/inc/core_cmInstr.h **** /** \brief  Wait For Interrupt
  50:.././hal/sam3u1c/inc/core_cmInstr.h **** 
  51:.././hal/sam3u1c/inc/core_cmInstr.h ****     Wait For Interrupt is a hint instruction that suspends execution
  52:.././hal/sam3u1c/inc/core_cmInstr.h ****     until one of a number of events occurs.
  53:.././hal/sam3u1c/inc/core_cmInstr.h ****  */
  54:.././hal/sam3u1c/inc/core_cmInstr.h **** #define __WFI                             __wfi
  55:.././hal/sam3u1c/inc/core_cmInstr.h **** 
  56:.././hal/sam3u1c/inc/core_cmInstr.h **** 
  57:.././hal/sam3u1c/inc/core_cmInstr.h **** /** \brief  Wait For Event
  58:.././hal/sam3u1c/inc/core_cmInstr.h **** 
  59:.././hal/sam3u1c/inc/core_cmInstr.h ****     Wait For Event is a hint instruction that permits the processor to enter
  60:.././hal/sam3u1c/inc/core_cmInstr.h ****     a low-power state until one of a number of events occurs.
  61:.././hal/sam3u1c/inc/core_cmInstr.h ****  */
  62:.././hal/sam3u1c/inc/core_cmInstr.h **** #define __WFE                             __wfe
  63:.././hal/sam3u1c/inc/core_cmInstr.h **** 
  64:.././hal/sam3u1c/inc/core_cmInstr.h **** 
  65:.././hal/sam3u1c/inc/core_cmInstr.h **** /** \brief  Send Event
  66:.././hal/sam3u1c/inc/core_cmInstr.h **** 
  67:.././hal/sam3u1c/inc/core_cmInstr.h ****     Send Event is a hint instruction. It causes an event to be signaled to the CPU.
  68:.././hal/sam3u1c/inc/core_cmInstr.h ****  */
  69:.././hal/sam3u1c/inc/core_cmInstr.h **** #define __SEV                             __sev
  70:.././hal/sam3u1c/inc/core_cmInstr.h **** 
  71:.././hal/sam3u1c/inc/core_cmInstr.h **** 
  72:.././hal/sam3u1c/inc/core_cmInstr.h **** /** \brief  Instruction Synchronization Barrier
  73:.././hal/sam3u1c/inc/core_cmInstr.h **** 
  74:.././hal/sam3u1c/inc/core_cmInstr.h ****     Instruction Synchronization Barrier flushes the pipeline in the processor,
  75:.././hal/sam3u1c/inc/core_cmInstr.h ****     so that all instructions following the ISB are fetched from cache or
  76:.././hal/sam3u1c/inc/core_cmInstr.h ****     memory, after the instruction has been completed.
  77:.././hal/sam3u1c/inc/core_cmInstr.h ****  */
  78:.././hal/sam3u1c/inc/core_cmInstr.h **** #define __ISB()                           __isb(0xF)
  79:.././hal/sam3u1c/inc/core_cmInstr.h **** 
  80:.././hal/sam3u1c/inc/core_cmInstr.h **** 
  81:.././hal/sam3u1c/inc/core_cmInstr.h **** /** \brief  Data Synchronization Barrier
  82:.././hal/sam3u1c/inc/core_cmInstr.h **** 
  83:.././hal/sam3u1c/inc/core_cmInstr.h ****     This function acts as a special kind of Data Memory Barrier.
  84:.././hal/sam3u1c/inc/core_cmInstr.h ****     It completes when all explicit memory accesses before this instruction complete.
  85:.././hal/sam3u1c/inc/core_cmInstr.h ****  */
  86:.././hal/sam3u1c/inc/core_cmInstr.h **** #define __DSB()                           __dsb(0xF)
  87:.././hal/sam3u1c/inc/core_cmInstr.h **** 
  88:.././hal/sam3u1c/inc/core_cmInstr.h **** 
  89:.././hal/sam3u1c/inc/core_cmInstr.h **** /** \brief  Data Memory Barrier
  90:.././hal/sam3u1c/inc/core_cmInstr.h **** 
  91:.././hal/sam3u1c/inc/core_cmInstr.h ****     This function ensures the apparent order of the explicit memory operations before
  92:.././hal/sam3u1c/inc/core_cmInstr.h ****     and after the instruction, without ensuring their completion.
  93:.././hal/sam3u1c/inc/core_cmInstr.h ****  */
  94:.././hal/sam3u1c/inc/core_cmInstr.h **** #define __DMB()                           __dmb(0xF)
  95:.././hal/sam3u1c/inc/core_cmInstr.h **** 
  96:.././hal/sam3u1c/inc/core_cmInstr.h **** 
  97:.././hal/sam3u1c/inc/core_cmInstr.h **** /** \brief  Reverse byte order (32 bit)
  98:.././hal/sam3u1c/inc/core_cmInstr.h **** 
  99:.././hal/sam3u1c/inc/core_cmInstr.h ****     This function reverses the byte order in integer value.
 100:.././hal/sam3u1c/inc/core_cmInstr.h **** 
 101:.././hal/sam3u1c/inc/core_cmInstr.h ****     \param [in]    value  Value to reverse
 102:.././hal/sam3u1c/inc/core_cmInstr.h ****     \return               Reversed value
 103:.././hal/sam3u1c/inc/core_cmInstr.h ****  */
 104:.././hal/sam3u1c/inc/core_cmInstr.h **** #define __REV                             __rev
 105:.././hal/sam3u1c/inc/core_cmInstr.h **** 
 106:.././hal/sam3u1c/inc/core_cmInstr.h **** 
 107:.././hal/sam3u1c/inc/core_cmInstr.h **** /** \brief  Reverse byte order (16 bit)
 108:.././hal/sam3u1c/inc/core_cmInstr.h **** 
 109:.././hal/sam3u1c/inc/core_cmInstr.h ****     This function reverses the byte order in two unsigned short values.
 110:.././hal/sam3u1c/inc/core_cmInstr.h **** 
 111:.././hal/sam3u1c/inc/core_cmInstr.h ****     \param [in]    value  Value to reverse
 112:.././hal/sam3u1c/inc/core_cmInstr.h ****     \return               Reversed value
 113:.././hal/sam3u1c/inc/core_cmInstr.h ****  */
 114:.././hal/sam3u1c/inc/core_cmInstr.h **** __attribute__((section(".rev16_text"))) __STATIC_INLINE __ASM uint32_t __REV16(uint32_t value)
 115:.././hal/sam3u1c/inc/core_cmInstr.h **** {
 116:.././hal/sam3u1c/inc/core_cmInstr.h ****   rev16 r0, r0
 117:.././hal/sam3u1c/inc/core_cmInstr.h ****   bx lr
 118:.././hal/sam3u1c/inc/core_cmInstr.h **** }
 119:.././hal/sam3u1c/inc/core_cmInstr.h **** 
 120:.././hal/sam3u1c/inc/core_cmInstr.h **** 
 121:.././hal/sam3u1c/inc/core_cmInstr.h **** /** \brief  Reverse byte order in signed short value
 122:.././hal/sam3u1c/inc/core_cmInstr.h **** 
 123:.././hal/sam3u1c/inc/core_cmInstr.h ****     This function reverses the byte order in a signed short value with sign extension to integer.
 124:.././hal/sam3u1c/inc/core_cmInstr.h **** 
 125:.././hal/sam3u1c/inc/core_cmInstr.h ****     \param [in]    value  Value to reverse
 126:.././hal/sam3u1c/inc/core_cmInstr.h ****     \return               Reversed value
 127:.././hal/sam3u1c/inc/core_cmInstr.h ****  */
 128:.././hal/sam3u1c/inc/core_cmInstr.h **** __attribute__((section(".revsh_text"))) __STATIC_INLINE __ASM int32_t __REVSH(int32_t value)
 129:.././hal/sam3u1c/inc/core_cmInstr.h **** {
 130:.././hal/sam3u1c/inc/core_cmInstr.h ****   revsh r0, r0
 131:.././hal/sam3u1c/inc/core_cmInstr.h ****   bx lr
 132:.././hal/sam3u1c/inc/core_cmInstr.h **** }
 133:.././hal/sam3u1c/inc/core_cmInstr.h **** 
 134:.././hal/sam3u1c/inc/core_cmInstr.h **** 
 135:.././hal/sam3u1c/inc/core_cmInstr.h **** /** \brief  Rotate Right in unsigned value (32 bit)
 136:.././hal/sam3u1c/inc/core_cmInstr.h **** 
 137:.././hal/sam3u1c/inc/core_cmInstr.h ****     This function Rotate Right (immediate) provides the value of the contents of a register rotated
 138:.././hal/sam3u1c/inc/core_cmInstr.h **** 
 139:.././hal/sam3u1c/inc/core_cmInstr.h ****     \param [in]    value  Value to rotate
 140:.././hal/sam3u1c/inc/core_cmInstr.h ****     \param [in]    value  Number of Bits to rotate
 141:.././hal/sam3u1c/inc/core_cmInstr.h ****     \return               Rotated value
 142:.././hal/sam3u1c/inc/core_cmInstr.h ****  */
 143:.././hal/sam3u1c/inc/core_cmInstr.h **** #define __ROR                             __ror
 144:.././hal/sam3u1c/inc/core_cmInstr.h **** 
 145:.././hal/sam3u1c/inc/core_cmInstr.h **** 
 146:.././hal/sam3u1c/inc/core_cmInstr.h **** #if       (__CORTEX_M >= 0x03)
 147:.././hal/sam3u1c/inc/core_cmInstr.h **** 
 148:.././hal/sam3u1c/inc/core_cmInstr.h **** /** \brief  Reverse bit order of value
 149:.././hal/sam3u1c/inc/core_cmInstr.h **** 
 150:.././hal/sam3u1c/inc/core_cmInstr.h ****     This function reverses the bit order of the given value.
 151:.././hal/sam3u1c/inc/core_cmInstr.h **** 
 152:.././hal/sam3u1c/inc/core_cmInstr.h ****     \param [in]    value  Value to reverse
 153:.././hal/sam3u1c/inc/core_cmInstr.h ****     \return               Reversed value
 154:.././hal/sam3u1c/inc/core_cmInstr.h ****  */
 155:.././hal/sam3u1c/inc/core_cmInstr.h **** #define __RBIT                            __rbit
 156:.././hal/sam3u1c/inc/core_cmInstr.h **** 
 157:.././hal/sam3u1c/inc/core_cmInstr.h **** 
 158:.././hal/sam3u1c/inc/core_cmInstr.h **** /** \brief  LDR Exclusive (8 bit)
 159:.././hal/sam3u1c/inc/core_cmInstr.h **** 
 160:.././hal/sam3u1c/inc/core_cmInstr.h ****     This function performs a exclusive LDR command for 8 bit value.
 161:.././hal/sam3u1c/inc/core_cmInstr.h **** 
 162:.././hal/sam3u1c/inc/core_cmInstr.h ****     \param [in]    ptr  Pointer to data
 163:.././hal/sam3u1c/inc/core_cmInstr.h ****     \return             value of type uint8_t at (*ptr)
 164:.././hal/sam3u1c/inc/core_cmInstr.h ****  */
 165:.././hal/sam3u1c/inc/core_cmInstr.h **** #define __LDREXB(ptr)                     ((uint8_t ) __ldrex(ptr))
 166:.././hal/sam3u1c/inc/core_cmInstr.h **** 
 167:.././hal/sam3u1c/inc/core_cmInstr.h **** 
 168:.././hal/sam3u1c/inc/core_cmInstr.h **** /** \brief  LDR Exclusive (16 bit)
 169:.././hal/sam3u1c/inc/core_cmInstr.h **** 
 170:.././hal/sam3u1c/inc/core_cmInstr.h ****     This function performs a exclusive LDR command for 16 bit values.
 171:.././hal/sam3u1c/inc/core_cmInstr.h **** 
 172:.././hal/sam3u1c/inc/core_cmInstr.h ****     \param [in]    ptr  Pointer to data
 173:.././hal/sam3u1c/inc/core_cmInstr.h ****     \return        value of type uint16_t at (*ptr)
 174:.././hal/sam3u1c/inc/core_cmInstr.h ****  */
 175:.././hal/sam3u1c/inc/core_cmInstr.h **** #define __LDREXH(ptr)                     ((uint16_t) __ldrex(ptr))
 176:.././hal/sam3u1c/inc/core_cmInstr.h **** 
 177:.././hal/sam3u1c/inc/core_cmInstr.h **** 
 178:.././hal/sam3u1c/inc/core_cmInstr.h **** /** \brief  LDR Exclusive (32 bit)
 179:.././hal/sam3u1c/inc/core_cmInstr.h **** 
 180:.././hal/sam3u1c/inc/core_cmInstr.h ****     This function performs a exclusive LDR command for 32 bit values.
 181:.././hal/sam3u1c/inc/core_cmInstr.h **** 
 182:.././hal/sam3u1c/inc/core_cmInstr.h ****     \param [in]    ptr  Pointer to data
 183:.././hal/sam3u1c/inc/core_cmInstr.h ****     \return        value of type uint32_t at (*ptr)
 184:.././hal/sam3u1c/inc/core_cmInstr.h ****  */
 185:.././hal/sam3u1c/inc/core_cmInstr.h **** #define __LDREXW(ptr)                     ((uint32_t ) __ldrex(ptr))
 186:.././hal/sam3u1c/inc/core_cmInstr.h **** 
 187:.././hal/sam3u1c/inc/core_cmInstr.h **** 
 188:.././hal/sam3u1c/inc/core_cmInstr.h **** /** \brief  STR Exclusive (8 bit)
 189:.././hal/sam3u1c/inc/core_cmInstr.h **** 
 190:.././hal/sam3u1c/inc/core_cmInstr.h ****     This function performs a exclusive STR command for 8 bit values.
 191:.././hal/sam3u1c/inc/core_cmInstr.h **** 
 192:.././hal/sam3u1c/inc/core_cmInstr.h ****     \param [in]  value  Value to store
 193:.././hal/sam3u1c/inc/core_cmInstr.h ****     \param [in]    ptr  Pointer to location
 194:.././hal/sam3u1c/inc/core_cmInstr.h ****     \return          0  Function succeeded
 195:.././hal/sam3u1c/inc/core_cmInstr.h ****     \return          1  Function failed
 196:.././hal/sam3u1c/inc/core_cmInstr.h ****  */
 197:.././hal/sam3u1c/inc/core_cmInstr.h **** #define __STREXB(value, ptr)              __strex(value, ptr)
 198:.././hal/sam3u1c/inc/core_cmInstr.h **** 
 199:.././hal/sam3u1c/inc/core_cmInstr.h **** 
 200:.././hal/sam3u1c/inc/core_cmInstr.h **** /** \brief  STR Exclusive (16 bit)
 201:.././hal/sam3u1c/inc/core_cmInstr.h **** 
 202:.././hal/sam3u1c/inc/core_cmInstr.h ****     This function performs a exclusive STR command for 16 bit values.
 203:.././hal/sam3u1c/inc/core_cmInstr.h **** 
 204:.././hal/sam3u1c/inc/core_cmInstr.h ****     \param [in]  value  Value to store
 205:.././hal/sam3u1c/inc/core_cmInstr.h ****     \param [in]    ptr  Pointer to location
 206:.././hal/sam3u1c/inc/core_cmInstr.h ****     \return          0  Function succeeded
 207:.././hal/sam3u1c/inc/core_cmInstr.h ****     \return          1  Function failed
 208:.././hal/sam3u1c/inc/core_cmInstr.h ****  */
 209:.././hal/sam3u1c/inc/core_cmInstr.h **** #define __STREXH(value, ptr)              __strex(value, ptr)
 210:.././hal/sam3u1c/inc/core_cmInstr.h **** 
 211:.././hal/sam3u1c/inc/core_cmInstr.h **** 
 212:.././hal/sam3u1c/inc/core_cmInstr.h **** /** \brief  STR Exclusive (32 bit)
 213:.././hal/sam3u1c/inc/core_cmInstr.h **** 
 214:.././hal/sam3u1c/inc/core_cmInstr.h ****     This function performs a exclusive STR command for 32 bit values.
 215:.././hal/sam3u1c/inc/core_cmInstr.h **** 
 216:.././hal/sam3u1c/inc/core_cmInstr.h ****     \param [in]  value  Value to store
 217:.././hal/sam3u1c/inc/core_cmInstr.h ****     \param [in]    ptr  Pointer to location
 218:.././hal/sam3u1c/inc/core_cmInstr.h ****     \return          0  Function succeeded
 219:.././hal/sam3u1c/inc/core_cmInstr.h ****     \return          1  Function failed
 220:.././hal/sam3u1c/inc/core_cmInstr.h ****  */
 221:.././hal/sam3u1c/inc/core_cmInstr.h **** #define __STREXW(value, ptr)              __strex(value, ptr)
 222:.././hal/sam3u1c/inc/core_cmInstr.h **** 
 223:.././hal/sam3u1c/inc/core_cmInstr.h **** 
 224:.././hal/sam3u1c/inc/core_cmInstr.h **** /** \brief  Remove the exclusive lock
 225:.././hal/sam3u1c/inc/core_cmInstr.h **** 
 226:.././hal/sam3u1c/inc/core_cmInstr.h ****     This function removes the exclusive lock which is created by LDREX.
 227:.././hal/sam3u1c/inc/core_cmInstr.h **** 
 228:.././hal/sam3u1c/inc/core_cmInstr.h ****  */
 229:.././hal/sam3u1c/inc/core_cmInstr.h **** #define __CLREX                           __clrex
 230:.././hal/sam3u1c/inc/core_cmInstr.h **** 
 231:.././hal/sam3u1c/inc/core_cmInstr.h **** 
 232:.././hal/sam3u1c/inc/core_cmInstr.h **** /** \brief  Signed Saturate
 233:.././hal/sam3u1c/inc/core_cmInstr.h **** 
 234:.././hal/sam3u1c/inc/core_cmInstr.h ****     This function saturates a signed value.
 235:.././hal/sam3u1c/inc/core_cmInstr.h **** 
 236:.././hal/sam3u1c/inc/core_cmInstr.h ****     \param [in]  value  Value to be saturated
 237:.././hal/sam3u1c/inc/core_cmInstr.h ****     \param [in]    sat  Bit position to saturate to (1..32)
 238:.././hal/sam3u1c/inc/core_cmInstr.h ****     \return             Saturated value
 239:.././hal/sam3u1c/inc/core_cmInstr.h ****  */
 240:.././hal/sam3u1c/inc/core_cmInstr.h **** #define __SSAT                            __ssat
 241:.././hal/sam3u1c/inc/core_cmInstr.h **** 
 242:.././hal/sam3u1c/inc/core_cmInstr.h **** 
 243:.././hal/sam3u1c/inc/core_cmInstr.h **** /** \brief  Unsigned Saturate
 244:.././hal/sam3u1c/inc/core_cmInstr.h **** 
 245:.././hal/sam3u1c/inc/core_cmInstr.h ****     This function saturates an unsigned value.
 246:.././hal/sam3u1c/inc/core_cmInstr.h **** 
 247:.././hal/sam3u1c/inc/core_cmInstr.h ****     \param [in]  value  Value to be saturated
 248:.././hal/sam3u1c/inc/core_cmInstr.h ****     \param [in]    sat  Bit position to saturate to (0..31)
 249:.././hal/sam3u1c/inc/core_cmInstr.h ****     \return             Saturated value
 250:.././hal/sam3u1c/inc/core_cmInstr.h ****  */
 251:.././hal/sam3u1c/inc/core_cmInstr.h **** #define __USAT                            __usat
 252:.././hal/sam3u1c/inc/core_cmInstr.h **** 
 253:.././hal/sam3u1c/inc/core_cmInstr.h **** 
 254:.././hal/sam3u1c/inc/core_cmInstr.h **** /** \brief  Count leading zeros
 255:.././hal/sam3u1c/inc/core_cmInstr.h **** 
 256:.././hal/sam3u1c/inc/core_cmInstr.h ****     This function counts the number of leading zeros of a data value.
 257:.././hal/sam3u1c/inc/core_cmInstr.h **** 
 258:.././hal/sam3u1c/inc/core_cmInstr.h ****     \param [in]  value  Value to count the leading zeros
 259:.././hal/sam3u1c/inc/core_cmInstr.h ****     \return             number of leading zeros in value
 260:.././hal/sam3u1c/inc/core_cmInstr.h ****  */
 261:.././hal/sam3u1c/inc/core_cmInstr.h **** #define __CLZ                             __clz
 262:.././hal/sam3u1c/inc/core_cmInstr.h **** 
 263:.././hal/sam3u1c/inc/core_cmInstr.h **** #endif /* (__CORTEX_M >= 0x03) */
 264:.././hal/sam3u1c/inc/core_cmInstr.h **** 
 265:.././hal/sam3u1c/inc/core_cmInstr.h **** 
 266:.././hal/sam3u1c/inc/core_cmInstr.h **** 
 267:.././hal/sam3u1c/inc/core_cmInstr.h **** #elif defined ( __ICCARM__ ) /*------------------ ICC Compiler -------------------*/
 268:.././hal/sam3u1c/inc/core_cmInstr.h **** /* IAR iccarm specific functions */
 269:.././hal/sam3u1c/inc/core_cmInstr.h **** 
 270:.././hal/sam3u1c/inc/core_cmInstr.h **** #include <cmsis_iar.h>
 271:.././hal/sam3u1c/inc/core_cmInstr.h **** 
 272:.././hal/sam3u1c/inc/core_cmInstr.h **** 
 273:.././hal/sam3u1c/inc/core_cmInstr.h **** #elif defined ( __TMS470__ ) /*---------------- TI CCS Compiler ------------------*/
 274:.././hal/sam3u1c/inc/core_cmInstr.h **** /* TI CCS specific functions */
 275:.././hal/sam3u1c/inc/core_cmInstr.h **** 
 276:.././hal/sam3u1c/inc/core_cmInstr.h **** #include <cmsis_ccs.h>
 277:.././hal/sam3u1c/inc/core_cmInstr.h **** 
 278:.././hal/sam3u1c/inc/core_cmInstr.h **** 
 279:.././hal/sam3u1c/inc/core_cmInstr.h **** #elif defined ( __GNUC__ ) /*------------------ GNU Compiler ---------------------*/
 280:.././hal/sam3u1c/inc/core_cmInstr.h **** /* GNU gcc specific functions */
 281:.././hal/sam3u1c/inc/core_cmInstr.h **** 
 282:.././hal/sam3u1c/inc/core_cmInstr.h **** /** \brief  No Operation
 283:.././hal/sam3u1c/inc/core_cmInstr.h **** 
 284:.././hal/sam3u1c/inc/core_cmInstr.h ****     No Operation does nothing. This instruction can be used for code alignment purposes.
 285:.././hal/sam3u1c/inc/core_cmInstr.h ****  */
 286:.././hal/sam3u1c/inc/core_cmInstr.h **** __attribute__( ( always_inline ) ) __STATIC_INLINE void __NOP(void)
 287:.././hal/sam3u1c/inc/core_cmInstr.h **** {
 288:.././hal/sam3u1c/inc/core_cmInstr.h ****   __ASM volatile ("nop");
 289:.././hal/sam3u1c/inc/core_cmInstr.h **** }
 290:.././hal/sam3u1c/inc/core_cmInstr.h **** 
 291:.././hal/sam3u1c/inc/core_cmInstr.h **** 
 292:.././hal/sam3u1c/inc/core_cmInstr.h **** /** \brief  Wait For Interrupt
 293:.././hal/sam3u1c/inc/core_cmInstr.h **** 
 294:.././hal/sam3u1c/inc/core_cmInstr.h ****     Wait For Interrupt is a hint instruction that suspends execution
 295:.././hal/sam3u1c/inc/core_cmInstr.h ****     until one of a number of events occurs.
 296:.././hal/sam3u1c/inc/core_cmInstr.h ****  */
 297:.././hal/sam3u1c/inc/core_cmInstr.h **** __attribute__( ( always_inline ) ) __STATIC_INLINE void __WFI(void)
 298:.././hal/sam3u1c/inc/core_cmInstr.h **** {
 299:.././hal/sam3u1c/inc/core_cmInstr.h ****   __ASM volatile ("wfi");
 300:.././hal/sam3u1c/inc/core_cmInstr.h **** }
 301:.././hal/sam3u1c/inc/core_cmInstr.h **** 
 302:.././hal/sam3u1c/inc/core_cmInstr.h **** 
 303:.././hal/sam3u1c/inc/core_cmInstr.h **** /** \brief  Wait For Event
 304:.././hal/sam3u1c/inc/core_cmInstr.h **** 
 305:.././hal/sam3u1c/inc/core_cmInstr.h ****     Wait For Event is a hint instruction that permits the processor to enter
 306:.././hal/sam3u1c/inc/core_cmInstr.h ****     a low-power state until one of a number of events occurs.
 307:.././hal/sam3u1c/inc/core_cmInstr.h ****  */
 308:.././hal/sam3u1c/inc/core_cmInstr.h **** __attribute__( ( always_inline ) ) __STATIC_INLINE void __WFE(void)
 309:.././hal/sam3u1c/inc/core_cmInstr.h **** {
 310:.././hal/sam3u1c/inc/core_cmInstr.h ****   __ASM volatile ("wfe");
 311:.././hal/sam3u1c/inc/core_cmInstr.h **** }
 312:.././hal/sam3u1c/inc/core_cmInstr.h **** 
 313:.././hal/sam3u1c/inc/core_cmInstr.h **** 
 314:.././hal/sam3u1c/inc/core_cmInstr.h **** /** \brief  Send Event
 315:.././hal/sam3u1c/inc/core_cmInstr.h **** 
 316:.././hal/sam3u1c/inc/core_cmInstr.h ****     Send Event is a hint instruction. It causes an event to be signaled to the CPU.
 317:.././hal/sam3u1c/inc/core_cmInstr.h ****  */
 318:.././hal/sam3u1c/inc/core_cmInstr.h **** __attribute__( ( always_inline ) ) __STATIC_INLINE void __SEV(void)
 319:.././hal/sam3u1c/inc/core_cmInstr.h **** {
 320:.././hal/sam3u1c/inc/core_cmInstr.h ****   __ASM volatile ("sev");
 321:.././hal/sam3u1c/inc/core_cmInstr.h **** }
 322:.././hal/sam3u1c/inc/core_cmInstr.h **** 
 323:.././hal/sam3u1c/inc/core_cmInstr.h **** 
 324:.././hal/sam3u1c/inc/core_cmInstr.h **** /** \brief  Instruction Synchronization Barrier
 325:.././hal/sam3u1c/inc/core_cmInstr.h **** 
 326:.././hal/sam3u1c/inc/core_cmInstr.h ****     Instruction Synchronization Barrier flushes the pipeline in the processor,
 327:.././hal/sam3u1c/inc/core_cmInstr.h ****     so that all instructions following the ISB are fetched from cache or
 328:.././hal/sam3u1c/inc/core_cmInstr.h ****     memory, after the instruction has been completed.
 329:.././hal/sam3u1c/inc/core_cmInstr.h ****  */
 330:.././hal/sam3u1c/inc/core_cmInstr.h **** __attribute__( ( always_inline ) ) __STATIC_INLINE void __ISB(void)
 331:.././hal/sam3u1c/inc/core_cmInstr.h **** {
 332:.././hal/sam3u1c/inc/core_cmInstr.h ****   __ASM volatile ("isb");
 333:.././hal/sam3u1c/inc/core_cmInstr.h **** }
 334:.././hal/sam3u1c/inc/core_cmInstr.h **** 
 335:.././hal/sam3u1c/inc/core_cmInstr.h **** 
 336:.././hal/sam3u1c/inc/core_cmInstr.h **** /** \brief  Data Synchronization Barrier
 337:.././hal/sam3u1c/inc/core_cmInstr.h **** 
 338:.././hal/sam3u1c/inc/core_cmInstr.h ****     This function acts as a special kind of Data Memory Barrier.
 339:.././hal/sam3u1c/inc/core_cmInstr.h ****     It completes when all explicit memory accesses before this instruction complete.
 340:.././hal/sam3u1c/inc/core_cmInstr.h ****  */
 341:.././hal/sam3u1c/inc/core_cmInstr.h **** __attribute__( ( always_inline ) ) __STATIC_INLINE void __DSB(void)
 342:.././hal/sam3u1c/inc/core_cmInstr.h **** {
 343:.././hal/sam3u1c/inc/core_cmInstr.h ****   __ASM volatile ("dsb");
 344:.././hal/sam3u1c/inc/core_cmInstr.h **** }
 345:.././hal/sam3u1c/inc/core_cmInstr.h **** 
 346:.././hal/sam3u1c/inc/core_cmInstr.h **** 
 347:.././hal/sam3u1c/inc/core_cmInstr.h **** /** \brief  Data Memory Barrier
 348:.././hal/sam3u1c/inc/core_cmInstr.h **** 
 349:.././hal/sam3u1c/inc/core_cmInstr.h ****     This function ensures the apparent order of the explicit memory operations before
 350:.././hal/sam3u1c/inc/core_cmInstr.h ****     and after the instruction, without ensuring their completion.
 351:.././hal/sam3u1c/inc/core_cmInstr.h ****  */
 352:.././hal/sam3u1c/inc/core_cmInstr.h **** __attribute__( ( always_inline ) ) __STATIC_INLINE void __DMB(void)
 353:.././hal/sam3u1c/inc/core_cmInstr.h **** {
 354:.././hal/sam3u1c/inc/core_cmInstr.h ****   __ASM volatile ("dmb");
 101              	 .loc 2 354 0
 102              	 .syntax unified
 103              	
 104 004a BFF35F8F 	 dmb
 105              	
 106              	 .thumb
 107              	 .syntax unified
 108              	.LBE42:
 109              	.LBE41:
 110              	.LBB43:
 111              	.LBB44:
 112              	 .file 3 ".././hal/sam3u1c/inc/core_cmFunc.h"
   1:.././hal/sam3u1c/inc/core_cmFunc.h **** /**************************************************************************//**
   2:.././hal/sam3u1c/inc/core_cmFunc.h ****  * @file     core_cmFunc.h
   3:.././hal/sam3u1c/inc/core_cmFunc.h ****  * @brief    CMSIS Cortex-M Core Function Access Header File
   4:.././hal/sam3u1c/inc/core_cmFunc.h ****  * @version  V3.00
   5:.././hal/sam3u1c/inc/core_cmFunc.h ****  * @date     19. January 2012
   6:.././hal/sam3u1c/inc/core_cmFunc.h ****  *
   7:.././hal/sam3u1c/inc/core_cmFunc.h ****  * @note
   8:.././hal/sam3u1c/inc/core_cmFunc.h ****  * Copyright (C) 2009-2012 ARM Limited. All rights reserved.
   9:.././hal/sam3u1c/inc/core_cmFunc.h ****  *
  10:.././hal/sam3u1c/inc/core_cmFunc.h ****  * @par
  11:.././hal/sam3u1c/inc/core_cmFunc.h ****  * ARM Limited (ARM) is supplying this software for use with Cortex-M 
  12:.././hal/sam3u1c/inc/core_cmFunc.h ****  * processor based microcontrollers.  This file can be freely distributed 
  13:.././hal/sam3u1c/inc/core_cmFunc.h ****  * within development tools that are supporting such ARM based processors. 
  14:.././hal/sam3u1c/inc/core_cmFunc.h ****  *
  15:.././hal/sam3u1c/inc/core_cmFunc.h ****  * @par
  16:.././hal/sam3u1c/inc/core_cmFunc.h ****  * THIS SOFTWARE IS PROVIDED "AS IS".  NO WARRANTIES, WHETHER EXPRESS, IMPLIED
  17:.././hal/sam3u1c/inc/core_cmFunc.h ****  * OR STATUTORY, INCLUDING, BUT NOT LIMITED TO, IMPLIED WARRANTIES OF
  18:.././hal/sam3u1c/inc/core_cmFunc.h ****  * MERCHANTABILITY AND FITNESS FOR A PARTICULAR PURPOSE APPLY TO THIS SOFTWARE.
  19:.././hal/sam3u1c/inc/core_cmFunc.h ****  * ARM SHALL NOT, IN ANY CIRCUMSTANCES, BE LIABLE FOR SPECIAL, INCIDENTAL, OR
  20:.././hal/sam3u1c/inc/core_cmFunc.h ****  * CONSEQUENTIAL DAMAGES, FOR ANY REASON WHATSOEVER.
  21:.././hal/sam3u1c/inc/core_cmFunc.h ****  *
  22:.././hal/sam3u1c/inc/core_cmFunc.h ****  ******************************************************************************/
  23:.././hal/sam3u1c/inc/core_cmFunc.h **** 
  24:.././hal/sam3u1c/inc/core_cmFunc.h **** #ifndef __CORE_CMFUNC_H
  25:.././hal/sam3u1c/inc/core_cmFunc.h **** #define __CORE_CMFUNC_H
  26:.././hal/sam3u1c/inc/core_cmFunc.h **** 
  27:.././hal/sam3u1c/inc/core_cmFunc.h **** 
  28:.././hal/sam3u1c/inc/core_cmFunc.h **** /* ###########################  Core Function Access  ########################### */
  29:.././hal/sam3u1c/inc/core_cmFunc.h **** /** \ingroup  CMSIS_Core_FunctionInterface   
  30:.././hal/sam3u1c/inc/core_cmFunc.h ****     \defgroup CMSIS_Core_RegAccFunctions CMSIS Core Register Access Functions
  31:.././hal/sam3u1c/inc/core_cmFunc.h ****   @{
  32:.././hal/sam3u1c/inc/core_cmFunc.h ****  */
  33:.././hal/sam3u1c/inc/core_cmFunc.h **** 
  34:.././hal/sam3u1c/inc/core_cmFunc.h **** #if   defined ( __CC_ARM ) /*------------------RealView Compiler -----------------*/
  35:.././hal/sam3u1c/inc/core_cmFunc.h **** /* ARM armcc specific functions */
  36:.././hal/sam3u1c/inc/core_cmFunc.h **** 
  37:.././hal/sam3u1c/inc/core_cmFunc.h **** #if (__ARMCC_VERSION < 400677)
  38:.././hal/sam3u1c/inc/core_cmFunc.h ****   #error "Please use ARM Compiler Toolchain V4.0.677 or later!"
  39:.././hal/sam3u1c/inc/core_cmFunc.h **** #endif
  40:.././hal/sam3u1c/inc/core_cmFunc.h **** 
  41:.././hal/sam3u1c/inc/core_cmFunc.h **** /* intrinsic void __enable_irq();     */
  42:.././hal/sam3u1c/inc/core_cmFunc.h **** /* intrinsic void __disable_irq();    */
  43:.././hal/sam3u1c/inc/core_cmFunc.h **** 
  44:.././hal/sam3u1c/inc/core_cmFunc.h **** /** \brief  Get Control Register
  45:.././hal/sam3u1c/inc/core_cmFunc.h **** 
  46:.././hal/sam3u1c/inc/core_cmFunc.h ****     This function returns the content of the Control Register.
  47:.././hal/sam3u1c/inc/core_cmFunc.h **** 
  48:.././hal/sam3u1c/inc/core_cmFunc.h ****     \return               Control Register value
  49:.././hal/sam3u1c/inc/core_cmFunc.h ****  */
  50:.././hal/sam3u1c/inc/core_cmFunc.h **** __STATIC_INLINE uint32_t __get_CONTROL(void)
  51:.././hal/sam3u1c/inc/core_cmFunc.h **** {
  52:.././hal/sam3u1c/inc/core_cmFunc.h ****   register uint32_t __regControl         __ASM("control");
  53:.././hal/sam3u1c/inc/core_cmFunc.h ****   return(__regControl);
  54:.././hal/sam3u1c/inc/core_cmFunc.h **** }
  55:.././hal/sam3u1c/inc/core_cmFunc.h **** 
  56:.././hal/sam3u1c/inc/core_cmFunc.h **** 
  57:.././hal/sam3u1c/inc/core_cmFunc.h **** /** \brief  Set Control Register
  58:.././hal/sam3u1c/inc/core_cmFunc.h **** 
  59:.././hal/sam3u1c/inc/core_cmFunc.h ****     This function writes the given value to the Control Register.
  60:.././hal/sam3u1c/inc/core_cmFunc.h **** 
  61:.././hal/sam3u1c/inc/core_cmFunc.h ****     \param [in]    control  Control Register value to set
  62:.././hal/sam3u1c/inc/core_cmFunc.h ****  */
  63:.././hal/sam3u1c/inc/core_cmFunc.h **** __STATIC_INLINE void __set_CONTROL(uint32_t control)
  64:.././hal/sam3u1c/inc/core_cmFunc.h **** {
  65:.././hal/sam3u1c/inc/core_cmFunc.h ****   register uint32_t __regControl         __ASM("control");
  66:.././hal/sam3u1c/inc/core_cmFunc.h ****   __regControl = control;
  67:.././hal/sam3u1c/inc/core_cmFunc.h **** }
  68:.././hal/sam3u1c/inc/core_cmFunc.h **** 
  69:.././hal/sam3u1c/inc/core_cmFunc.h **** 
  70:.././hal/sam3u1c/inc/core_cmFunc.h **** /** \brief  Get IPSR Register
  71:.././hal/sam3u1c/inc/core_cmFunc.h **** 
  72:.././hal/sam3u1c/inc/core_cmFunc.h ****     This function returns the content of the IPSR Register.
  73:.././hal/sam3u1c/inc/core_cmFunc.h **** 
  74:.././hal/sam3u1c/inc/core_cmFunc.h ****     \return               IPSR Register value
  75:.././hal/sam3u1c/inc/core_cmFunc.h ****  */
  76:.././hal/sam3u1c/inc/core_cmFunc.h **** __STATIC_INLINE uint32_t __get_IPSR(void)
  77:.././hal/sam3u1c/inc/core_cmFunc.h **** {
  78:.././hal/sam3u1c/inc/core_cmFunc.h ****   register uint32_t __regIPSR          __ASM("ipsr");
  79:.././hal/sam3u1c/inc/core_cmFunc.h ****   return(__regIPSR);
  80:.././hal/sam3u1c/inc/core_cmFunc.h **** }
  81:.././hal/sam3u1c/inc/core_cmFunc.h **** 
  82:.././hal/sam3u1c/inc/core_cmFunc.h **** 
  83:.././hal/sam3u1c/inc/core_cmFunc.h **** /** \brief  Get APSR Register
  84:.././hal/sam3u1c/inc/core_cmFunc.h **** 
  85:.././hal/sam3u1c/inc/core_cmFunc.h ****     This function returns the content of the APSR Register.
  86:.././hal/sam3u1c/inc/core_cmFunc.h **** 
  87:.././hal/sam3u1c/inc/core_cmFunc.h ****     \return               APSR Register value
  88:.././hal/sam3u1c/inc/core_cmFunc.h ****  */
  89:.././hal/sam3u1c/inc/core_cmFunc.h **** __STATIC_INLINE uint32_t __get_APSR(void)
  90:.././hal/sam3u1c/inc/core_cmFunc.h **** {
  91:.././hal/sam3u1c/inc/core_cmFunc.h ****   register uint32_t __regAPSR          __ASM("apsr");
  92:.././hal/sam3u1c/inc/core_cmFunc.h ****   return(__regAPSR);
  93:.././hal/sam3u1c/inc/core_cmFunc.h **** }
  94:.././hal/sam3u1c/inc/core_cmFunc.h **** 
  95:.././hal/sam3u1c/inc/core_cmFunc.h **** 
  96:.././hal/sam3u1c/inc/core_cmFunc.h **** /** \brief  Get xPSR Register
  97:.././hal/sam3u1c/inc/core_cmFunc.h **** 
  98:.././hal/sam3u1c/inc/core_cmFunc.h ****     This function returns the content of the xPSR Register.
  99:.././hal/sam3u1c/inc/core_cmFunc.h **** 
 100:.././hal/sam3u1c/inc/core_cmFunc.h ****     \return               xPSR Register value
 101:.././hal/sam3u1c/inc/core_cmFunc.h ****  */
 102:.././hal/sam3u1c/inc/core_cmFunc.h **** __STATIC_INLINE uint32_t __get_xPSR(void)
 103:.././hal/sam3u1c/inc/core_cmFunc.h **** {
 104:.././hal/sam3u1c/inc/core_cmFunc.h ****   register uint32_t __regXPSR          __ASM("xpsr");
 105:.././hal/sam3u1c/inc/core_cmFunc.h ****   return(__regXPSR);
 106:.././hal/sam3u1c/inc/core_cmFunc.h **** }
 107:.././hal/sam3u1c/inc/core_cmFunc.h **** 
 108:.././hal/sam3u1c/inc/core_cmFunc.h **** 
 109:.././hal/sam3u1c/inc/core_cmFunc.h **** /** \brief  Get Process Stack Pointer
 110:.././hal/sam3u1c/inc/core_cmFunc.h **** 
 111:.././hal/sam3u1c/inc/core_cmFunc.h ****     This function returns the current value of the Process Stack Pointer (PSP).
 112:.././hal/sam3u1c/inc/core_cmFunc.h **** 
 113:.././hal/sam3u1c/inc/core_cmFunc.h ****     \return               PSP Register value
 114:.././hal/sam3u1c/inc/core_cmFunc.h ****  */
 115:.././hal/sam3u1c/inc/core_cmFunc.h **** __STATIC_INLINE uint32_t __get_PSP(void)
 116:.././hal/sam3u1c/inc/core_cmFunc.h **** {
 117:.././hal/sam3u1c/inc/core_cmFunc.h ****   register uint32_t __regProcessStackPointer  __ASM("psp");
 118:.././hal/sam3u1c/inc/core_cmFunc.h ****   return(__regProcessStackPointer);
 119:.././hal/sam3u1c/inc/core_cmFunc.h **** }
 120:.././hal/sam3u1c/inc/core_cmFunc.h **** 
 121:.././hal/sam3u1c/inc/core_cmFunc.h **** 
 122:.././hal/sam3u1c/inc/core_cmFunc.h **** /** \brief  Set Process Stack Pointer
 123:.././hal/sam3u1c/inc/core_cmFunc.h **** 
 124:.././hal/sam3u1c/inc/core_cmFunc.h ****     This function assigns the given value to the Process Stack Pointer (PSP).
 125:.././hal/sam3u1c/inc/core_cmFunc.h **** 
 126:.././hal/sam3u1c/inc/core_cmFunc.h ****     \param [in]    topOfProcStack  Process Stack Pointer value to set
 127:.././hal/sam3u1c/inc/core_cmFunc.h ****  */
 128:.././hal/sam3u1c/inc/core_cmFunc.h **** __STATIC_INLINE void __set_PSP(uint32_t topOfProcStack)
 129:.././hal/sam3u1c/inc/core_cmFunc.h **** {
 130:.././hal/sam3u1c/inc/core_cmFunc.h ****   register uint32_t __regProcessStackPointer  __ASM("psp");
 131:.././hal/sam3u1c/inc/core_cmFunc.h ****   __regProcessStackPointer = topOfProcStack;
 132:.././hal/sam3u1c/inc/core_cmFunc.h **** }
 133:.././hal/sam3u1c/inc/core_cmFunc.h **** 
 134:.././hal/sam3u1c/inc/core_cmFunc.h **** 
 135:.././hal/sam3u1c/inc/core_cmFunc.h **** /** \brief  Get Main Stack Pointer
 136:.././hal/sam3u1c/inc/core_cmFunc.h **** 
 137:.././hal/sam3u1c/inc/core_cmFunc.h ****     This function returns the current value of the Main Stack Pointer (MSP).
 138:.././hal/sam3u1c/inc/core_cmFunc.h **** 
 139:.././hal/sam3u1c/inc/core_cmFunc.h ****     \return               MSP Register value
 140:.././hal/sam3u1c/inc/core_cmFunc.h ****  */
 141:.././hal/sam3u1c/inc/core_cmFunc.h **** __STATIC_INLINE uint32_t __get_MSP(void)
 142:.././hal/sam3u1c/inc/core_cmFunc.h **** {
 143:.././hal/sam3u1c/inc/core_cmFunc.h ****   register uint32_t __regMainStackPointer     __ASM("msp");
 144:.././hal/sam3u1c/inc/core_cmFunc.h ****   return(__regMainStackPointer);
 145:.././hal/sam3u1c/inc/core_cmFunc.h **** }
 146:.././hal/sam3u1c/inc/core_cmFunc.h **** 
 147:.././hal/sam3u1c/inc/core_cmFunc.h **** 
 148:.././hal/sam3u1c/inc/core_cmFunc.h **** /** \brief  Set Main Stack Pointer
 149:.././hal/sam3u1c/inc/core_cmFunc.h **** 
 150:.././hal/sam3u1c/inc/core_cmFunc.h ****     This function assigns the given value to the Main Stack Pointer (MSP).
 151:.././hal/sam3u1c/inc/core_cmFunc.h **** 
 152:.././hal/sam3u1c/inc/core_cmFunc.h ****     \param [in]    topOfMainStack  Main Stack Pointer value to set
 153:.././hal/sam3u1c/inc/core_cmFunc.h ****  */
 154:.././hal/sam3u1c/inc/core_cmFunc.h **** __STATIC_INLINE void __set_MSP(uint32_t topOfMainStack)
 155:.././hal/sam3u1c/inc/core_cmFunc.h **** {
 156:.././hal/sam3u1c/inc/core_cmFunc.h ****   register uint32_t __regMainStackPointer     __ASM("msp");
 157:.././hal/sam3u1c/inc/core_cmFunc.h ****   __regMainStackPointer = topOfMainStack;
 158:.././hal/sam3u1c/inc/core_cmFunc.h **** }
 159:.././hal/sam3u1c/inc/core_cmFunc.h **** 
 160:.././hal/sam3u1c/inc/core_cmFunc.h **** 
 161:.././hal/sam3u1c/inc/core_cmFunc.h **** /** \brief  Get Priority Mask
 162:.././hal/sam3u1c/inc/core_cmFunc.h **** 
 163:.././hal/sam3u1c/inc/core_cmFunc.h ****     This function returns the current state of the priority mask bit from the Priority Mask Registe
 164:.././hal/sam3u1c/inc/core_cmFunc.h **** 
 165:.././hal/sam3u1c/inc/core_cmFunc.h ****     \return               Priority Mask value
 166:.././hal/sam3u1c/inc/core_cmFunc.h ****  */
 167:.././hal/sam3u1c/inc/core_cmFunc.h **** __STATIC_INLINE uint32_t __get_PRIMASK(void)
 168:.././hal/sam3u1c/inc/core_cmFunc.h **** {
 169:.././hal/sam3u1c/inc/core_cmFunc.h ****   register uint32_t __regPriMask         __ASM("primask");
 170:.././hal/sam3u1c/inc/core_cmFunc.h ****   return(__regPriMask);
 171:.././hal/sam3u1c/inc/core_cmFunc.h **** }
 172:.././hal/sam3u1c/inc/core_cmFunc.h **** 
 173:.././hal/sam3u1c/inc/core_cmFunc.h **** 
 174:.././hal/sam3u1c/inc/core_cmFunc.h **** /** \brief  Set Priority Mask
 175:.././hal/sam3u1c/inc/core_cmFunc.h **** 
 176:.././hal/sam3u1c/inc/core_cmFunc.h ****     This function assigns the given value to the Priority Mask Register.
 177:.././hal/sam3u1c/inc/core_cmFunc.h **** 
 178:.././hal/sam3u1c/inc/core_cmFunc.h ****     \param [in]    priMask  Priority Mask
 179:.././hal/sam3u1c/inc/core_cmFunc.h ****  */
 180:.././hal/sam3u1c/inc/core_cmFunc.h **** __STATIC_INLINE void __set_PRIMASK(uint32_t priMask)
 181:.././hal/sam3u1c/inc/core_cmFunc.h **** {
 182:.././hal/sam3u1c/inc/core_cmFunc.h ****   register uint32_t __regPriMask         __ASM("primask");
 183:.././hal/sam3u1c/inc/core_cmFunc.h ****   __regPriMask = (priMask);
 184:.././hal/sam3u1c/inc/core_cmFunc.h **** }
 185:.././hal/sam3u1c/inc/core_cmFunc.h ****  
 186:.././hal/sam3u1c/inc/core_cmFunc.h **** 
 187:.././hal/sam3u1c/inc/core_cmFunc.h **** #if       (__CORTEX_M >= 0x03)
 188:.././hal/sam3u1c/inc/core_cmFunc.h **** 
 189:.././hal/sam3u1c/inc/core_cmFunc.h **** /** \brief  Enable FIQ
 190:.././hal/sam3u1c/inc/core_cmFunc.h **** 
 191:.././hal/sam3u1c/inc/core_cmFunc.h ****     This function enables FIQ interrupts by clearing the F-bit in the CPSR.
 192:.././hal/sam3u1c/inc/core_cmFunc.h ****     Can only be executed in Privileged modes.
 193:.././hal/sam3u1c/inc/core_cmFunc.h ****  */
 194:.././hal/sam3u1c/inc/core_cmFunc.h **** #define __enable_fault_irq                __enable_fiq
 195:.././hal/sam3u1c/inc/core_cmFunc.h **** 
 196:.././hal/sam3u1c/inc/core_cmFunc.h **** 
 197:.././hal/sam3u1c/inc/core_cmFunc.h **** /** \brief  Disable FIQ
 198:.././hal/sam3u1c/inc/core_cmFunc.h **** 
 199:.././hal/sam3u1c/inc/core_cmFunc.h ****     This function disables FIQ interrupts by setting the F-bit in the CPSR.
 200:.././hal/sam3u1c/inc/core_cmFunc.h ****     Can only be executed in Privileged modes.
 201:.././hal/sam3u1c/inc/core_cmFunc.h ****  */
 202:.././hal/sam3u1c/inc/core_cmFunc.h **** #define __disable_fault_irq               __disable_fiq
 203:.././hal/sam3u1c/inc/core_cmFunc.h **** 
 204:.././hal/sam3u1c/inc/core_cmFunc.h **** 
 205:.././hal/sam3u1c/inc/core_cmFunc.h **** /** \brief  Get Base Priority
 206:.././hal/sam3u1c/inc/core_cmFunc.h **** 
 207:.././hal/sam3u1c/inc/core_cmFunc.h ****     This function returns the current value of the Base Priority register.
 208:.././hal/sam3u1c/inc/core_cmFunc.h **** 
 209:.././hal/sam3u1c/inc/core_cmFunc.h ****     \return               Base Priority register value
 210:.././hal/sam3u1c/inc/core_cmFunc.h ****  */
 211:.././hal/sam3u1c/inc/core_cmFunc.h **** __STATIC_INLINE uint32_t  __get_BASEPRI(void)
 212:.././hal/sam3u1c/inc/core_cmFunc.h **** {
 213:.././hal/sam3u1c/inc/core_cmFunc.h ****   register uint32_t __regBasePri         __ASM("basepri");
 214:.././hal/sam3u1c/inc/core_cmFunc.h ****   return(__regBasePri);
 215:.././hal/sam3u1c/inc/core_cmFunc.h **** }
 216:.././hal/sam3u1c/inc/core_cmFunc.h **** 
 217:.././hal/sam3u1c/inc/core_cmFunc.h **** 
 218:.././hal/sam3u1c/inc/core_cmFunc.h **** /** \brief  Set Base Priority
 219:.././hal/sam3u1c/inc/core_cmFunc.h **** 
 220:.././hal/sam3u1c/inc/core_cmFunc.h ****     This function assigns the given value to the Base Priority register.
 221:.././hal/sam3u1c/inc/core_cmFunc.h **** 
 222:.././hal/sam3u1c/inc/core_cmFunc.h ****     \param [in]    basePri  Base Priority value to set
 223:.././hal/sam3u1c/inc/core_cmFunc.h ****  */
 224:.././hal/sam3u1c/inc/core_cmFunc.h **** __STATIC_INLINE void __set_BASEPRI(uint32_t basePri)
 225:.././hal/sam3u1c/inc/core_cmFunc.h **** {
 226:.././hal/sam3u1c/inc/core_cmFunc.h ****   register uint32_t __regBasePri         __ASM("basepri");
 227:.././hal/sam3u1c/inc/core_cmFunc.h ****   __regBasePri = (basePri & 0xff);
 228:.././hal/sam3u1c/inc/core_cmFunc.h **** }
 229:.././hal/sam3u1c/inc/core_cmFunc.h ****  
 230:.././hal/sam3u1c/inc/core_cmFunc.h **** 
 231:.././hal/sam3u1c/inc/core_cmFunc.h **** /** \brief  Get Fault Mask
 232:.././hal/sam3u1c/inc/core_cmFunc.h **** 
 233:.././hal/sam3u1c/inc/core_cmFunc.h ****     This function returns the current value of the Fault Mask register.
 234:.././hal/sam3u1c/inc/core_cmFunc.h **** 
 235:.././hal/sam3u1c/inc/core_cmFunc.h ****     \return               Fault Mask register value
 236:.././hal/sam3u1c/inc/core_cmFunc.h ****  */
 237:.././hal/sam3u1c/inc/core_cmFunc.h **** __STATIC_INLINE uint32_t __get_FAULTMASK(void)
 238:.././hal/sam3u1c/inc/core_cmFunc.h **** {
 239:.././hal/sam3u1c/inc/core_cmFunc.h ****   register uint32_t __regFaultMask       __ASM("faultmask");
 240:.././hal/sam3u1c/inc/core_cmFunc.h ****   return(__regFaultMask);
 241:.././hal/sam3u1c/inc/core_cmFunc.h **** }
 242:.././hal/sam3u1c/inc/core_cmFunc.h **** 
 243:.././hal/sam3u1c/inc/core_cmFunc.h **** 
 244:.././hal/sam3u1c/inc/core_cmFunc.h **** /** \brief  Set Fault Mask
 245:.././hal/sam3u1c/inc/core_cmFunc.h **** 
 246:.././hal/sam3u1c/inc/core_cmFunc.h ****     This function assigns the given value to the Fault Mask register.
 247:.././hal/sam3u1c/inc/core_cmFunc.h **** 
 248:.././hal/sam3u1c/inc/core_cmFunc.h ****     \param [in]    faultMask  Fault Mask value to set
 249:.././hal/sam3u1c/inc/core_cmFunc.h ****  */
 250:.././hal/sam3u1c/inc/core_cmFunc.h **** __STATIC_INLINE void __set_FAULTMASK(uint32_t faultMask)
 251:.././hal/sam3u1c/inc/core_cmFunc.h **** {
 252:.././hal/sam3u1c/inc/core_cmFunc.h ****   register uint32_t __regFaultMask       __ASM("faultmask");
 253:.././hal/sam3u1c/inc/core_cmFunc.h ****   __regFaultMask = (faultMask & (uint32_t)1);
 254:.././hal/sam3u1c/inc/core_cmFunc.h **** }
 255:.././hal/sam3u1c/inc/core_cmFunc.h **** 
 256:.././hal/sam3u1c/inc/core_cmFunc.h **** #endif /* (__CORTEX_M >= 0x03) */
 257:.././hal/sam3u1c/inc/core_cmFunc.h **** 
 258:.././hal/sam3u1c/inc/core_cmFunc.h **** 
 259:.././hal/sam3u1c/inc/core_cmFunc.h **** #if       (__CORTEX_M == 0x04)
 260:.././hal/sam3u1c/inc/core_cmFunc.h **** 
 261:.././hal/sam3u1c/inc/core_cmFunc.h **** /** \brief  Get FPSCR
 262:.././hal/sam3u1c/inc/core_cmFunc.h **** 
 263:.././hal/sam3u1c/inc/core_cmFunc.h ****     This function returns the current value of the Floating Point Status/Control register.
 264:.././hal/sam3u1c/inc/core_cmFunc.h **** 
 265:.././hal/sam3u1c/inc/core_cmFunc.h ****     \return               Floating Point Status/Control register value
 266:.././hal/sam3u1c/inc/core_cmFunc.h ****  */
 267:.././hal/sam3u1c/inc/core_cmFunc.h **** __STATIC_INLINE uint32_t __get_FPSCR(void)
 268:.././hal/sam3u1c/inc/core_cmFunc.h **** {
 269:.././hal/sam3u1c/inc/core_cmFunc.h **** #if (__FPU_PRESENT == 1) && (__FPU_USED == 1)
 270:.././hal/sam3u1c/inc/core_cmFunc.h ****   register uint32_t __regfpscr         __ASM("fpscr");
 271:.././hal/sam3u1c/inc/core_cmFunc.h ****   return(__regfpscr);
 272:.././hal/sam3u1c/inc/core_cmFunc.h **** #else
 273:.././hal/sam3u1c/inc/core_cmFunc.h ****    return(0);
 274:.././hal/sam3u1c/inc/core_cmFunc.h **** #endif
 275:.././hal/sam3u1c/inc/core_cmFunc.h **** }
 276:.././hal/sam3u1c/inc/core_cmFunc.h **** 
 277:.././hal/sam3u1c/inc/core_cmFunc.h **** 
 278:.././hal/sam3u1c/inc/core_cmFunc.h **** /** \brief  Set FPSCR
 279:.././hal/sam3u1c/inc/core_cmFunc.h **** 
 280:.././hal/sam3u1c/inc/core_cmFunc.h ****     This function assigns the given value to the Floating Point Status/Control register.
 281:.././hal/sam3u1c/inc/core_cmFunc.h **** 
 282:.././hal/sam3u1c/inc/core_cmFunc.h ****     \param [in]    fpscr  Floating Point Status/Control value to set
 283:.././hal/sam3u1c/inc/core_cmFunc.h ****  */
 284:.././hal/sam3u1c/inc/core_cmFunc.h **** __STATIC_INLINE void __set_FPSCR(uint32_t fpscr)
 285:.././hal/sam3u1c/inc/core_cmFunc.h **** {
 286:.././hal/sam3u1c/inc/core_cmFunc.h **** #if (__FPU_PRESENT == 1) && (__FPU_USED == 1)
 287:.././hal/sam3u1c/inc/core_cmFunc.h ****   register uint32_t __regfpscr         __ASM("fpscr");
 288:.././hal/sam3u1c/inc/core_cmFunc.h ****   __regfpscr = (fpscr);
 289:.././hal/sam3u1c/inc/core_cmFunc.h **** #endif
 290:.././hal/sam3u1c/inc/core_cmFunc.h **** }
 291:.././hal/sam3u1c/inc/core_cmFunc.h **** 
 292:.././hal/sam3u1c/inc/core_cmFunc.h **** #endif /* (__CORTEX_M == 0x04) */
 293:.././hal/sam3u1c/inc/core_cmFunc.h **** 
 294:.././hal/sam3u1c/inc/core_cmFunc.h **** 
 295:.././hal/sam3u1c/inc/core_cmFunc.h **** #elif defined ( __ICCARM__ ) /*------------------ ICC Compiler -------------------*/
 296:.././hal/sam3u1c/inc/core_cmFunc.h **** /* IAR iccarm specific functions */
 297:.././hal/sam3u1c/inc/core_cmFunc.h **** 
 298:.././hal/sam3u1c/inc/core_cmFunc.h **** #include <cmsis_iar.h>
 299:.././hal/sam3u1c/inc/core_cmFunc.h **** 
 300:.././hal/sam3u1c/inc/core_cmFunc.h **** 
 301:.././hal/sam3u1c/inc/core_cmFunc.h **** #elif defined ( __TMS470__ ) /*---------------- TI CCS Compiler ------------------*/
 302:.././hal/sam3u1c/inc/core_cmFunc.h **** /* TI CCS specific functions */
 303:.././hal/sam3u1c/inc/core_cmFunc.h **** 
 304:.././hal/sam3u1c/inc/core_cmFunc.h **** #include <cmsis_ccs.h>
 305:.././hal/sam3u1c/inc/core_cmFunc.h **** 
 306:.././hal/sam3u1c/inc/core_cmFunc.h **** 
 307:.././hal/sam3u1c/inc/core_cmFunc.h **** #elif defined ( __GNUC__ ) /*------------------ GNU Compiler ---------------------*/
 308:.././hal/sam3u1c/inc/core_cmFunc.h **** /* GNU gcc specific functions */
 309:.././hal/sam3u1c/inc/core_cmFunc.h **** 
 310:.././hal/sam3u1c/inc/core_cmFunc.h **** /** \brief  Enable IRQ Interrupts
 311:.././hal/sam3u1c/inc/core_cmFunc.h **** 
 312:.././hal/sam3u1c/inc/core_cmFunc.h ****   This function enables IRQ interrupts by clearing the I-bit in the CPSR.
 313:.././hal/sam3u1c/inc/core_cmFunc.h ****   Can only be executed in Privileged modes.
 314:.././hal/sam3u1c/inc/core_cmFunc.h ****  */
 315:.././hal/sam3u1c/inc/core_cmFunc.h **** __attribute__( ( always_inline ) ) __STATIC_INLINE void __enable_irq(void)
 316:.././hal/sam3u1c/inc/core_cmFunc.h **** {
 317:.././hal/sam3u1c/inc/core_cmFunc.h ****   __ASM volatile ("cpsie i");
 113              	 .loc 3 317 0
 114              	 .syntax unified
 115              	
 116 004e 62B6     	 cpsie i
 117              	
 118              	 .thumb
 119              	 .syntax unified
 120              	.LBE44:
 121              	.LBE43:
 294:.././hal/sam3u1c/sleep.c **** 		if (sleep_mode == SAM_PM_SMODE_SLEEP_WFI)
 122              	 .loc 1 294 0
 123 0050 7B68     	 ldr r3,[r7,#4]
 124 0052 022B     	 cmp r3,#2
 125 0054 01D1     	 bne .L7
 126              	.LBB45:
 127              	.LBB46:
 299:.././hal/sam3u1c/inc/core_cmInstr.h **** }
 128              	 .loc 2 299 0
 129              	 .syntax unified
 130              	
 131 0056 30BF     	 wfi
 132              	
 133              	 .thumb
 134              	 .syntax unified
 135              	.LBE46:
 136              	.LBE45:
 295:.././hal/sam3u1c/sleep.c **** 			__WFI();
 296:.././hal/sam3u1c/sleep.c **** 		else
 297:.././hal/sam3u1c/sleep.c **** 			__WFE();
 298:.././hal/sam3u1c/sleep.c **** 		break;
 137              	 .loc 1 298 0
 138 0058 B4E1     	 b .L2
 139              	.L7:
 140              	.LBB47:
 141              	.LBB48:
 310:.././hal/sam3u1c/inc/core_cmInstr.h **** }
 142              	 .loc 2 310 0
 143              	 .syntax unified
 144              	
 145 005a 20BF     	 wfe
 146              	
 147              	 .thumb
 148              	 .syntax unified
 149              	.LBE48:
 150              	.LBE47:
 151              	 .loc 1 298 0
 152 005c B2E1     	 b .L2
 153              	.L5:
 154              	.LBB49:
 155              	.LBB50:
 156              	.LBB51:
 318:.././hal/sam3u1c/inc/core_cmFunc.h **** }
 319:.././hal/sam3u1c/inc/core_cmFunc.h **** 
 320:.././hal/sam3u1c/inc/core_cmFunc.h **** 
 321:.././hal/sam3u1c/inc/core_cmFunc.h **** /** \brief  Disable IRQ Interrupts
 322:.././hal/sam3u1c/inc/core_cmFunc.h **** 
 323:.././hal/sam3u1c/inc/core_cmFunc.h ****   This function disables IRQ interrupts by setting the I-bit in the CPSR.
 324:.././hal/sam3u1c/inc/core_cmFunc.h ****   Can only be executed in Privileged modes.
 325:.././hal/sam3u1c/inc/core_cmFunc.h ****  */
 326:.././hal/sam3u1c/inc/core_cmFunc.h **** __attribute__( ( always_inline ) ) __STATIC_INLINE void __disable_irq(void)
 327:.././hal/sam3u1c/inc/core_cmFunc.h **** {
 328:.././hal/sam3u1c/inc/core_cmFunc.h ****   __ASM volatile ("cpsid i");
 157              	 .loc 3 328 0
 158              	 .syntax unified
 159              	
 160 005e 72B6     	 cpsid i
 161              	
 162              	 .thumb
 163              	 .syntax unified
 164              	.LBE51:
 165              	.LBE50:
 166              	.LBB52:
 167              	.LBB53:
 168              	 .loc 2 354 0
 169              	 .syntax unified
 170              	
 171 0060 BFF35F8F 	 dmb
 172              	
 173              	 .thumb
 174              	 .syntax unified
 175              	.LBE53:
 176              	.LBE52:
 299:.././hal/sam3u1c/sleep.c **** #endif
 300:.././hal/sam3u1c/sleep.c **** #endif
 301:.././hal/sam3u1c/sleep.c **** 
 302:.././hal/sam3u1c/sleep.c **** 	case SAM_PM_SMODE_WAIT_FAST:
 303:.././hal/sam3u1c/sleep.c **** 	case SAM_PM_SMODE_WAIT: {
 304:.././hal/sam3u1c/sleep.c **** 		uint32_t mor, pllr0, pllr1, mckr;
 305:.././hal/sam3u1c/sleep.c **** 		uint32_t fmr;
 306:.././hal/sam3u1c/sleep.c **** #if defined(EFC1)
 307:.././hal/sam3u1c/sleep.c **** 		uint32_t fmr1;
 308:.././hal/sam3u1c/sleep.c **** #endif
 309:.././hal/sam3u1c/sleep.c **** #if (SAM4S || SAM4E || SAM4N || SAM4C || SAM4CM || SAM4CP || SAMG55)
 310:.././hal/sam3u1c/sleep.c **** 		(sleep_mode == SAM_PM_SMODE_WAIT_FAST) ?
 311:.././hal/sam3u1c/sleep.c **** 				pmc_set_flash_in_wait_mode(PMC_FSMR_FLPM_FLASH_STANDBY) :
 312:.././hal/sam3u1c/sleep.c **** 				pmc_set_flash_in_wait_mode(PMC_FSMR_FLPM_FLASH_DEEP_POWERDOWN);
 313:.././hal/sam3u1c/sleep.c **** #endif
 314:.././hal/sam3u1c/sleep.c **** 		cpu_irq_disable();
 177              	 .loc 1 314 0
 178 0064 744B     	 ldr r3,.L40+8
 179 0066 0022     	 movs r2,#0
 180 0068 1A70     	 strb r2,[r3]
 315:.././hal/sam3u1c/sleep.c **** 		b_is_sleep_clock_used = true;
 181              	 .loc 1 315 0
 182 006a 744B     	 ldr r3,.L40+12
 183 006c 0122     	 movs r2,#1
 184 006e 1A70     	 strb r2,[r3]
 316:.././hal/sam3u1c/sleep.c **** 
 317:.././hal/sam3u1c/sleep.c **** #if (SAM4C || SAM4CM || SAM4CP)
 318:.././hal/sam3u1c/sleep.c **** 		/* Backup the sub-system 1 status and stop sub-system 1 */
 319:.././hal/sam3u1c/sleep.c **** 		uint32_t cpclk_backup = PMC->PMC_SCSR &
 320:.././hal/sam3u1c/sleep.c **** 				(PMC_SCSR_CPCK | PMC_SCSR_CPBMCK);
 321:.././hal/sam3u1c/sleep.c **** 		PMC->PMC_SCDR = cpclk_backup | PMC_SCDR_CPKEY_PASSWD;
 322:.././hal/sam3u1c/sleep.c **** #endif
 323:.././hal/sam3u1c/sleep.c **** 		pmc_save_clock_settings(&mor, &pllr0, &pllr1, &mckr, &fmr,
 185              	 .loc 1 323 0
 186 0070 7B68     	 ldr r3,[r7,#4]
 187 0072 042B     	 cmp r3,#4
 188 0074 0CBF     	 ite eq
 189 0076 0123     	 moveq r3,#1
 190 0078 0023     	 movne r3,#0
 191 007a DAB2     	 uxtb r2,r3
 192 007c 07F12003 	 add r3,r7,#32
 193 0080 FB64     	 str r3,[r7,#76]
 194 0082 07F11C03 	 add r3,r7,#28
 195 0086 BB64     	 str r3,[r7,#72]
 196 0088 07F11803 	 add r3,r7,#24
 197 008c 7B64     	 str r3,[r7,#68]
 198 008e 07F11403 	 add r3,r7,#20
 199 0092 3B64     	 str r3,[r7,#64]
 200 0094 07F11003 	 add r3,r7,#16
 201 0098 FB63     	 str r3,[r7,#60]
 202 009a 07F10C03 	 add r3,r7,#12
 203 009e BB63     	 str r3,[r7,#56]
 204 00a0 1346     	 mov r3,r2
 205 00a2 87F83730 	 strb r3,[r7,#55]
 206              	.LBB54:
 207              	.LBB55:
  77:.././hal/sam3u1c/sleep.c **** 	uint32_t mckr = PMC->PMC_MCKR;
 208              	 .loc 1 77 0
 209 00a6 624B     	 ldr r3,.L40
 210 00a8 1B6A     	 ldr r3,[r3,#32]
 211 00aa 3B63     	 str r3,[r7,#48]
  78:.././hal/sam3u1c/sleep.c **** 	uint32_t fmr  = EFC0->EEFC_FMR;
 212              	 .loc 1 78 0
 213 00ac 604B     	 ldr r3,.L40
 214 00ae 1B6B     	 ldr r3,[r3,#48]
 215 00b0 FB62     	 str r3,[r7,#44]
  79:.././hal/sam3u1c/sleep.c **** # if defined(EFC1)
 216              	 .loc 1 79 0
 217 00b2 634B     	 ldr r3,.L40+16
 218 00b4 1B68     	 ldr r3,[r3]
 219 00b6 BB62     	 str r3,[r7,#40]
  81:.././hal/sam3u1c/sleep.c **** # endif
 220              	 .loc 1 81 0
 221 00b8 624B     	 ldr r3,.L40+20
 222 00ba 1B68     	 ldr r3,[r3]
 223 00bc 7B62     	 str r3,[r7,#36]
  84:.././hal/sam3u1c/sleep.c **** 		*p_osc_setting = mor;
 224              	 .loc 1 84 0
 225 00be FB6C     	 ldr r3,[r7,#76]
 226 00c0 002B     	 cmp r3,#0
 227 00c2 02D0     	 beq .L9
  85:.././hal/sam3u1c/sleep.c **** 	}
 228              	 .loc 1 85 0
 229 00c4 FB6C     	 ldr r3,[r7,#76]
 230 00c6 3A6B     	 ldr r2,[r7,#48]
 231 00c8 1A60     	 str r2,[r3]
 232              	.L9:
  87:.././hal/sam3u1c/sleep.c **** 		*p_pll0_setting = PMC->CKGR_PLLAR;
 233              	 .loc 1 87 0
 234 00ca BB6C     	 ldr r3,[r7,#72]
 235 00cc 002B     	 cmp r3,#0
 236 00ce 03D0     	 beq .L10
  88:.././hal/sam3u1c/sleep.c **** 	}
 237              	 .loc 1 88 0
 238 00d0 574B     	 ldr r3,.L40
 239 00d2 9A6A     	 ldr r2,[r3,#40]
 240 00d4 BB6C     	 ldr r3,[r7,#72]
 241 00d6 1A60     	 str r2,[r3]
 242              	.L10:
  90:.././hal/sam3u1c/sleep.c **** #if (SAM3S || SAM4S || SAM4C || SAM4CM || SAM4CP)
 243              	 .loc 1 90 0
 244 00d8 7B6C     	 ldr r3,[r7,#68]
 245 00da 002B     	 cmp r3,#0
 246 00dc 03D0     	 beq .L11
  94:.././hal/sam3u1c/sleep.c **** #else
 247              	 .loc 1 94 0
 248 00de 544B     	 ldr r3,.L40
 249 00e0 DA69     	 ldr r2,[r3,#28]
 250 00e2 7B6C     	 ldr r3,[r7,#68]
 251 00e4 1A60     	 str r2,[r3]
 252              	.L11:
  99:.././hal/sam3u1c/sleep.c **** 		*p_mck_setting  = mckr;
 253              	 .loc 1 99 0
 254 00e6 3B6C     	 ldr r3,[r7,#64]
 255 00e8 002B     	 cmp r3,#0
 256 00ea 02D0     	 beq .L12
 100:.././hal/sam3u1c/sleep.c **** 	}
 257              	 .loc 1 100 0
 258 00ec 3B6C     	 ldr r3,[r7,#64]
 259 00ee FA6A     	 ldr r2,[r7,#44]
 260 00f0 1A60     	 str r2,[r3]
 261              	.L12:
 102:.././hal/sam3u1c/sleep.c **** 		*p_fmr_setting  = fmr;
 262              	 .loc 1 102 0
 263 00f2 FB6B     	 ldr r3,[r7,#60]
 264 00f4 002B     	 cmp r3,#0
 265 00f6 02D0     	 beq .L13
 103:.././hal/sam3u1c/sleep.c **** 	}
 266              	 .loc 1 103 0
 267 00f8 FB6B     	 ldr r3,[r7,#60]
 268 00fa BA6A     	 ldr r2,[r7,#40]
 269 00fc 1A60     	 str r2,[r3]
 270              	.L13:
 106:.././hal/sam3u1c/sleep.c **** 		*p_fmr_setting1 = fmr1;
 271              	 .loc 1 106 0
 272 00fe BB6B     	 ldr r3,[r7,#56]
 273 0100 002B     	 cmp r3,#0
 274 0102 02D0     	 beq .L14
 107:.././hal/sam3u1c/sleep.c **** 	}
 275              	 .loc 1 107 0
 276 0104 BB6B     	 ldr r3,[r7,#56]
 277 0106 7A6A     	 ldr r2,[r7,#36]
 278 0108 1A60     	 str r2,[r3]
 279              	.L14:
 112:.././hal/sam3u1c/sleep.c **** 	/* if MCK source is PLL, switch to mainck */
 280              	 .loc 1 112 0
 281 010a 494A     	 ldr r2,.L40
 282 010c 3B6B     	 ldr r3,[r7,#48]
 283 010e 43F45C13 	 orr r3,r3,#3604480
 284 0112 43F00803 	 orr r3,r3,#8
 285 0116 1362     	 str r3,[r2,#32]
 114:.././hal/sam3u1c/sleep.c **** 		/* MCK -> MAINCK */
 286              	 .loc 1 114 0
 287 0118 FB6A     	 ldr r3,[r7,#44]
 288 011a 03F00303 	 and r3,r3,#3
 289 011e 012B     	 cmp r3,#1
 290 0120 0ED9     	 bls .L15
 116:.././hal/sam3u1c/sleep.c **** 		PMC->PMC_MCKR = mckr;
 291              	 .loc 1 116 0
 292 0122 FB6A     	 ldr r3,[r7,#44]
 293 0124 23F00303 	 bic r3,r3,#3
 294 0128 43F00103 	 orr r3,r3,#1
 295 012c FB62     	 str r3,[r7,#44]
 117:.././hal/sam3u1c/sleep.c **** 		while(!(PMC->PMC_SR & PMC_SR_MCKRDY));
 296              	 .loc 1 117 0
 297 012e 404A     	 ldr r2,.L40
 298 0130 FB6A     	 ldr r3,[r7,#44]
 299 0132 1363     	 str r3,[r2,#48]
 300              	.L16:
 118:.././hal/sam3u1c/sleep.c **** 	}
 301              	 .loc 1 118 0
 302 0134 3E4B     	 ldr r3,.L40
 303 0136 9B6E     	 ldr r3,[r3,#104]
 304 0138 03F00803 	 and r3,r3,#8
 305 013c 002B     	 cmp r3,#0
 306 013e F9D0     	 beq .L16
 307              	.L15:
 121:.././hal/sam3u1c/sleep.c **** 		mckr = (mckr & (~PMC_MCKR_PRES_Msk));
 308              	 .loc 1 121 0
 309 0140 FB6A     	 ldr r3,[r7,#44]
 310 0142 03F07003 	 and r3,r3,#112
 311 0146 002B     	 cmp r3,#0
 312 0148 0CD0     	 beq .L17
 122:.././hal/sam3u1c/sleep.c **** 		PMC->PMC_MCKR = mckr;
 313              	 .loc 1 122 0
 314 014a FB6A     	 ldr r3,[r7,#44]
 315 014c 23F07003 	 bic r3,r3,#112
 316 0150 FB62     	 str r3,[r7,#44]
 123:.././hal/sam3u1c/sleep.c **** 		while(!(PMC->PMC_SR & PMC_SR_MCKRDY));
 317              	 .loc 1 123 0
 318 0152 374A     	 ldr r2,.L40
 319 0154 FB6A     	 ldr r3,[r7,#44]
 320 0156 1363     	 str r3,[r2,#48]
 321              	.L18:
 124:.././hal/sam3u1c/sleep.c **** 	}
 322              	 .loc 1 124 0
 323 0158 354B     	 ldr r3,.L40
 324 015a 9B6E     	 ldr r3,[r3,#104]
 325 015c 03F00803 	 and r3,r3,#8
 326 0160 002B     	 cmp r3,#0
 327 0162 F9D0     	 beq .L18
 328              	.L17:
 127:.././hal/sam3u1c/sleep.c **** #if (SAM3S || SAM4S || SAM4C || SAM4CM || SAM4CP)
 329              	 .loc 1 127 0
 330 0164 384B     	 ldr r3,.L40+24
 331 0166 9847     	 blx r3
 332              	.LVL0:
 131:.././hal/sam3u1c/sleep.c **** #endif
 333              	 .loc 1 131 0
 334 0168 384B     	 ldr r3,.L40+28
 335 016a 9847     	 blx r3
 336              	.LVL1:
 337              	.L19:
 136:.././hal/sam3u1c/sleep.c **** 
 338              	 .loc 1 136 0
 339 016c 304B     	 ldr r3,.L40
 340 016e 9B6E     	 ldr r3,[r3,#104]
 341 0170 03F40033 	 and r3,r3,#131072
 342 0174 002B     	 cmp r3,#0
 343 0176 F9D0     	 beq .L19
 150:.././hal/sam3u1c/sleep.c **** 			CKGR_MOR_KEY_PASSWD;
 344              	 .loc 1 150 0
 345 0178 2D4B     	 ldr r3,.L40
 346 017a 1B6A     	 ldr r3,[r3,#32]
 347 017c 23F09B73 	 bic r3,r3,#20316160
 348 0180 23F48033 	 bic r3,r3,#65536
 349 0184 2A4A     	 ldr r2,.L40
 350 0186 43F45C13 	 orr r3,r3,#3604480
 351 018a 1362     	 str r3,[r2,#32]
 352              	.L20:
 153:.././hal/sam3u1c/sleep.c **** 
 353              	 .loc 1 153 0
 354 018c 284B     	 ldr r3,.L40
 355 018e 9B6E     	 ldr r3,[r3,#104]
 356 0190 03F48033 	 and r3,r3,#65536
 357 0194 002B     	 cmp r3,#0
 358 0196 F9D0     	 beq .L20
 157:.././hal/sam3u1c/sleep.c **** #if defined(EFC1)
 359              	 .loc 1 157 0
 360 0198 294A     	 ldr r2,.L40+16
 361 019a BB6A     	 ldr r3,[r7,#40]
 362 019c 23F47063 	 bic r3,r3,#3840
 363 01a0 1360     	 str r3,[r2]
 159:.././hal/sam3u1c/sleep.c **** #endif
 364              	 .loc 1 159 0
 365 01a2 284A     	 ldr r2,.L40+20
 366 01a4 7B6A     	 ldr r3,[r7,#36]
 367 01a6 23F47063 	 bic r3,r3,#3840
 368 01aa 1360     	 str r3,[r2]
 164:.././hal/sam3u1c/sleep.c **** 		PMC->CKGR_MOR = (PMC->CKGR_MOR & ~CKGR_MOR_MOSCXTEN) |
 369              	 .loc 1 164 0
 370 01ac 97F83730 	 ldrb r3,[r7,#55]
 371 01b0 002B     	 cmp r3,#0
 372 01b2 09D0     	 beq .L21
 165:.././hal/sam3u1c/sleep.c **** 				CKGR_MOR_KEY_PASSWD;
 373              	 .loc 1 165 0
 374 01b4 1E4B     	 ldr r3,.L40
 375 01b6 1B6A     	 ldr r3,[r3,#32]
 376 01b8 23F45C13 	 bic r3,r3,#3604480
 377 01bc 23F00103 	 bic r3,r3,#1
 378 01c0 1B4A     	 ldr r2,.L40
 379 01c2 43F45C13 	 orr r3,r3,#3604480
 380 01c6 1362     	 str r3,[r2,#32]
 381              	.L21:
 382              	.LBE55:
 383              	.LBE54:
 324:.././hal/sam3u1c/sleep.c **** #if defined(EFC1)
 325:.././hal/sam3u1c/sleep.c **** 				&fmr1,
 326:.././hal/sam3u1c/sleep.c **** #endif
 327:.././hal/sam3u1c/sleep.c **** 				(sleep_mode == SAM_PM_SMODE_WAIT));
 328:.././hal/sam3u1c/sleep.c **** 
 329:.././hal/sam3u1c/sleep.c **** 		/* Enter wait mode */
 330:.././hal/sam3u1c/sleep.c **** 		cpu_irq_enable();
 384              	 .loc 1 330 0
 385 01c8 1B4B     	 ldr r3,.L40+8
 386 01ca 0122     	 movs r2,#1
 387 01cc 1A70     	 strb r2,[r3]
 388              	.LBB56:
 389              	.LBB57:
 390              	 .loc 2 354 0
 391              	 .syntax unified
 392              	
 393 01ce BFF35F8F 	 dmb
 394              	
 395              	 .thumb
 396              	 .syntax unified
 397              	.LBE57:
 398              	.LBE56:
 399              	.LBB58:
 400              	.LBB59:
 317:.././hal/sam3u1c/inc/core_cmFunc.h **** }
 401              	 .loc 3 317 0
 402              	 .syntax unified
 403              	
 404 01d2 62B6     	 cpsie i
 405              	
 406              	 .thumb
 407              	 .syntax unified
 408              	.LBE59:
 409              	.LBE58:
 331:.././hal/sam3u1c/sleep.c **** 
 332:.././hal/sam3u1c/sleep.c **** 		pmc_enable_waitmode();
 410              	 .loc 1 332 0
 411 01d4 1E4B     	 ldr r3,.L40+32
 412 01d6 9847     	 blx r3
 413              	.LVL2:
 414              	.LBB60:
 415              	.LBB61:
 416              	 .loc 3 328 0
 417              	 .syntax unified
 418              	
 419 01d8 72B6     	 cpsid i
 420              	
 421              	 .thumb
 422              	 .syntax unified
 423              	.LBE61:
 424              	.LBE60:
 425              	.LBB62:
 426              	.LBB63:
 427              	 .loc 2 354 0
 428              	 .syntax unified
 429              	
 430 01da BFF35F8F 	 dmb
 431              	
 432              	 .thumb
 433              	 .syntax unified
 434              	.LBE63:
 435              	.LBE62:
 333:.././hal/sam3u1c/sleep.c **** 
 334:.././hal/sam3u1c/sleep.c **** 		cpu_irq_disable();
 436              	 .loc 1 334 0
 437 01de 164B     	 ldr r3,.L40+8
 438 01e0 0022     	 movs r2,#0
 439 01e2 1A70     	 strb r2,[r3]
 335:.././hal/sam3u1c/sleep.c **** 		pmc_restore_clock_setting(mor, pllr0, pllr1, mckr, fmr
 440              	 .loc 1 335 0
 441 01e4 3D6A     	 ldr r5,[r7,#32]
 442 01e6 FC69     	 ldr r4,[r7,#28]
 443 01e8 B869     	 ldr r0,[r7,#24]
 444 01ea 7969     	 ldr r1,[r7,#20]
 445 01ec 3A69     	 ldr r2,[r7,#16]
 446 01ee FB68     	 ldr r3,[r7,#12]
 447 01f0 FD66     	 str r5,[r7,#108]
 448 01f2 BC66     	 str r4,[r7,#104]
 449 01f4 7866     	 str r0,[r7,#100]
 450 01f6 3966     	 str r1,[r7,#96]
 451 01f8 FA65     	 str r2,[r7,#92]
 452 01fa BB65     	 str r3,[r7,#88]
 453              	.LBB64:
 454              	.LBB65:
 185:.././hal/sam3u1c/sleep.c **** 
 455              	 .loc 1 185 0
 456 01fc 0023     	 movs r3,#0
 457 01fe 7B65     	 str r3,[r7,#84]
 188:.././hal/sam3u1c/sleep.c **** 		/* Bypass mode */
 458              	 .loc 1 188 0
 459 0200 FB6E     	 ldr r3,[r7,#108]
 460 0202 03F00203 	 and r3,r3,#2
 461 0206 002B     	 cmp r3,#0
 462 0208 28D0     	 beq .L22
 190:.././hal/sam3u1c/sleep.c **** 				CKGR_MOR_KEY_PASSWD | CKGR_MOR_MOSCXTBY |
 463              	 .loc 1 190 0
 464 020a 094B     	 ldr r3,.L40
 465 020c 1B6A     	 ldr r3,[r3,#32]
 191:.././hal/sam3u1c/sleep.c **** 				CKGR_MOR_MOSCSEL;
 466              	 .loc 1 191 0
 467 020e 114A     	 ldr r2,.L40+36
 468 0210 1A40     	 ands r2,r2,r3
 190:.././hal/sam3u1c/sleep.c **** 				CKGR_MOR_KEY_PASSWD | CKGR_MOR_MOSCXTBY |
 469              	 .loc 1 190 0
 470 0212 0749     	 ldr r1,.L40
 191:.././hal/sam3u1c/sleep.c **** 				CKGR_MOR_MOSCSEL;
 471              	 .loc 1 191 0
 472 0214 104B     	 ldr r3,.L40+40
 473 0216 1343     	 orrs r3,r3,r2
 190:.././hal/sam3u1c/sleep.c **** 				CKGR_MOR_KEY_PASSWD | CKGR_MOR_MOSCXTBY |
 474              	 .loc 1 190 0
 475 0218 0B62     	 str r3,[r1,#32]
 193:.././hal/sam3u1c/sleep.c **** 					~CKGR_MOR_MOSCRCF_Msk)
 476              	 .loc 1 193 0
 477 021a 054B     	 ldr r3,.L40
 478 021c 1B6A     	 ldr r3,[r3,#32]
 195:.././hal/sam3u1c/sleep.c **** 	} else if (CKGR_MOR_MOSCXTEN == (osc_setting & CKGR_MOR_MOSCXTEN)) {
 479              	 .loc 1 195 0
 480 021e 23F45C13 	 bic r3,r3,#3604480
 481 0222 23F07803 	 bic r3,r3,#120
 193:.././hal/sam3u1c/sleep.c **** 					~CKGR_MOR_MOSCRCF_Msk)
 482              	 .loc 1 193 0
 483 0226 024A     	 ldr r2,.L40
 195:.././hal/sam3u1c/sleep.c **** 	} else if (CKGR_MOR_MOSCXTEN == (osc_setting & CKGR_MOR_MOSCXTEN)) {
 484              	 .loc 1 195 0
 485 0228 43F45C13 	 orr r3,r3,#3604480
 193:.././hal/sam3u1c/sleep.c **** 					~CKGR_MOR_MOSCRCF_Msk)
 486              	 .loc 1 193 0
 487 022c 1362     	 str r3,[r2,#32]
 488 022e 50E0     	 b .L23
 489              	.L41:
 490              	 .align 2
 491              	.L40:
 492 0230 00040E40 	 .word 1074660352
 493 0234 00ED00E0 	 .word -536810240
 494 0238 00000000 	 .word g_interrupt_enabled
 495 023c 00000000 	 .word b_is_sleep_clock_used
 496 0240 00080E40 	 .word 1074661376
 497 0244 000A0E40 	 .word 1074661888
 498 0248 00000000 	 .word pmc_disable_pllack
 499 024c 00000000 	 .word pmc_disable_upll_clock
 500 0250 00000000 	 .word pmc_enable_waitmode
 501 0254 FCFFC8FE 	 .word -20381700
 502 0258 02003701 	 .word 20381698
 503              	.L22:
 196:.././hal/sam3u1c/sleep.c **** 		/* Enable External XTAL */
 504              	 .loc 1 196 0
 505 025c FB6E     	 ldr r3,[r7,#108]
 506 025e 03F00103 	 and r3,r3,#1
 507 0262 002B     	 cmp r3,#0
 508 0264 35D0     	 beq .L23
 198:.././hal/sam3u1c/sleep.c **** 			PMC->CKGR_MOR = (PMC->CKGR_MOR & ~CKGR_MOR_MOSCXTBY) |
 509              	 .loc 1 198 0
 510 0266 594B     	 ldr r3,.L42
 511 0268 1B6A     	 ldr r3,[r3,#32]
 512 026a 03F00103 	 and r3,r3,#1
 513 026e 002B     	 cmp r3,#0
 514 0270 11D1     	 bne .L24
 199:.././hal/sam3u1c/sleep.c **** 					CKGR_MOR_KEY_PASSWD | CKGR_MOR_MOSCXTEN;
 515              	 .loc 1 199 0
 516 0272 564B     	 ldr r3,.L42
 517 0274 1B6A     	 ldr r3,[r3,#32]
 200:.././hal/sam3u1c/sleep.c **** 			/* Wait the Xtal to stabilize */
 518              	 .loc 1 200 0
 519 0276 23F45C13 	 bic r3,r3,#3604480
 520 027a 23F00303 	 bic r3,r3,#3
 199:.././hal/sam3u1c/sleep.c **** 					CKGR_MOR_KEY_PASSWD | CKGR_MOR_MOSCXTEN;
 521              	 .loc 1 199 0
 522 027e 534A     	 ldr r2,.L42
 200:.././hal/sam3u1c/sleep.c **** 			/* Wait the Xtal to stabilize */
 523              	 .loc 1 200 0
 524 0280 43F45C13 	 orr r3,r3,#3604480
 525 0284 43F00103 	 orr r3,r3,#1
 199:.././hal/sam3u1c/sleep.c **** 					CKGR_MOR_KEY_PASSWD | CKGR_MOR_MOSCXTEN;
 526              	 .loc 1 199 0
 527 0288 1362     	 str r3,[r2,#32]
 528              	.L25:
 202:.././hal/sam3u1c/sleep.c **** 		}
 529              	 .loc 1 202 0
 530 028a 504B     	 ldr r3,.L42
 531 028c 9B6E     	 ldr r3,[r3,#104]
 532 028e 03F00103 	 and r3,r3,#1
 533 0292 002B     	 cmp r3,#0
 534 0294 F9D0     	 beq .L25
 535              	.L24:
 205:.././hal/sam3u1c/sleep.c **** 			PMC->CKGR_MOR |= CKGR_MOR_KEY_PASSWD | CKGR_MOR_MOSCSEL;
 536              	 .loc 1 205 0
 537 0296 4D4B     	 ldr r3,.L42
 538 0298 1B6A     	 ldr r3,[r3,#32]
 539 029a 03F08073 	 and r3,r3,#16777216
 540 029e 002B     	 cmp r3,#0
 541 02a0 0DD1     	 bne .L26
 206:.././hal/sam3u1c/sleep.c **** 			while (!(PMC->PMC_SR & PMC_SR_MOSCSELS));
 542              	 .loc 1 206 0
 543 02a2 4A4B     	 ldr r3,.L42
 544 02a4 1B6A     	 ldr r3,[r3,#32]
 545 02a6 494A     	 ldr r2,.L42
 546 02a8 43F09B73 	 orr r3,r3,#20316160
 547 02ac 43F48033 	 orr r3,r3,#65536
 548 02b0 1362     	 str r3,[r2,#32]
 549              	.L27:
 207:.././hal/sam3u1c/sleep.c **** 		}
 550              	 .loc 1 207 0
 551 02b2 464B     	 ldr r3,.L42
 552 02b4 9B6E     	 ldr r3,[r3,#104]
 553 02b6 03F48033 	 and r3,r3,#65536
 554 02ba 002B     	 cmp r3,#0
 555 02bc F9D0     	 beq .L27
 556              	.L26:
 210:.././hal/sam3u1c/sleep.c **** 						~CKGR_MOR_MOSCRCF_Msk)
 557              	 .loc 1 210 0
 558 02be 434B     	 ldr r3,.L42
 559 02c0 1B6A     	 ldr r3,[r3,#32]
 212:.././hal/sam3u1c/sleep.c **** 	}
 560              	 .loc 1 212 0
 561 02c2 23F45C13 	 bic r3,r3,#3604480
 562 02c6 23F07803 	 bic r3,r3,#120
 210:.././hal/sam3u1c/sleep.c **** 						~CKGR_MOR_MOSCRCF_Msk)
 563              	 .loc 1 210 0
 564 02ca 404A     	 ldr r2,.L42
 212:.././hal/sam3u1c/sleep.c **** 	}
 565              	 .loc 1 212 0
 566 02cc 43F45C13 	 orr r3,r3,#3604480
 210:.././hal/sam3u1c/sleep.c **** 						~CKGR_MOR_MOSCRCF_Msk)
 567              	 .loc 1 210 0
 568 02d0 1362     	 str r3,[r2,#32]
 569              	.L23:
 215:.././hal/sam3u1c/sleep.c **** #if (SAM4C || SAM4CM || SAMG || SAM4CP)
 570              	 .loc 1 215 0
 571 02d2 BA6E     	 ldr r2,[r7,#104]
 572 02d4 3E4B     	 ldr r3,.L42+4
 573 02d6 1340     	 ands r3,r3,r2
 574 02d8 002B     	 cmp r3,#0
 575 02da 08D0     	 beq .L28
 219:.././hal/sam3u1c/sleep.c **** #endif
 576              	 .loc 1 219 0
 577 02dc 3B4A     	 ldr r2,.L42
 578 02de BB6E     	 ldr r3,[r7,#104]
 579 02e0 43F00053 	 orr r3,r3,#536870912
 580 02e4 9362     	 str r3,[r2,#40]
 221:.././hal/sam3u1c/sleep.c **** 	}
 581              	 .loc 1 221 0
 582 02e6 7B6D     	 ldr r3,[r7,#84]
 583 02e8 43F00203 	 orr r3,r3,#2
 584 02ec 7B65     	 str r3,[r7,#84]
 585              	.L28:
 229:.././hal/sam3u1c/sleep.c **** 		PMC->CKGR_UCKR = pll1_setting;
 586              	 .loc 1 229 0
 587 02ee 7B6E     	 ldr r3,[r7,#100]
 588 02f0 03F48033 	 and r3,r3,#65536
 589 02f4 002B     	 cmp r3,#0
 590 02f6 06D0     	 beq .L29
 230:.././hal/sam3u1c/sleep.c **** 		pll_sr |= PMC_SR_LOCKU;
 591              	 .loc 1 230 0
 592 02f8 344A     	 ldr r2,.L42
 593 02fa 7B6E     	 ldr r3,[r7,#100]
 594 02fc D361     	 str r3,[r2,#28]
 231:.././hal/sam3u1c/sleep.c **** 	}
 595              	 .loc 1 231 0
 596 02fe 7B6D     	 ldr r3,[r7,#84]
 597 0300 43F04003 	 orr r3,r3,#64
 598 0304 7B65     	 str r3,[r7,#84]
 599              	.L29:
 237:.././hal/sam3u1c/sleep.c **** 	case PMC_MCKR_CSS_PLLA_CLK:
 600              	 .loc 1 237 0
 601 0306 3B6E     	 ldr r3,[r7,#96]
 602 0308 03F00303 	 and r3,r3,#3
 603 030c 022B     	 cmp r3,#2
 604 030e 02D0     	 beq .L33
 605 0310 032B     	 cmp r3,#3
 606 0312 07D0     	 beq .L34
 607 0314 0CE0     	 b .L30
 608              	.L33:
 239:.././hal/sam3u1c/sleep.c **** 		break;
 609              	 .loc 1 239 0
 610 0316 2D4B     	 ldr r3,.L42
 611 0318 9B6E     	 ldr r3,[r3,#104]
 612 031a 03F00203 	 and r3,r3,#2
 613 031e 002B     	 cmp r3,#0
 614 0320 F9D0     	 beq .L33
 615 0322 05E0     	 b .L30
 616              	.L34:
 247:.././hal/sam3u1c/sleep.c **** 		break;
 617              	 .loc 1 247 0
 618 0324 294B     	 ldr r3,.L42
 619 0326 9B6E     	 ldr r3,[r3,#104]
 620 0328 03F04003 	 and r3,r3,#64
 621 032c 002B     	 cmp r3,#0
 622 032e F9D0     	 beq .L34
 623              	.L30:
 253:.././hal/sam3u1c/sleep.c **** 
 624              	 .loc 1 253 0
 625 0330 264B     	 ldr r3,.L42
 626 0332 1B6B     	 ldr r3,[r3,#48]
 627 0334 3B65     	 str r3,[r7,#80]
 256:.././hal/sam3u1c/sleep.c **** 		| (mck_setting & PMC_MCKR_PRES_Msk);
 628              	 .loc 1 256 0
 629 0336 3B6D     	 ldr r3,[r7,#80]
 630 0338 23F07002 	 bic r2,r3,#112
 257:.././hal/sam3u1c/sleep.c **** 	while (!(PMC->PMC_SR & PMC_SR_MCKRDY));
 631              	 .loc 1 257 0
 632 033c 3B6E     	 ldr r3,[r7,#96]
 633 033e 03F07003 	 and r3,r3,#112
 256:.././hal/sam3u1c/sleep.c **** 		| (mck_setting & PMC_MCKR_PRES_Msk);
 634              	 .loc 1 256 0
 635 0342 2249     	 ldr r1,.L42
 257:.././hal/sam3u1c/sleep.c **** 	while (!(PMC->PMC_SR & PMC_SR_MCKRDY));
 636              	 .loc 1 257 0
 637 0344 1343     	 orrs r3,r3,r2
 256:.././hal/sam3u1c/sleep.c **** 		| (mck_setting & PMC_MCKR_PRES_Msk);
 638              	 .loc 1 256 0
 639 0346 0B63     	 str r3,[r1,#48]
 640              	.L35:
 258:.././hal/sam3u1c/sleep.c **** 
 641              	 .loc 1 258 0
 642 0348 204B     	 ldr r3,.L42
 643 034a 9B6E     	 ldr r3,[r3,#104]
 644 034c 03F00803 	 and r3,r3,#8
 645 0350 002B     	 cmp r3,#0
 646 0352 F9D0     	 beq .L35
 261:.././hal/sam3u1c/sleep.c **** #if defined(EFC1)
 647              	 .loc 1 261 0
 648 0354 1F4A     	 ldr r2,.L42+8
 649 0356 FB6D     	 ldr r3,[r7,#92]
 650 0358 1360     	 str r3,[r2]
 263:.././hal/sam3u1c/sleep.c **** #endif
 651              	 .loc 1 263 0
 652 035a 1F4A     	 ldr r2,.L42+12
 653 035c BB6D     	 ldr r3,[r7,#88]
 654 035e 1360     	 str r3,[r2]
 267:.././hal/sam3u1c/sleep.c **** 	while (!(PMC->PMC_SR & PMC_SR_MCKRDY));
 655              	 .loc 1 267 0
 656 0360 1A4A     	 ldr r2,.L42
 657 0362 3B6E     	 ldr r3,[r7,#96]
 658 0364 1363     	 str r3,[r2,#48]
 659              	.L36:
 268:.././hal/sam3u1c/sleep.c **** 
 660              	 .loc 1 268 0
 661 0366 194B     	 ldr r3,.L42
 662 0368 9B6E     	 ldr r3,[r3,#104]
 663 036a 03F00803 	 and r3,r3,#8
 664 036e 002B     	 cmp r3,#0
 665 0370 F9D0     	 beq .L36
 666              	.L37:
 271:.././hal/sam3u1c/sleep.c **** }
 667              	 .loc 1 271 0
 668 0372 164B     	 ldr r3,.L42
 669 0374 9A6E     	 ldr r2,[r3,#104]
 670 0376 7B6D     	 ldr r3,[r7,#84]
 671 0378 1340     	 ands r3,r3,r2
 672 037a 002B     	 cmp r3,#0
 673 037c F9D0     	 beq .L37
 674              	.LBE65:
 675              	.LBE64:
 336:.././hal/sam3u1c/sleep.c **** #if defined(EFC1)
 337:.././hal/sam3u1c/sleep.c **** 				, fmr1
 338:.././hal/sam3u1c/sleep.c **** #endif
 339:.././hal/sam3u1c/sleep.c **** 				);
 340:.././hal/sam3u1c/sleep.c **** 
 341:.././hal/sam3u1c/sleep.c **** #if (SAM4C || SAM4CM || SAM4CP)
 342:.././hal/sam3u1c/sleep.c **** 		/* Restore the sub-system 1 */
 343:.././hal/sam3u1c/sleep.c **** 		PMC->PMC_SCER = cpclk_backup | PMC_SCER_CPKEY_PASSWD;
 344:.././hal/sam3u1c/sleep.c **** #endif
 345:.././hal/sam3u1c/sleep.c **** 		b_is_sleep_clock_used = false;
 676              	 .loc 1 345 0
 677 037e 174B     	 ldr r3,.L42+16
 678 0380 0022     	 movs r2,#0
 679 0382 1A70     	 strb r2,[r3]
 346:.././hal/sam3u1c/sleep.c **** 		if (callback_clocks_restored) {
 680              	 .loc 1 346 0
 681 0384 164B     	 ldr r3,.L42+20
 682 0386 1B68     	 ldr r3,[r3]
 683 0388 002B     	 cmp r3,#0
 684 038a 05D0     	 beq .L38
 347:.././hal/sam3u1c/sleep.c **** 			callback_clocks_restored();
 685              	 .loc 1 347 0
 686 038c 144B     	 ldr r3,.L42+20
 687 038e 1B68     	 ldr r3,[r3]
 688 0390 9847     	 blx r3
 689              	.LVL3:
 348:.././hal/sam3u1c/sleep.c **** 			callback_clocks_restored = NULL;
 690              	 .loc 1 348 0
 691 0392 134B     	 ldr r3,.L42+20
 692 0394 0022     	 movs r2,#0
 693 0396 1A60     	 str r2,[r3]
 694              	.L38:
 349:.././hal/sam3u1c/sleep.c **** 		}
 350:.././hal/sam3u1c/sleep.c **** 		cpu_irq_enable();
 695              	 .loc 1 350 0
 696 0398 124B     	 ldr r3,.L42+24
 697 039a 0122     	 movs r2,#1
 698 039c 1A70     	 strb r2,[r3]
 699              	.LBB66:
 700              	.LBB67:
 701              	 .loc 2 354 0
 702              	 .syntax unified
 703              	
 704 039e BFF35F8F 	 dmb
 705              	
 706              	 .thumb
 707              	 .syntax unified
 708              	.LBE67:
 709              	.LBE66:
 710              	.LBB68:
 711              	.LBB69:
 317:.././hal/sam3u1c/inc/core_cmFunc.h **** }
 712              	 .loc 3 317 0
 713              	 .syntax unified
 714              	
 715 03a2 62B6     	 cpsie i
 716              	
 717              	 .thumb
 718              	 .syntax unified
 719              	.LBE69:
 720              	.LBE68:
 351:.././hal/sam3u1c/sleep.c **** 
 352:.././hal/sam3u1c/sleep.c **** 		break;
 721              	 .loc 1 352 0
 722 03a4 00BF     	 nop
 723 03a6 0DE0     	 b .L2
 724              	.L6:
 725              	.LBE49:
 353:.././hal/sam3u1c/sleep.c **** 	}
 354:.././hal/sam3u1c/sleep.c **** #if (!(SAMG51 || SAMG53 || SAMG54))
 355:.././hal/sam3u1c/sleep.c **** 	case SAM_PM_SMODE_BACKUP:
 356:.././hal/sam3u1c/sleep.c **** 		SCB->SCR |= SCR_SLEEPDEEP;
 726              	 .loc 1 356 0
 727 03a8 0F4B     	 ldr r3,.L42+28
 728 03aa 1B69     	 ldr r3,[r3,#16]
 729 03ac 0E4A     	 ldr r2,.L42+28
 730 03ae 43F00403 	 orr r3,r3,#4
 731 03b2 1361     	 str r3,[r2,#16]
 357:.././hal/sam3u1c/sleep.c **** #if (SAM4S || SAM4E || SAM4N || SAM4C || SAM4CM || SAM4CP || SAMG55)
 358:.././hal/sam3u1c/sleep.c **** 		SUPC->SUPC_CR = SUPC_CR_KEY_PASSWD | SUPC_CR_VROFF_STOP_VREG;
 359:.././hal/sam3u1c/sleep.c **** 		cpu_irq_enable();
 360:.././hal/sam3u1c/sleep.c **** 		__WFI() ;
 361:.././hal/sam3u1c/sleep.c **** #else
 362:.././hal/sam3u1c/sleep.c **** 		cpu_irq_enable();
 732              	 .loc 1 362 0
 733 03b4 0B4B     	 ldr r3,.L42+24
 734 03b6 0122     	 movs r2,#1
 735 03b8 1A70     	 strb r2,[r3]
 736              	.LBB70:
 737              	.LBB71:
 738              	 .loc 2 354 0
 739              	 .syntax unified
 740              	
 741 03ba BFF35F8F 	 dmb
 742              	
 743              	 .thumb
 744              	 .syntax unified
 745              	.LBE71:
 746              	.LBE70:
 747              	.LBB72:
 748              	.LBB73:
 317:.././hal/sam3u1c/inc/core_cmFunc.h **** }
 749              	 .loc 3 317 0
 750              	 .syntax unified
 751              	
 752 03be 62B6     	 cpsie i
 753              	
 754              	 .thumb
 755              	 .syntax unified
 756              	.LBE73:
 757              	.LBE72:
 758              	.LBB74:
 759              	.LBB75:
 310:.././hal/sam3u1c/inc/core_cmInstr.h **** }
 760              	 .loc 2 310 0
 761              	 .syntax unified
 762              	
 763 03c0 20BF     	 wfe
 764              	
 765              	 .thumb
 766              	 .syntax unified
 767              	.LBE75:
 768              	.LBE74:
 363:.././hal/sam3u1c/sleep.c **** 		__WFE() ;
 364:.././hal/sam3u1c/sleep.c **** #endif
 365:.././hal/sam3u1c/sleep.c **** 		break;
 769              	 .loc 1 365 0
 770 03c2 00BF     	 nop
 771              	.L2:
 772              	.L39:
 366:.././hal/sam3u1c/sleep.c **** #endif
 367:.././hal/sam3u1c/sleep.c **** 	}
 368:.././hal/sam3u1c/sleep.c **** }
 773              	 .loc 1 368 0
 774 03c4 00BF     	 nop
 775 03c6 7037     	 adds r7,r7,#112
 776              	.LCFI3:
 777              	 .cfi_def_cfa_offset 16
 778 03c8 BD46     	 mov sp,r7
 779              	.LCFI4:
 780              	 .cfi_def_cfa_register 13
 781              	 
 782 03ca B0BD     	 pop {r4,r5,r7,pc}
 783              	.L43:
 784              	 .align 2
 785              	.L42:
 786 03cc 00040E40 	 .word 1074660352
 787 03d0 0000FF07 	 .word 134152192
 788 03d4 00080E40 	 .word 1074661376
 789 03d8 000A0E40 	 .word 1074661888
 790 03dc 00000000 	 .word b_is_sleep_clock_used
 791 03e0 00000000 	 .word callback_clocks_restored
 792 03e4 00000000 	 .word g_interrupt_enabled
 793 03e8 00ED00E0 	 .word -536810240
 794              	 .cfi_endproc
 795              	.LFE71:
 797              	 .section .text.pmc_is_wakeup_clocks_restored,"ax",%progbits
 798              	 .align 1
 799              	 .global pmc_is_wakeup_clocks_restored
 800              	 .syntax unified
 801              	 .thumb
 802              	 .thumb_func
 803              	 .fpu softvfp
 805              	pmc_is_wakeup_clocks_restored:
 806              	.LFB72:
 369:.././hal/sam3u1c/sleep.c **** 
 370:.././hal/sam3u1c/sleep.c **** bool pmc_is_wakeup_clocks_restored(void)
 371:.././hal/sam3u1c/sleep.c **** {
 807              	 .loc 1 371 0
 808              	 .cfi_startproc
 809              	 
 810              	 
 811              	 
 812 0000 80B4     	 push {r7}
 813              	.LCFI5:
 814              	 .cfi_def_cfa_offset 4
 815              	 .cfi_offset 7,-4
 816 0002 00AF     	 add r7,sp,#0
 817              	.LCFI6:
 818              	 .cfi_def_cfa_register 7
 372:.././hal/sam3u1c/sleep.c **** 	return !b_is_sleep_clock_used;
 819              	 .loc 1 372 0
 820 0004 084B     	 ldr r3,.L46
 821 0006 1B78     	 ldrb r3,[r3]
 822 0008 DBB2     	 uxtb r3,r3
 823 000a 002B     	 cmp r3,#0
 824 000c 14BF     	 ite ne
 825 000e 0123     	 movne r3,#1
 826 0010 0023     	 moveq r3,#0
 827 0012 DBB2     	 uxtb r3,r3
 828 0014 83F00103 	 eor r3,r3,#1
 829 0018 DBB2     	 uxtb r3,r3
 830 001a 03F00103 	 and r3,r3,#1
 831 001e DBB2     	 uxtb r3,r3
 373:.././hal/sam3u1c/sleep.c **** }
 832              	 .loc 1 373 0
 833 0020 1846     	 mov r0,r3
 834 0022 BD46     	 mov sp,r7
 835              	.LCFI7:
 836              	 .cfi_def_cfa_register 13
 837              	 
 838 0024 80BC     	 pop {r7}
 839              	.LCFI8:
 840              	 .cfi_restore 7
 841              	 .cfi_def_cfa_offset 0
 842 0026 7047     	 bx lr
 843              	.L47:
 844              	 .align 2
 845              	.L46:
 846 0028 00000000 	 .word b_is_sleep_clock_used
 847              	 .cfi_endproc
 848              	.LFE72:
 850              	 .section .text.pmc_wait_wakeup_clocks_restore,"ax",%progbits
 851              	 .align 1
 852              	 .global pmc_wait_wakeup_clocks_restore
 853              	 .syntax unified
 854              	 .thumb
 855              	 .thumb_func
 856              	 .fpu softvfp
 858              	pmc_wait_wakeup_clocks_restore:
 859              	.LFB73:
 374:.././hal/sam3u1c/sleep.c **** 
 375:.././hal/sam3u1c/sleep.c **** void pmc_wait_wakeup_clocks_restore(
 376:.././hal/sam3u1c/sleep.c **** 		pmc_callback_wakeup_clocks_restored_t callback)
 377:.././hal/sam3u1c/sleep.c **** {
 860              	 .loc 1 377 0
 861              	 .cfi_startproc
 862              	 
 863              	 
 864 0000 80B5     	 push {r7,lr}
 865              	.LCFI9:
 866              	 .cfi_def_cfa_offset 8
 867              	 .cfi_offset 7,-8
 868              	 .cfi_offset 14,-4
 869 0002 82B0     	 sub sp,sp,#8
 870              	.LCFI10:
 871              	 .cfi_def_cfa_offset 16
 872 0004 00AF     	 add r7,sp,#0
 873              	.LCFI11:
 874              	 .cfi_def_cfa_register 7
 875 0006 7860     	 str r0,[r7,#4]
 378:.././hal/sam3u1c/sleep.c **** 	if (b_is_sleep_clock_used) {
 876              	 .loc 1 378 0
 877 0008 0B4B     	 ldr r3,.L52
 878 000a 1B78     	 ldrb r3,[r3]
 879 000c DBB2     	 uxtb r3,r3
 880 000e 002B     	 cmp r3,#0
 881 0010 09D0     	 beq .L49
 882              	.LBB76:
 883              	.LBB77:
 884              	 .loc 3 328 0
 885              	 .syntax unified
 886              	
 887 0012 72B6     	 cpsid i
 888              	
 889              	 .thumb
 890              	 .syntax unified
 891              	.LBE77:
 892              	.LBE76:
 893              	.LBB78:
 894              	.LBB79:
 895              	 .loc 2 354 0
 896              	 .syntax unified
 897              	
 898 0014 BFF35F8F 	 dmb
 899              	
 900              	 .thumb
 901              	 .syntax unified
 902              	.LBE79:
 903              	.LBE78:
 379:.././hal/sam3u1c/sleep.c **** 		cpu_irq_disable();
 904              	 .loc 1 379 0
 905 0018 084B     	 ldr r3,.L52+4
 906 001a 0022     	 movs r2,#0
 907 001c 1A70     	 strb r2,[r3]
 380:.././hal/sam3u1c/sleep.c **** 		callback_clocks_restored = callback;
 908              	 .loc 1 380 0
 909 001e 084A     	 ldr r2,.L52+8
 910 0020 7B68     	 ldr r3,[r7,#4]
 911 0022 1360     	 str r3,[r2]
 381:.././hal/sam3u1c/sleep.c **** 	} else if (callback) {
 382:.././hal/sam3u1c/sleep.c **** 		callback();
 383:.././hal/sam3u1c/sleep.c **** 	}
 384:.././hal/sam3u1c/sleep.c **** }
 912              	 .loc 1 384 0
 913 0024 04E0     	 b .L51
 914              	.L49:
 381:.././hal/sam3u1c/sleep.c **** 	} else if (callback) {
 915              	 .loc 1 381 0
 916 0026 7B68     	 ldr r3,[r7,#4]
 917 0028 002B     	 cmp r3,#0
 918 002a 01D0     	 beq .L51
 382:.././hal/sam3u1c/sleep.c **** 	}
 919              	 .loc 1 382 0
 920 002c 7B68     	 ldr r3,[r7,#4]
 921 002e 9847     	 blx r3
 922              	.LVL4:
 923              	.L51:
 924              	 .loc 1 384 0
 925 0030 00BF     	 nop
 926 0032 0837     	 adds r7,r7,#8
 927              	.LCFI12:
 928              	 .cfi_def_cfa_offset 8
 929 0034 BD46     	 mov sp,r7
 930              	.LCFI13:
 931              	 .cfi_def_cfa_register 13
 932              	 
 933 0036 80BD     	 pop {r7,pc}
 934              	.L53:
 935              	 .align 2
 936              	.L52:
 937 0038 00000000 	 .word b_is_sleep_clock_used
 938 003c 00000000 	 .word g_interrupt_enabled
 939 0040 00000000 	 .word callback_clocks_restored
 940              	 .cfi_endproc
 941              	.LFE73:
 943              	 .text
 944              	.Letext0:
 945              	 .file 4 "c:\\program files (x86)\\gnu tools arm embedded\\7 2018-q2-update\\arm-none-eabi\\include\\machine\\_default_types.h"
 946              	 .file 5 "c:\\program files (x86)\\gnu tools arm embedded\\7 2018-q2-update\\arm-none-eabi\\include\\sys\\_stdint.h"
 947              	 .file 6 ".././hal/sam3u1c/inc/sam3u1c.h"
 948              	 .file 7 ".././hal/sam3u1c/inc/core_cm3.h"
 949              	 .file 8 ".././hal/sam3u1c/inc/system_sam3u.h"
 950              	 .file 9 ".././hal/sam3u1c/inc/component/component_efc.h"
 951              	 .file 10 ".././hal/sam3u1c/inc/component/component_pmc.h"
 952              	 .file 11 "c:\\program files (x86)\\gnu tools arm embedded\\7 2018-q2-update\\arm-none-eabi\\include\\sys\\lock.h"
 953              	 .file 12 "c:\\program files (x86)\\gnu tools arm embedded\\7 2018-q2-update\\arm-none-eabi\\include\\sys\\_types.h"
 954              	 .file 13 "c:\\program files (x86)\\gnu tools arm embedded\\7 2018-q2-update\\lib\\gcc\\arm-none-eabi\\7.3.1\\include\\stddef.h"
 955              	 .file 14 "c:\\program files (x86)\\gnu tools arm embedded\\7 2018-q2-update\\arm-none-eabi\\include\\sys\\reent.h"
 956              	 .file 15 "c:\\program files (x86)\\gnu tools arm embedded\\7 2018-q2-update\\arm-none-eabi\\include\\stdlib.h"
 957              	 .file 16 ".././hal/sam3u1c/inc/interrupt/interrupt_sam_nvic.h"
 958              	 .file 17 ".././hal/sam3u1c/inc/sleep.h"
 959              	 .file 18 ".././hal/sam3u1c/inc/pmc.h"