   1              	 .cpu cortex-m3
   2              	 .eabi_attribute 20,1
   3              	 .eabi_attribute 21,1
   4              	 .eabi_attribute 23,3
   5              	 .eabi_attribute 24,1
   6              	 .eabi_attribute 25,1
   7              	 .eabi_attribute 26,1
   8              	 .eabi_attribute 30,6
   9              	 .eabi_attribute 34,1
  10              	 .eabi_attribute 18,4
  11              	 .file "smc.c"
  12              	 .text
  13              	.Ltext0:
  14              	 .cfi_sections .debug_frame
  15              	 .section .bss.cpu_irq_critical_section_counter,"aw",%nobits
  16              	 .align 2
  19              	cpu_irq_critical_section_counter:
  20 0000 00000000 	 .space 4
  21              	 .section .bss.cpu_irq_prev_interrupt_state,"aw",%nobits
  24              	cpu_irq_prev_interrupt_state:
  25 0000 00       	 .space 1
  26              	 .section .text.smc_set_setup_timing,"ax",%progbits
  27              	 .align 1
  28              	 .global smc_set_setup_timing
  29              	 .arch armv7-m
  30              	 .syntax unified
  31              	 .thumb
  32              	 .thumb_func
  33              	 .fpu softvfp
  35              	smc_set_setup_timing:
  36              	.LFB69:
  37              	 .file 1 ".././hal/sam3u1c/smc.c"
   1:.././hal/sam3u1c/smc.c **** /**
   2:.././hal/sam3u1c/smc.c ****  * \file
   3:.././hal/sam3u1c/smc.c ****  *
   4:.././hal/sam3u1c/smc.c ****  * \brief Static Memory Controller (SMC) driver for SAM.
   5:.././hal/sam3u1c/smc.c ****  *
   6:.././hal/sam3u1c/smc.c ****  * Copyright (c) 2011-2014 Atmel Corporation. All rights reserved.
   7:.././hal/sam3u1c/smc.c ****  *
   8:.././hal/sam3u1c/smc.c ****  * \asf_license_start
   9:.././hal/sam3u1c/smc.c ****  *
  10:.././hal/sam3u1c/smc.c ****  * \page License
  11:.././hal/sam3u1c/smc.c ****  *
  12:.././hal/sam3u1c/smc.c ****  * Redistribution and use in source and binary forms, with or without
  13:.././hal/sam3u1c/smc.c ****  * modification, are permitted provided that the following conditions are met:
  14:.././hal/sam3u1c/smc.c ****  *
  15:.././hal/sam3u1c/smc.c ****  * 1. Redistributions of source code must retain the above copyright notice,
  16:.././hal/sam3u1c/smc.c ****  *    this list of conditions and the following disclaimer.
  17:.././hal/sam3u1c/smc.c ****  *
  18:.././hal/sam3u1c/smc.c ****  * 2. Redistributions in binary form must reproduce the above copyright notice,
  19:.././hal/sam3u1c/smc.c ****  *    this list of conditions and the following disclaimer in the documentation
  20:.././hal/sam3u1c/smc.c ****  *    and/or other materials provided with the distribution.
  21:.././hal/sam3u1c/smc.c ****  *
  22:.././hal/sam3u1c/smc.c ****  * 3. The name of Atmel may not be used to endorse or promote products derived
  23:.././hal/sam3u1c/smc.c ****  *    from this software without specific prior written permission.
  24:.././hal/sam3u1c/smc.c ****  *
  25:.././hal/sam3u1c/smc.c ****  * 4. This software may only be redistributed and used in connection with an
  26:.././hal/sam3u1c/smc.c ****  *    Atmel microcontroller product.
  27:.././hal/sam3u1c/smc.c ****  *
  28:.././hal/sam3u1c/smc.c ****  * THIS SOFTWARE IS PROVIDED BY ATMEL "AS IS" AND ANY EXPRESS OR IMPLIED
  29:.././hal/sam3u1c/smc.c ****  * WARRANTIES, INCLUDING, BUT NOT LIMITED TO, THE IMPLIED WARRANTIES OF
  30:.././hal/sam3u1c/smc.c ****  * MERCHANTABILITY, FITNESS FOR A PARTICULAR PURPOSE AND NON-INFRINGEMENT ARE
  31:.././hal/sam3u1c/smc.c ****  * EXPRESSLY AND SPECIFICALLY DISCLAIMED. IN NO EVENT SHALL ATMEL BE LIABLE FOR
  32:.././hal/sam3u1c/smc.c ****  * ANY DIRECT, INDIRECT, INCIDENTAL, SPECIAL, EXEMPLARY, OR CONSEQUENTIAL
  33:.././hal/sam3u1c/smc.c ****  * DAMAGES (INCLUDING, BUT NOT LIMITED TO, PROCUREMENT OF SUBSTITUTE GOODS
  34:.././hal/sam3u1c/smc.c ****  * OR SERVICES; LOSS OF USE, DATA, OR PROFITS; OR BUSINESS INTERRUPTION)
  35:.././hal/sam3u1c/smc.c ****  * HOWEVER CAUSED AND ON ANY THEORY OF LIABILITY, WHETHER IN CONTRACT,
  36:.././hal/sam3u1c/smc.c ****  * STRICT LIABILITY, OR TORT (INCLUDING NEGLIGENCE OR OTHERWISE) ARISING IN
  37:.././hal/sam3u1c/smc.c ****  * ANY WAY OUT OF THE USE OF THIS SOFTWARE, EVEN IF ADVISED OF THE
  38:.././hal/sam3u1c/smc.c ****  * POSSIBILITY OF SUCH DAMAGE.
  39:.././hal/sam3u1c/smc.c ****  *
  40:.././hal/sam3u1c/smc.c ****  * \asf_license_stop
  41:.././hal/sam3u1c/smc.c ****  *
  42:.././hal/sam3u1c/smc.c ****  */
  43:.././hal/sam3u1c/smc.c **** 
  44:.././hal/sam3u1c/smc.c **** #include "smc.h"
  45:.././hal/sam3u1c/smc.c **** #include "board.h"
  46:.././hal/sam3u1c/smc.c **** 
  47:.././hal/sam3u1c/smc.c **** /// @cond 0
  48:.././hal/sam3u1c/smc.c **** /**INDENT-OFF**/
  49:.././hal/sam3u1c/smc.c **** #ifdef __cplusplus
  50:.././hal/sam3u1c/smc.c **** extern "C" {
  51:.././hal/sam3u1c/smc.c **** #endif
  52:.././hal/sam3u1c/smc.c **** /**INDENT-ON**/
  53:.././hal/sam3u1c/smc.c **** /// @endcond
  54:.././hal/sam3u1c/smc.c **** 
  55:.././hal/sam3u1c/smc.c **** /**
  56:.././hal/sam3u1c/smc.c ****  * \defgroup sam_drivers_smc_group Static Memory Controller (SMC)
  57:.././hal/sam3u1c/smc.c ****  *
  58:.././hal/sam3u1c/smc.c ****  * Driver for the Static Memory Controller. It provides functions for configuring
  59:.././hal/sam3u1c/smc.c ****  * and using the on-chip SMC.
  60:.././hal/sam3u1c/smc.c ****  *
  61:.././hal/sam3u1c/smc.c ****  * @{
  62:.././hal/sam3u1c/smc.c ****  */
  63:.././hal/sam3u1c/smc.c **** 
  64:.././hal/sam3u1c/smc.c **** #if ((SAM3S) || (SAM3U) || (SAM3XA) || (SAM4S) || (SAM4E) || (SAM4C) || (SAM4CM))
  65:.././hal/sam3u1c/smc.c **** #define SMC_WPKEY_VALUE (0x534D43)
  66:.././hal/sam3u1c/smc.c **** /**
  67:.././hal/sam3u1c/smc.c ****  * \brief Configure the SMC Setup timing for the specified Chip Select.
  68:.././hal/sam3u1c/smc.c ****  *
  69:.././hal/sam3u1c/smc.c ****  * \param p_smc Pointer to an SMC instance.
  70:.././hal/sam3u1c/smc.c ****  * \param ul_cs Chip Select number to be set.
  71:.././hal/sam3u1c/smc.c ****  * \param ul_setup_timing Setup timing for NWE, NCS, NRD.
  72:.././hal/sam3u1c/smc.c ****  */
  73:.././hal/sam3u1c/smc.c **** void smc_set_setup_timing(Smc *p_smc, uint32_t ul_cs,
  74:.././hal/sam3u1c/smc.c **** 		uint32_t ul_setup_timing)
  75:.././hal/sam3u1c/smc.c **** {
  38              	 .loc 1 75 1
  39              	 .cfi_startproc
  40              	 
  41              	 
  42              	 
  43 0000 80B4     	 push {r7}
  44              	.LCFI0:
  45              	 .cfi_def_cfa_offset 4
  46              	 .cfi_offset 7,-4
  47 0002 85B0     	 sub sp,sp,#20
  48              	.LCFI1:
  49              	 .cfi_def_cfa_offset 24
  50 0004 00AF     	 add r7,sp,#0
  51              	.LCFI2:
  52              	 .cfi_def_cfa_register 7
  53 0006 F860     	 str r0,[r7,#12]
  54 0008 B960     	 str r1,[r7,#8]
  55 000a 7A60     	 str r2,[r7,#4]
  76:.././hal/sam3u1c/smc.c **** 	p_smc->SMC_CS_NUMBER[ul_cs].SMC_SETUP = ul_setup_timing;
  56              	 .loc 1 76 40
  57 000c F968     	 ldr r1,[r7,#12]
  58 000e BA68     	 ldr r2,[r7,#8]
  59 0010 1346     	 mov r3,r2
  60 0012 9B00     	 lsls r3,r3,#2
  61 0014 1344     	 add r3,r3,r2
  62 0016 9B00     	 lsls r3,r3,#2
  63 0018 0B44     	 add r3,r3,r1
  64 001a 7033     	 adds r3,r3,#112
  65 001c 7A68     	 ldr r2,[r7,#4]
  66 001e 1A60     	 str r2,[r3]
  77:.././hal/sam3u1c/smc.c **** }
  67              	 .loc 1 77 1
  68 0020 00BF     	 nop
  69 0022 1437     	 adds r7,r7,#20
  70              	.LCFI3:
  71              	 .cfi_def_cfa_offset 4
  72 0024 BD46     	 mov sp,r7
  73              	.LCFI4:
  74              	 .cfi_def_cfa_register 13
  75              	 
  76 0026 80BC     	 pop {r7}
  77              	.LCFI5:
  78              	 .cfi_restore 7
  79              	 .cfi_def_cfa_offset 0
  80 0028 7047     	 bx lr
  81              	 .cfi_endproc
  82              	.LFE69:
  84              	 .section .text.smc_set_pulse_timing,"ax",%progbits
  85              	 .align 1
  86              	 .global smc_set_pulse_timing
  87              	 .syntax unified
  88              	 .thumb
  89              	 .thumb_func
  90              	 .fpu softvfp
  92              	smc_set_pulse_timing:
  93              	.LFB70:
  78:.././hal/sam3u1c/smc.c **** 
  79:.././hal/sam3u1c/smc.c **** /**
  80:.././hal/sam3u1c/smc.c ****  * \brief Configure the SMC pulse timing for the specified Chip Select.
  81:.././hal/sam3u1c/smc.c ****  *
  82:.././hal/sam3u1c/smc.c ****  * \param p_smc Pointer to an SMC instance.
  83:.././hal/sam3u1c/smc.c ****  * \param ul_cs Chip Select number to be set.
  84:.././hal/sam3u1c/smc.c ****  * \param ul_pulse_timing Pulse timing for NWE,NCS,NRD.
  85:.././hal/sam3u1c/smc.c ****  */
  86:.././hal/sam3u1c/smc.c **** void smc_set_pulse_timing(Smc *p_smc, uint32_t ul_cs,
  87:.././hal/sam3u1c/smc.c **** 		uint32_t ul_pulse_timing)
  88:.././hal/sam3u1c/smc.c **** {
  94              	 .loc 1 88 1
  95              	 .cfi_startproc
  96              	 
  97              	 
  98              	 
  99 0000 80B4     	 push {r7}
 100              	.LCFI6:
 101              	 .cfi_def_cfa_offset 4
 102              	 .cfi_offset 7,-4
 103 0002 85B0     	 sub sp,sp,#20
 104              	.LCFI7:
 105              	 .cfi_def_cfa_offset 24
 106 0004 00AF     	 add r7,sp,#0
 107              	.LCFI8:
 108              	 .cfi_def_cfa_register 7
 109 0006 F860     	 str r0,[r7,#12]
 110 0008 B960     	 str r1,[r7,#8]
 111 000a 7A60     	 str r2,[r7,#4]
  89:.././hal/sam3u1c/smc.c **** 	p_smc->SMC_CS_NUMBER[ul_cs].SMC_PULSE = ul_pulse_timing;
 112              	 .loc 1 89 40
 113 000c F968     	 ldr r1,[r7,#12]
 114 000e BA68     	 ldr r2,[r7,#8]
 115 0010 1346     	 mov r3,r2
 116 0012 9B00     	 lsls r3,r3,#2
 117 0014 1344     	 add r3,r3,r2
 118 0016 9B00     	 lsls r3,r3,#2
 119 0018 0B44     	 add r3,r3,r1
 120 001a 7433     	 adds r3,r3,#116
 121 001c 7A68     	 ldr r2,[r7,#4]
 122 001e 1A60     	 str r2,[r3]
  90:.././hal/sam3u1c/smc.c **** }
 123              	 .loc 1 90 1
 124 0020 00BF     	 nop
 125 0022 1437     	 adds r7,r7,#20
 126              	.LCFI9:
 127              	 .cfi_def_cfa_offset 4
 128 0024 BD46     	 mov sp,r7
 129              	.LCFI10:
 130              	 .cfi_def_cfa_register 13
 131              	 
 132 0026 80BC     	 pop {r7}
 133              	.LCFI11:
 134              	 .cfi_restore 7
 135              	 .cfi_def_cfa_offset 0
 136 0028 7047     	 bx lr
 137              	 .cfi_endproc
 138              	.LFE70:
 140              	 .section .text.smc_set_cycle_timing,"ax",%progbits
 141              	 .align 1
 142              	 .global smc_set_cycle_timing
 143              	 .syntax unified
 144              	 .thumb
 145              	 .thumb_func
 146              	 .fpu softvfp
 148              	smc_set_cycle_timing:
 149              	.LFB71:
  91:.././hal/sam3u1c/smc.c **** 
  92:.././hal/sam3u1c/smc.c **** /**
  93:.././hal/sam3u1c/smc.c ****  * \brief Configure the SMC cycle timing for the specified Chip Select.
  94:.././hal/sam3u1c/smc.c ****  *
  95:.././hal/sam3u1c/smc.c ****  * \param p_smc Pointer to an SMC instance.
  96:.././hal/sam3u1c/smc.c ****  * \param ul_cs Chip Select number to be set.
  97:.././hal/sam3u1c/smc.c ****  * \param ul_cycle_timing Cycle timing for NWE and NRD.
  98:.././hal/sam3u1c/smc.c ****  */
  99:.././hal/sam3u1c/smc.c **** void smc_set_cycle_timing(Smc *p_smc, uint32_t ul_cs,
 100:.././hal/sam3u1c/smc.c **** 		uint32_t ul_cycle_timing)
 101:.././hal/sam3u1c/smc.c **** {
 150              	 .loc 1 101 1
 151              	 .cfi_startproc
 152              	 
 153              	 
 154              	 
 155 0000 80B4     	 push {r7}
 156              	.LCFI12:
 157              	 .cfi_def_cfa_offset 4
 158              	 .cfi_offset 7,-4
 159 0002 85B0     	 sub sp,sp,#20
 160              	.LCFI13:
 161              	 .cfi_def_cfa_offset 24
 162 0004 00AF     	 add r7,sp,#0
 163              	.LCFI14:
 164              	 .cfi_def_cfa_register 7
 165 0006 F860     	 str r0,[r7,#12]
 166 0008 B960     	 str r1,[r7,#8]
 167 000a 7A60     	 str r2,[r7,#4]
 102:.././hal/sam3u1c/smc.c **** 	p_smc->SMC_CS_NUMBER[ul_cs].SMC_CYCLE = ul_cycle_timing;
 168              	 .loc 1 102 40
 169 000c F968     	 ldr r1,[r7,#12]
 170 000e BA68     	 ldr r2,[r7,#8]
 171 0010 1346     	 mov r3,r2
 172 0012 9B00     	 lsls r3,r3,#2
 173 0014 1344     	 add r3,r3,r2
 174 0016 9B00     	 lsls r3,r3,#2
 175 0018 0B44     	 add r3,r3,r1
 176 001a 7833     	 adds r3,r3,#120
 177 001c 7A68     	 ldr r2,[r7,#4]
 178 001e 1A60     	 str r2,[r3]
 103:.././hal/sam3u1c/smc.c **** }
 179              	 .loc 1 103 1
 180 0020 00BF     	 nop
 181 0022 1437     	 adds r7,r7,#20
 182              	.LCFI15:
 183              	 .cfi_def_cfa_offset 4
 184 0024 BD46     	 mov sp,r7
 185              	.LCFI16:
 186              	 .cfi_def_cfa_register 13
 187              	 
 188 0026 80BC     	 pop {r7}
 189              	.LCFI17:
 190              	 .cfi_restore 7
 191              	 .cfi_def_cfa_offset 0
 192 0028 7047     	 bx lr
 193              	 .cfi_endproc
 194              	.LFE71:
 196              	 .section .text.smc_set_mode,"ax",%progbits
 197              	 .align 1
 198              	 .global smc_set_mode
 199              	 .syntax unified
 200              	 .thumb
 201              	 .thumb_func
 202              	 .fpu softvfp
 204              	smc_set_mode:
 205              	.LFB72:
 104:.././hal/sam3u1c/smc.c **** 
 105:.././hal/sam3u1c/smc.c **** /**
 106:.././hal/sam3u1c/smc.c ****  * \brief Configure the SMC mode for the specified Chip Select.
 107:.././hal/sam3u1c/smc.c ****  *
 108:.././hal/sam3u1c/smc.c ****  * \param p_smc Pointer to an SMC instance.
 109:.././hal/sam3u1c/smc.c ****  * \param ul_cs Chip select number to be set.
 110:.././hal/sam3u1c/smc.c ****  * \param ul_mode SMC mode.
 111:.././hal/sam3u1c/smc.c ****  */
 112:.././hal/sam3u1c/smc.c **** void smc_set_mode(Smc *p_smc, uint32_t ul_cs, uint32_t ul_mode)
 113:.././hal/sam3u1c/smc.c **** {
 206              	 .loc 1 113 1
 207              	 .cfi_startproc
 208              	 
 209              	 
 210              	 
 211 0000 80B4     	 push {r7}
 212              	.LCFI18:
 213              	 .cfi_def_cfa_offset 4
 214              	 .cfi_offset 7,-4
 215 0002 85B0     	 sub sp,sp,#20
 216              	.LCFI19:
 217              	 .cfi_def_cfa_offset 24
 218 0004 00AF     	 add r7,sp,#0
 219              	.LCFI20:
 220              	 .cfi_def_cfa_register 7
 221 0006 F860     	 str r0,[r7,#12]
 222 0008 B960     	 str r1,[r7,#8]
 223 000a 7A60     	 str r2,[r7,#4]
 114:.././hal/sam3u1c/smc.c **** 	p_smc->SMC_CS_NUMBER[ul_cs].SMC_MODE = ul_mode;
 224              	 .loc 1 114 39
 225 000c F968     	 ldr r1,[r7,#12]
 226 000e BA68     	 ldr r2,[r7,#8]
 227 0010 1346     	 mov r3,r2
 228 0012 9B00     	 lsls r3,r3,#2
 229 0014 1344     	 add r3,r3,r2
 230 0016 9B00     	 lsls r3,r3,#2
 231 0018 0B44     	 add r3,r3,r1
 232 001a 8033     	 adds r3,r3,#128
 233 001c 7A68     	 ldr r2,[r7,#4]
 234 001e 1A60     	 str r2,[r3]
 115:.././hal/sam3u1c/smc.c **** }
 235              	 .loc 1 115 1
 236 0020 00BF     	 nop
 237 0022 1437     	 adds r7,r7,#20
 238              	.LCFI21:
 239              	 .cfi_def_cfa_offset 4
 240 0024 BD46     	 mov sp,r7
 241              	.LCFI22:
 242              	 .cfi_def_cfa_register 13
 243              	 
 244 0026 80BC     	 pop {r7}
 245              	.LCFI23:
 246              	 .cfi_restore 7
 247              	 .cfi_def_cfa_offset 0
 248 0028 7047     	 bx lr
 249              	 .cfi_endproc
 250              	.LFE72:
 252              	 .section .text.smc_get_mode,"ax",%progbits
 253              	 .align 1
 254              	 .global smc_get_mode
 255              	 .syntax unified
 256              	 .thumb
 257              	 .thumb_func
 258              	 .fpu softvfp
 260              	smc_get_mode:
 261              	.LFB73:
 116:.././hal/sam3u1c/smc.c **** 
 117:.././hal/sam3u1c/smc.c **** /**
 118:.././hal/sam3u1c/smc.c ****  * \brief Get the SMC mode of the specified Chip Select.
 119:.././hal/sam3u1c/smc.c ****  *
 120:.././hal/sam3u1c/smc.c ****  * \param p_smc Pointer to an SMC instance.
 121:.././hal/sam3u1c/smc.c ****  * \param ul_cs Chip select number to be set.
 122:.././hal/sam3u1c/smc.c ****  *
 123:.././hal/sam3u1c/smc.c ****  * \return SMC mode.
 124:.././hal/sam3u1c/smc.c ****  */
 125:.././hal/sam3u1c/smc.c **** uint32_t smc_get_mode(Smc *p_smc, uint32_t ul_cs)
 126:.././hal/sam3u1c/smc.c **** {
 262              	 .loc 1 126 1
 263              	 .cfi_startproc
 264              	 
 265              	 
 266              	 
 267 0000 80B4     	 push {r7}
 268              	.LCFI24:
 269              	 .cfi_def_cfa_offset 4
 270              	 .cfi_offset 7,-4
 271 0002 83B0     	 sub sp,sp,#12
 272              	.LCFI25:
 273              	 .cfi_def_cfa_offset 16
 274 0004 00AF     	 add r7,sp,#0
 275              	.LCFI26:
 276              	 .cfi_def_cfa_register 7
 277 0006 7860     	 str r0,[r7,#4]
 278 0008 3960     	 str r1,[r7]
 127:.././hal/sam3u1c/smc.c **** 	return p_smc->SMC_CS_NUMBER[ul_cs].SMC_MODE;
 279              	 .loc 1 127 36
 280 000a 7968     	 ldr r1,[r7,#4]
 281 000c 3A68     	 ldr r2,[r7]
 282 000e 1346     	 mov r3,r2
 283 0010 9B00     	 lsls r3,r3,#2
 284 0012 1344     	 add r3,r3,r2
 285 0014 9B00     	 lsls r3,r3,#2
 286 0016 0B44     	 add r3,r3,r1
 287 0018 8033     	 adds r3,r3,#128
 288 001a 1B68     	 ldr r3,[r3]
 128:.././hal/sam3u1c/smc.c **** }
 289              	 .loc 1 128 1
 290 001c 1846     	 mov r0,r3
 291 001e 0C37     	 adds r7,r7,#12
 292              	.LCFI27:
 293              	 .cfi_def_cfa_offset 4
 294 0020 BD46     	 mov sp,r7
 295              	.LCFI28:
 296              	 .cfi_def_cfa_register 13
 297              	 
 298 0022 80BC     	 pop {r7}
 299              	.LCFI29:
 300              	 .cfi_restore 7
 301              	 .cfi_def_cfa_offset 0
 302 0024 7047     	 bx lr
 303              	 .cfi_endproc
 304              	.LFE73:
 306              	 .section .text.smc_enable_writeprotect,"ax",%progbits
 307              	 .align 1
 308              	 .global smc_enable_writeprotect
 309              	 .syntax unified
 310              	 .thumb
 311              	 .thumb_func
 312              	 .fpu softvfp
 314              	smc_enable_writeprotect:
 315              	.LFB74:
 129:.././hal/sam3u1c/smc.c **** 
 130:.././hal/sam3u1c/smc.c **** /**
 131:.././hal/sam3u1c/smc.c ****  * \brief Set write protection of SMC registers.
 132:.././hal/sam3u1c/smc.c ****  *
 133:.././hal/sam3u1c/smc.c ****  * \param p_smc Pointer to an SMC instance.
 134:.././hal/sam3u1c/smc.c ****  * \param ul_enable 1 to enable, 0 to disable.
 135:.././hal/sam3u1c/smc.c ****  */
 136:.././hal/sam3u1c/smc.c **** void smc_enable_writeprotect(Smc *p_smc, uint32_t ul_enable)
 137:.././hal/sam3u1c/smc.c **** {
 316              	 .loc 1 137 1
 317              	 .cfi_startproc
 318              	 
 319              	 
 320              	 
 321 0000 80B4     	 push {r7}
 322              	.LCFI30:
 323              	 .cfi_def_cfa_offset 4
 324              	 .cfi_offset 7,-4
 325 0002 83B0     	 sub sp,sp,#12
 326              	.LCFI31:
 327              	 .cfi_def_cfa_offset 16
 328 0004 00AF     	 add r7,sp,#0
 329              	.LCFI32:
 330              	 .cfi_def_cfa_register 7
 331 0006 7860     	 str r0,[r7,#4]
 332 0008 3960     	 str r1,[r7]
 138:.././hal/sam3u1c/smc.c **** #if (SAM3S || SAM4S || SAM4E || SAM4C || SAM4CM)
 139:.././hal/sam3u1c/smc.c **** 	if (ul_enable) {
 140:.././hal/sam3u1c/smc.c **** 		p_smc->SMC_WPMR =
 141:.././hal/sam3u1c/smc.c **** 				SMC_WPMR_WPKEY(SMC_WPKEY_VALUE) | SMC_WPMR_WPEN;
 142:.././hal/sam3u1c/smc.c **** 	} else {
 143:.././hal/sam3u1c/smc.c ****  		p_smc->SMC_WPMR = SMC_WPMR_WPKEY(SMC_WPKEY_VALUE);
 144:.././hal/sam3u1c/smc.c **** 	}
 145:.././hal/sam3u1c/smc.c **** #else
 146:.././hal/sam3u1c/smc.c **** 	if (ul_enable) {
 333              	 .loc 1 146 5
 334 000a 3B68     	 ldr r3,[r7]
 335 000c 002B     	 cmp r3,#0
 336 000e 04D0     	 beq .L8
 147:.././hal/sam3u1c/smc.c **** 		p_smc->SMC_WPCR =
 337              	 .loc 1 147 19
 338 0010 7B68     	 ldr r3,[r7,#4]
 339 0012 064A     	 ldr r2,.L11
 340 0014 C3F8E421 	 str r2,[r3,#484]
 148:.././hal/sam3u1c/smc.c **** 				SMC_WPCR_WP_KEY(SMC_WPKEY_VALUE) |
 149:.././hal/sam3u1c/smc.c **** 				SMC_WPCR_WP_EN;
 150:.././hal/sam3u1c/smc.c **** 	} else {
 151:.././hal/sam3u1c/smc.c **** 		p_smc->SMC_WPCR = SMC_WPCR_WP_KEY(SMC_WPKEY_VALUE);
 152:.././hal/sam3u1c/smc.c **** 	}
 153:.././hal/sam3u1c/smc.c **** #endif
 154:.././hal/sam3u1c/smc.c **** }
 341              	 .loc 1 154 1
 342 0018 03E0     	 b .L10
 343              	.L8:
 151:.././hal/sam3u1c/smc.c **** 	}
 344              	 .loc 1 151 19
 345 001a 7B68     	 ldr r3,[r7,#4]
 346 001c 044A     	 ldr r2,.L11+4
 347 001e C3F8E421 	 str r2,[r3,#484]
 348              	.L10:
 349              	 .loc 1 154 1
 350 0022 00BF     	 nop
 351 0024 0C37     	 adds r7,r7,#12
 352              	.LCFI33:
 353              	 .cfi_def_cfa_offset 4
 354 0026 BD46     	 mov sp,r7
 355              	.LCFI34:
 356              	 .cfi_def_cfa_register 13
 357              	 
 358 0028 80BC     	 pop {r7}
 359              	.LCFI35:
 360              	 .cfi_restore 7
 361              	 .cfi_def_cfa_offset 0
 362 002a 7047     	 bx lr
 363              	.L12:
 364              	 .align 2
 365              	.L11:
 366 002c 01434D53 	 .word 1397572353
 367 0030 00434D53 	 .word 1397572352
 368              	 .cfi_endproc
 369              	.LFE74:
 371              	 .section .text.smc_get_writeprotect_status,"ax",%progbits
 372              	 .align 1
 373              	 .global smc_get_writeprotect_status
 374              	 .syntax unified
 375              	 .thumb
 376              	 .thumb_func
 377              	 .fpu softvfp
 379              	smc_get_writeprotect_status:
 380              	.LFB75:
 155:.././hal/sam3u1c/smc.c **** 
 156:.././hal/sam3u1c/smc.c **** /**
 157:.././hal/sam3u1c/smc.c ****  * \brief Get the status of SMC write protection register.
 158:.././hal/sam3u1c/smc.c ****  *
 159:.././hal/sam3u1c/smc.c ****  * \param p_smc Pointer to an SMC instance.
 160:.././hal/sam3u1c/smc.c ****  *
 161:.././hal/sam3u1c/smc.c ****  * \return Write protect status.
 162:.././hal/sam3u1c/smc.c ****  */
 163:.././hal/sam3u1c/smc.c **** uint32_t smc_get_writeprotect_status(Smc *p_smc)
 164:.././hal/sam3u1c/smc.c **** {
 381              	 .loc 1 164 1
 382              	 .cfi_startproc
 383              	 
 384              	 
 385              	 
 386 0000 80B4     	 push {r7}
 387              	.LCFI36:
 388              	 .cfi_def_cfa_offset 4
 389              	 .cfi_offset 7,-4
 390 0002 83B0     	 sub sp,sp,#12
 391              	.LCFI37:
 392              	 .cfi_def_cfa_offset 16
 393 0004 00AF     	 add r7,sp,#0
 394              	.LCFI38:
 395              	 .cfi_def_cfa_register 7
 396 0006 7860     	 str r0,[r7,#4]
 165:.././hal/sam3u1c/smc.c **** 	return p_smc->SMC_WPSR;
 397              	 .loc 1 165 14
 398 0008 7B68     	 ldr r3,[r7,#4]
 399 000a D3F8E831 	 ldr r3,[r3,#488]
 166:.././hal/sam3u1c/smc.c **** }
 400              	 .loc 1 166 1
 401 000e 1846     	 mov r0,r3
 402 0010 0C37     	 adds r7,r7,#12
 403              	.LCFI39:
 404              	 .cfi_def_cfa_offset 4
 405 0012 BD46     	 mov sp,r7
 406              	.LCFI40:
 407              	 .cfi_def_cfa_register 13
 408              	 
 409 0014 80BC     	 pop {r7}
 410              	.LCFI41:
 411              	 .cfi_restore 7
 412              	 .cfi_def_cfa_offset 0
 413 0016 7047     	 bx lr
 414              	 .cfi_endproc
 415              	.LFE75:
 417              	 .section .text.smc_set_nand_timing,"ax",%progbits
 418              	 .align 1
 419              	 .global smc_set_nand_timing
 420              	 .syntax unified
 421              	 .thumb
 422              	 .thumb_func
 423              	 .fpu softvfp
 425              	smc_set_nand_timing:
 426              	.LFB76:
 167:.././hal/sam3u1c/smc.c **** #endif
 168:.././hal/sam3u1c/smc.c **** 
 169:.././hal/sam3u1c/smc.c **** #if ((SAM3U) || (SAM3XA))
 170:.././hal/sam3u1c/smc.c **** /**
 171:.././hal/sam3u1c/smc.c ****  * \brief Configure the SMC nand timing for the specified Chip Select.
 172:.././hal/sam3u1c/smc.c ****  * \param p_smc Pointer to an SMC instance.
 173:.././hal/sam3u1c/smc.c ****  * \param ul_cs Chip Select number to be set.
 174:.././hal/sam3u1c/smc.c ****  * \param ul_nand_timing nand timing for related signal.
 175:.././hal/sam3u1c/smc.c ****  */
 176:.././hal/sam3u1c/smc.c **** void smc_set_nand_timing(Smc *p_smc, uint32_t ul_cs,
 177:.././hal/sam3u1c/smc.c **** 		uint32_t ul_nand_timing)
 178:.././hal/sam3u1c/smc.c **** {
 427              	 .loc 1 178 1
 428              	 .cfi_startproc
 429              	 
 430              	 
 431              	 
 432 0000 80B4     	 push {r7}
 433              	.LCFI42:
 434              	 .cfi_def_cfa_offset 4
 435              	 .cfi_offset 7,-4
 436 0002 85B0     	 sub sp,sp,#20
 437              	.LCFI43:
 438              	 .cfi_def_cfa_offset 24
 439 0004 00AF     	 add r7,sp,#0
 440              	.LCFI44:
 441              	 .cfi_def_cfa_register 7
 442 0006 F860     	 str r0,[r7,#12]
 443 0008 B960     	 str r1,[r7,#8]
 444 000a 7A60     	 str r2,[r7,#4]
 179:.././hal/sam3u1c/smc.c **** 	p_smc->SMC_CS_NUMBER[ul_cs].SMC_TIMINGS= ul_nand_timing;
 445              	 .loc 1 179 41
 446 000c F968     	 ldr r1,[r7,#12]
 447 000e BA68     	 ldr r2,[r7,#8]
 448 0010 1346     	 mov r3,r2
 449 0012 9B00     	 lsls r3,r3,#2
 450 0014 1344     	 add r3,r3,r2
 451 0016 9B00     	 lsls r3,r3,#2
 452 0018 0B44     	 add r3,r3,r1
 453 001a 7C33     	 adds r3,r3,#124
 454 001c 7A68     	 ldr r2,[r7,#4]
 455 001e 1A60     	 str r2,[r3]
 180:.././hal/sam3u1c/smc.c **** }
 456              	 .loc 1 180 1
 457 0020 00BF     	 nop
 458 0022 1437     	 adds r7,r7,#20
 459              	.LCFI45:
 460              	 .cfi_def_cfa_offset 4
 461 0024 BD46     	 mov sp,r7
 462              	.LCFI46:
 463              	 .cfi_def_cfa_register 13
 464              	 
 465 0026 80BC     	 pop {r7}
 466              	.LCFI47:
 467              	 .cfi_restore 7
 468              	 .cfi_def_cfa_offset 0
 469 0028 7047     	 bx lr
 470              	 .cfi_endproc
 471              	.LFE76:
 473              	 .section .text.smc_nfc_init,"ax",%progbits
 474              	 .align 1
 475              	 .global smc_nfc_init
 476              	 .syntax unified
 477              	 .thumb
 478              	 .thumb_func
 479              	 .fpu softvfp
 481              	smc_nfc_init:
 482              	.LFB77:
 181:.././hal/sam3u1c/smc.c **** 
 182:.././hal/sam3u1c/smc.c **** /**
 183:.././hal/sam3u1c/smc.c ****  * \brief Initialize NFC configuration.
 184:.././hal/sam3u1c/smc.c ****  * \param p_smc Pointer to an SMC instance.
 185:.././hal/sam3u1c/smc.c ****  * \param ul_config SMC NFC Configuration.
 186:.././hal/sam3u1c/smc.c ****  */
 187:.././hal/sam3u1c/smc.c **** void smc_nfc_init(Smc *p_smc, uint32_t ul_config)
 188:.././hal/sam3u1c/smc.c **** {
 483              	 .loc 1 188 1
 484              	 .cfi_startproc
 485              	 
 486              	 
 487              	 
 488 0000 80B4     	 push {r7}
 489              	.LCFI48:
 490              	 .cfi_def_cfa_offset 4
 491              	 .cfi_offset 7,-4
 492 0002 83B0     	 sub sp,sp,#12
 493              	.LCFI49:
 494              	 .cfi_def_cfa_offset 16
 495 0004 00AF     	 add r7,sp,#0
 496              	.LCFI50:
 497              	 .cfi_def_cfa_register 7
 498 0006 7860     	 str r0,[r7,#4]
 499 0008 3960     	 str r1,[r7]
 189:.././hal/sam3u1c/smc.c **** 	p_smc->SMC_CFG = ul_config;
 500              	 .loc 1 189 17
 501 000a 7B68     	 ldr r3,[r7,#4]
 502 000c 3A68     	 ldr r2,[r7]
 503 000e 1A60     	 str r2,[r3]
 190:.././hal/sam3u1c/smc.c **** }
 504              	 .loc 1 190 1
 505 0010 00BF     	 nop
 506 0012 0C37     	 adds r7,r7,#12
 507              	.LCFI51:
 508              	 .cfi_def_cfa_offset 4
 509 0014 BD46     	 mov sp,r7
 510              	.LCFI52:
 511              	 .cfi_def_cfa_register 13
 512              	 
 513 0016 80BC     	 pop {r7}
 514              	.LCFI53:
 515              	 .cfi_restore 7
 516              	 .cfi_def_cfa_offset 0
 517 0018 7047     	 bx lr
 518              	 .cfi_endproc
 519              	.LFE77:
 521              	 .section .text.smc_nfc_set_page_size,"ax",%progbits
 522              	 .align 1
 523              	 .global smc_nfc_set_page_size
 524              	 .syntax unified
 525              	 .thumb
 526              	 .thumb_func
 527              	 .fpu softvfp
 529              	smc_nfc_set_page_size:
 530              	.LFB78:
 191:.././hal/sam3u1c/smc.c **** 
 192:.././hal/sam3u1c/smc.c **** /**
 193:.././hal/sam3u1c/smc.c ****  * \brief Set NFC page size.
 194:.././hal/sam3u1c/smc.c ****  *
 195:.././hal/sam3u1c/smc.c ****  * \param p_smc Pointer to an SMC instance.
 196:.././hal/sam3u1c/smc.c ****  * \param ul_page_size Use pattern defined in the device header file.
 197:.././hal/sam3u1c/smc.c ****  */
 198:.././hal/sam3u1c/smc.c **** void smc_nfc_set_page_size(Smc *p_smc, uint32_t ul_page_size)
 199:.././hal/sam3u1c/smc.c **** {
 531              	 .loc 1 199 1
 532              	 .cfi_startproc
 533              	 
 534              	 
 535              	 
 536 0000 80B4     	 push {r7}
 537              	.LCFI54:
 538              	 .cfi_def_cfa_offset 4
 539              	 .cfi_offset 7,-4
 540 0002 83B0     	 sub sp,sp,#12
 541              	.LCFI55:
 542              	 .cfi_def_cfa_offset 16
 543 0004 00AF     	 add r7,sp,#0
 544              	.LCFI56:
 545              	 .cfi_def_cfa_register 7
 546 0006 7860     	 str r0,[r7,#4]
 547 0008 3960     	 str r1,[r7]
 200:.././hal/sam3u1c/smc.c **** 	p_smc->SMC_CFG &= (~SMC_CFG_PAGESIZE_Msk);
 548              	 .loc 1 200 17
 549 000a 7B68     	 ldr r3,[r7,#4]
 550 000c 1B68     	 ldr r3,[r3]
 551 000e 23F00302 	 bic r2,r3,#3
 552 0012 7B68     	 ldr r3,[r7,#4]
 553 0014 1A60     	 str r2,[r3]
 201:.././hal/sam3u1c/smc.c **** 	p_smc->SMC_CFG |= ul_page_size;
 554              	 .loc 1 201 17
 555 0016 7B68     	 ldr r3,[r7,#4]
 556 0018 1A68     	 ldr r2,[r3]
 557 001a 3B68     	 ldr r3,[r7]
 558 001c 1A43     	 orrs r2,r2,r3
 559 001e 7B68     	 ldr r3,[r7,#4]
 560 0020 1A60     	 str r2,[r3]
 202:.././hal/sam3u1c/smc.c **** }
 561              	 .loc 1 202 1
 562 0022 00BF     	 nop
 563 0024 0C37     	 adds r7,r7,#12
 564              	.LCFI57:
 565              	 .cfi_def_cfa_offset 4
 566 0026 BD46     	 mov sp,r7
 567              	.LCFI58:
 568              	 .cfi_def_cfa_register 13
 569              	 
 570 0028 80BC     	 pop {r7}
 571              	.LCFI59:
 572              	 .cfi_restore 7
 573              	 .cfi_def_cfa_offset 0
 574 002a 7047     	 bx lr
 575              	 .cfi_endproc
 576              	.LFE78:
 578              	 .section .text.smc_nfc_enable_spare_read,"ax",%progbits
 579              	 .align 1
 580              	 .global smc_nfc_enable_spare_read
 581              	 .syntax unified
 582              	 .thumb
 583              	 .thumb_func
 584              	 .fpu softvfp
 586              	smc_nfc_enable_spare_read:
 587              	.LFB79:
 203:.././hal/sam3u1c/smc.c **** 
 204:.././hal/sam3u1c/smc.c **** /**
 205:.././hal/sam3u1c/smc.c ****  * \brief Enable NFC controller to read both main and spare area in read mode.
 206:.././hal/sam3u1c/smc.c ****  *
 207:.././hal/sam3u1c/smc.c ****  * \param p_smc Pointer to an SMC instance.
 208:.././hal/sam3u1c/smc.c ****  */
 209:.././hal/sam3u1c/smc.c **** void smc_nfc_enable_spare_read(Smc *p_smc)
 210:.././hal/sam3u1c/smc.c **** {
 588              	 .loc 1 210 1
 589              	 .cfi_startproc
 590              	 
 591              	 
 592              	 
 593 0000 80B4     	 push {r7}
 594              	.LCFI60:
 595              	 .cfi_def_cfa_offset 4
 596              	 .cfi_offset 7,-4
 597 0002 83B0     	 sub sp,sp,#12
 598              	.LCFI61:
 599              	 .cfi_def_cfa_offset 16
 600 0004 00AF     	 add r7,sp,#0
 601              	.LCFI62:
 602              	 .cfi_def_cfa_register 7
 603 0006 7860     	 str r0,[r7,#4]
 211:.././hal/sam3u1c/smc.c **** 	p_smc->SMC_CFG |= SMC_CFG_RSPARE;
 604              	 .loc 1 211 17
 605 0008 7B68     	 ldr r3,[r7,#4]
 606 000a 1B68     	 ldr r3,[r3]
 607 000c 43F40072 	 orr r2,r3,#512
 608 0010 7B68     	 ldr r3,[r7,#4]
 609 0012 1A60     	 str r2,[r3]
 212:.././hal/sam3u1c/smc.c **** }
 610              	 .loc 1 212 1
 611 0014 00BF     	 nop
 612 0016 0C37     	 adds r7,r7,#12
 613              	.LCFI63:
 614              	 .cfi_def_cfa_offset 4
 615 0018 BD46     	 mov sp,r7
 616              	.LCFI64:
 617              	 .cfi_def_cfa_register 13
 618              	 
 619 001a 80BC     	 pop {r7}
 620              	.LCFI65:
 621              	 .cfi_restore 7
 622              	 .cfi_def_cfa_offset 0
 623 001c 7047     	 bx lr
 624              	 .cfi_endproc
 625              	.LFE79:
 627              	 .section .text.smc_nfc_disable_spare_read,"ax",%progbits
 628              	 .align 1
 629              	 .global smc_nfc_disable_spare_read
 630              	 .syntax unified
 631              	 .thumb
 632              	 .thumb_func
 633              	 .fpu softvfp
 635              	smc_nfc_disable_spare_read:
 636              	.LFB80:
 213:.././hal/sam3u1c/smc.c **** 
 214:.././hal/sam3u1c/smc.c **** /**
 215:.././hal/sam3u1c/smc.c ****  * \brief Prevent NFC controller from reading the spare area in read mode.
 216:.././hal/sam3u1c/smc.c ****  *
 217:.././hal/sam3u1c/smc.c ****  * \param p_smc Pointer to an SMC instance.
 218:.././hal/sam3u1c/smc.c ****  */
 219:.././hal/sam3u1c/smc.c **** void smc_nfc_disable_spare_read(Smc *p_smc)
 220:.././hal/sam3u1c/smc.c **** {
 637              	 .loc 1 220 1
 638              	 .cfi_startproc
 639              	 
 640              	 
 641              	 
 642 0000 80B4     	 push {r7}
 643              	.LCFI66:
 644              	 .cfi_def_cfa_offset 4
 645              	 .cfi_offset 7,-4
 646 0002 83B0     	 sub sp,sp,#12
 647              	.LCFI67:
 648              	 .cfi_def_cfa_offset 16
 649 0004 00AF     	 add r7,sp,#0
 650              	.LCFI68:
 651              	 .cfi_def_cfa_register 7
 652 0006 7860     	 str r0,[r7,#4]
 221:.././hal/sam3u1c/smc.c **** 	p_smc->SMC_CFG &= (~SMC_CFG_RSPARE);
 653              	 .loc 1 221 17
 654 0008 7B68     	 ldr r3,[r7,#4]
 655 000a 1B68     	 ldr r3,[r3]
 656 000c 23F40072 	 bic r2,r3,#512
 657 0010 7B68     	 ldr r3,[r7,#4]
 658 0012 1A60     	 str r2,[r3]
 222:.././hal/sam3u1c/smc.c **** }
 659              	 .loc 1 222 1
 660 0014 00BF     	 nop
 661 0016 0C37     	 adds r7,r7,#12
 662              	.LCFI69:
 663              	 .cfi_def_cfa_offset 4
 664 0018 BD46     	 mov sp,r7
 665              	.LCFI70:
 666              	 .cfi_def_cfa_register 13
 667              	 
 668 001a 80BC     	 pop {r7}
 669              	.LCFI71:
 670              	 .cfi_restore 7
 671              	 .cfi_def_cfa_offset 0
 672 001c 7047     	 bx lr
 673              	 .cfi_endproc
 674              	.LFE80:
 676              	 .section .text.smc_nfc_enable_spare_write,"ax",%progbits
 677              	 .align 1
 678              	 .global smc_nfc_enable_spare_write
 679              	 .syntax unified
 680              	 .thumb
 681              	 .thumb_func
 682              	 .fpu softvfp
 684              	smc_nfc_enable_spare_write:
 685              	.LFB81:
 223:.././hal/sam3u1c/smc.c **** 
 224:.././hal/sam3u1c/smc.c **** /**
 225:.././hal/sam3u1c/smc.c ****  * \brief Enable NFC controller to write both main and spare area in write mode.
 226:.././hal/sam3u1c/smc.c ****  *
 227:.././hal/sam3u1c/smc.c ****  * \param p_smc Pointer to an SMC instance.
 228:.././hal/sam3u1c/smc.c ****  */
 229:.././hal/sam3u1c/smc.c **** void smc_nfc_enable_spare_write(Smc *p_smc)
 230:.././hal/sam3u1c/smc.c **** {
 686              	 .loc 1 230 1
 687              	 .cfi_startproc
 688              	 
 689              	 
 690              	 
 691 0000 80B4     	 push {r7}
 692              	.LCFI72:
 693              	 .cfi_def_cfa_offset 4
 694              	 .cfi_offset 7,-4
 695 0002 83B0     	 sub sp,sp,#12
 696              	.LCFI73:
 697              	 .cfi_def_cfa_offset 16
 698 0004 00AF     	 add r7,sp,#0
 699              	.LCFI74:
 700              	 .cfi_def_cfa_register 7
 701 0006 7860     	 str r0,[r7,#4]
 231:.././hal/sam3u1c/smc.c **** 	p_smc->SMC_CFG |= SMC_CFG_WSPARE;
 702              	 .loc 1 231 17
 703 0008 7B68     	 ldr r3,[r7,#4]
 704 000a 1B68     	 ldr r3,[r3]
 705 000c 43F48072 	 orr r2,r3,#256
 706 0010 7B68     	 ldr r3,[r7,#4]
 707 0012 1A60     	 str r2,[r3]
 232:.././hal/sam3u1c/smc.c **** }
 708              	 .loc 1 232 1
 709 0014 00BF     	 nop
 710 0016 0C37     	 adds r7,r7,#12
 711              	.LCFI75:
 712              	 .cfi_def_cfa_offset 4
 713 0018 BD46     	 mov sp,r7
 714              	.LCFI76:
 715              	 .cfi_def_cfa_register 13
 716              	 
 717 001a 80BC     	 pop {r7}
 718              	.LCFI77:
 719              	 .cfi_restore 7
 720              	 .cfi_def_cfa_offset 0
 721 001c 7047     	 bx lr
 722              	 .cfi_endproc
 723              	.LFE81:
 725              	 .section .text.smc_nfc_disable_spare_write,"ax",%progbits
 726              	 .align 1
 727              	 .global smc_nfc_disable_spare_write
 728              	 .syntax unified
 729              	 .thumb
 730              	 .thumb_func
 731              	 .fpu softvfp
 733              	smc_nfc_disable_spare_write:
 734              	.LFB82:
 233:.././hal/sam3u1c/smc.c **** 
 234:.././hal/sam3u1c/smc.c **** /**
 235:.././hal/sam3u1c/smc.c ****  * \brief Prevent NFC controller from writing the spare area in read mode.
 236:.././hal/sam3u1c/smc.c ****  *
 237:.././hal/sam3u1c/smc.c ****  * \param p_smc Pointer to an SMC instance.
 238:.././hal/sam3u1c/smc.c ****  */
 239:.././hal/sam3u1c/smc.c **** void smc_nfc_disable_spare_write(Smc *p_smc)
 240:.././hal/sam3u1c/smc.c **** {
 735              	 .loc 1 240 1
 736              	 .cfi_startproc
 737              	 
 738              	 
 739              	 
 740 0000 80B4     	 push {r7}
 741              	.LCFI78:
 742              	 .cfi_def_cfa_offset 4
 743              	 .cfi_offset 7,-4
 744 0002 83B0     	 sub sp,sp,#12
 745              	.LCFI79:
 746              	 .cfi_def_cfa_offset 16
 747 0004 00AF     	 add r7,sp,#0
 748              	.LCFI80:
 749              	 .cfi_def_cfa_register 7
 750 0006 7860     	 str r0,[r7,#4]
 241:.././hal/sam3u1c/smc.c **** 	p_smc->SMC_CFG &= (~SMC_CFG_WSPARE);
 751              	 .loc 1 241 17
 752 0008 7B68     	 ldr r3,[r7,#4]
 753 000a 1B68     	 ldr r3,[r3]
 754 000c 23F48072 	 bic r2,r3,#256
 755 0010 7B68     	 ldr r3,[r7,#4]
 756 0012 1A60     	 str r2,[r3]
 242:.././hal/sam3u1c/smc.c **** }
 757              	 .loc 1 242 1
 758 0014 00BF     	 nop
 759 0016 0C37     	 adds r7,r7,#12
 760              	.LCFI81:
 761              	 .cfi_def_cfa_offset 4
 762 0018 BD46     	 mov sp,r7
 763              	.LCFI82:
 764              	 .cfi_def_cfa_register 13
 765              	 
 766 001a 80BC     	 pop {r7}
 767              	.LCFI83:
 768              	 .cfi_restore 7
 769              	 .cfi_def_cfa_offset 0
 770 001c 7047     	 bx lr
 771              	 .cfi_endproc
 772              	.LFE82:
 774              	 .section .text.smc_nfc_enable,"ax",%progbits
 775              	 .align 1
 776              	 .global smc_nfc_enable
 777              	 .syntax unified
 778              	 .thumb
 779              	 .thumb_func
 780              	 .fpu softvfp
 782              	smc_nfc_enable:
 783              	.LFB83:
 243:.././hal/sam3u1c/smc.c **** 
 244:.././hal/sam3u1c/smc.c **** /**
 245:.././hal/sam3u1c/smc.c ****  * \brief Enable NFC controller.
 246:.././hal/sam3u1c/smc.c ****  *
 247:.././hal/sam3u1c/smc.c ****  * \param p_smc Pointer to an SMC instance.
 248:.././hal/sam3u1c/smc.c ****  */
 249:.././hal/sam3u1c/smc.c **** void smc_nfc_enable(Smc *p_smc)
 250:.././hal/sam3u1c/smc.c **** {
 784              	 .loc 1 250 1
 785              	 .cfi_startproc
 786              	 
 787              	 
 788              	 
 789 0000 80B4     	 push {r7}
 790              	.LCFI84:
 791              	 .cfi_def_cfa_offset 4
 792              	 .cfi_offset 7,-4
 793 0002 83B0     	 sub sp,sp,#12
 794              	.LCFI85:
 795              	 .cfi_def_cfa_offset 16
 796 0004 00AF     	 add r7,sp,#0
 797              	.LCFI86:
 798              	 .cfi_def_cfa_register 7
 799 0006 7860     	 str r0,[r7,#4]
 251:.././hal/sam3u1c/smc.c **** 	p_smc->SMC_CTRL = SMC_CTRL_NFCEN;
 800              	 .loc 1 251 18
 801 0008 7B68     	 ldr r3,[r7,#4]
 802 000a 0122     	 movs r2,#1
 803 000c 5A60     	 str r2,[r3,#4]
 252:.././hal/sam3u1c/smc.c **** }
 804              	 .loc 1 252 1
 805 000e 00BF     	 nop
 806 0010 0C37     	 adds r7,r7,#12
 807              	.LCFI87:
 808              	 .cfi_def_cfa_offset 4
 809 0012 BD46     	 mov sp,r7
 810              	.LCFI88:
 811              	 .cfi_def_cfa_register 13
 812              	 
 813 0014 80BC     	 pop {r7}
 814              	.LCFI89:
 815              	 .cfi_restore 7
 816              	 .cfi_def_cfa_offset 0
 817 0016 7047     	 bx lr
 818              	 .cfi_endproc
 819              	.LFE83:
 821              	 .section .text.smc_nfc_disable,"ax",%progbits
 822              	 .align 1
 823              	 .global smc_nfc_disable
 824              	 .syntax unified
 825              	 .thumb
 826              	 .thumb_func
 827              	 .fpu softvfp
 829              	smc_nfc_disable:
 830              	.LFB84:
 253:.././hal/sam3u1c/smc.c **** 
 254:.././hal/sam3u1c/smc.c **** /**
 255:.././hal/sam3u1c/smc.c ****  * \brief Disable NFC controller.
 256:.././hal/sam3u1c/smc.c ****  *
 257:.././hal/sam3u1c/smc.c ****  * \param p_smc Pointer to an SMC instance.
 258:.././hal/sam3u1c/smc.c ****  */
 259:.././hal/sam3u1c/smc.c **** void smc_nfc_disable(Smc *p_smc)
 260:.././hal/sam3u1c/smc.c **** {
 831              	 .loc 1 260 1
 832              	 .cfi_startproc
 833              	 
 834              	 
 835              	 
 836 0000 80B4     	 push {r7}
 837              	.LCFI90:
 838              	 .cfi_def_cfa_offset 4
 839              	 .cfi_offset 7,-4
 840 0002 83B0     	 sub sp,sp,#12
 841              	.LCFI91:
 842              	 .cfi_def_cfa_offset 16
 843 0004 00AF     	 add r7,sp,#0
 844              	.LCFI92:
 845              	 .cfi_def_cfa_register 7
 846 0006 7860     	 str r0,[r7,#4]
 261:.././hal/sam3u1c/smc.c **** 	p_smc->SMC_CTRL = SMC_CTRL_NFCDIS;
 847              	 .loc 1 261 18
 848 0008 7B68     	 ldr r3,[r7,#4]
 849 000a 0222     	 movs r2,#2
 850 000c 5A60     	 str r2,[r3,#4]
 262:.././hal/sam3u1c/smc.c **** }
 851              	 .loc 1 262 1
 852 000e 00BF     	 nop
 853 0010 0C37     	 adds r7,r7,#12
 854              	.LCFI93:
 855              	 .cfi_def_cfa_offset 4
 856 0012 BD46     	 mov sp,r7
 857              	.LCFI94:
 858              	 .cfi_def_cfa_register 13
 859              	 
 860 0014 80BC     	 pop {r7}
 861              	.LCFI95:
 862              	 .cfi_restore 7
 863              	 .cfi_def_cfa_offset 0
 864 0016 7047     	 bx lr
 865              	 .cfi_endproc
 866              	.LFE84:
 868              	 .section .text.smc_nfc_get_status,"ax",%progbits
 869              	 .align 1
 870              	 .global smc_nfc_get_status
 871              	 .syntax unified
 872              	 .thumb
 873              	 .thumb_func
 874              	 .fpu softvfp
 876              	smc_nfc_get_status:
 877              	.LFB85:
 263:.././hal/sam3u1c/smc.c **** 
 264:.././hal/sam3u1c/smc.c **** /**
 265:.././hal/sam3u1c/smc.c ****  * \brief Get the NFC Status.
 266:.././hal/sam3u1c/smc.c ****  *
 267:.././hal/sam3u1c/smc.c ****  * \param p_smc Pointer to an SMC instance.
 268:.././hal/sam3u1c/smc.c ****  *
 269:.././hal/sam3u1c/smc.c ****  * \return Returns the current status register of SMC NFC Status Register.
 270:.././hal/sam3u1c/smc.c ****  * This resets the internal value of the status register, so further
 271:.././hal/sam3u1c/smc.c ****  * read may yield different values.
 272:.././hal/sam3u1c/smc.c ****  */
 273:.././hal/sam3u1c/smc.c **** uint32_t smc_nfc_get_status(Smc *p_smc)
 274:.././hal/sam3u1c/smc.c **** {
 878              	 .loc 1 274 1
 879              	 .cfi_startproc
 880              	 
 881              	 
 882              	 
 883 0000 80B4     	 push {r7}
 884              	.LCFI96:
 885              	 .cfi_def_cfa_offset 4
 886              	 .cfi_offset 7,-4
 887 0002 83B0     	 sub sp,sp,#12
 888              	.LCFI97:
 889              	 .cfi_def_cfa_offset 16
 890 0004 00AF     	 add r7,sp,#0
 891              	.LCFI98:
 892              	 .cfi_def_cfa_register 7
 893 0006 7860     	 str r0,[r7,#4]
 275:.././hal/sam3u1c/smc.c **** 	return p_smc->SMC_SR;
 894              	 .loc 1 275 14
 895 0008 7B68     	 ldr r3,[r7,#4]
 896 000a 9B68     	 ldr r3,[r3,#8]
 276:.././hal/sam3u1c/smc.c **** }
 897              	 .loc 1 276 1
 898 000c 1846     	 mov r0,r3
 899 000e 0C37     	 adds r7,r7,#12
 900              	.LCFI99:
 901              	 .cfi_def_cfa_offset 4
 902 0010 BD46     	 mov sp,r7
 903              	.LCFI100:
 904              	 .cfi_def_cfa_register 13
 905              	 
 906 0012 80BC     	 pop {r7}
 907              	.LCFI101:
 908              	 .cfi_restore 7
 909              	 .cfi_def_cfa_offset 0
 910 0014 7047     	 bx lr
 911              	 .cfi_endproc
 912              	.LFE85:
 914              	 .section .text.smc_nfc_enable_interrupt,"ax",%progbits
 915              	 .align 1
 916              	 .global smc_nfc_enable_interrupt
 917              	 .syntax unified
 918              	 .thumb
 919              	 .thumb_func
 920              	 .fpu softvfp
 922              	smc_nfc_enable_interrupt:
 923              	.LFB86:
 277:.././hal/sam3u1c/smc.c **** 
 278:.././hal/sam3u1c/smc.c **** /**
 279:.././hal/sam3u1c/smc.c ****  * \brief Enable SMC interrupts.
 280:.././hal/sam3u1c/smc.c ****  *
 281:.././hal/sam3u1c/smc.c ****  * \param p_smc Pointer to an SMC instance.
 282:.././hal/sam3u1c/smc.c ****  * \param ul_sources Interrupt source bitmap.
 283:.././hal/sam3u1c/smc.c ****  */
 284:.././hal/sam3u1c/smc.c **** void smc_nfc_enable_interrupt(Smc *p_smc, uint32_t ul_sources)
 285:.././hal/sam3u1c/smc.c **** {
 924              	 .loc 1 285 1
 925              	 .cfi_startproc
 926              	 
 927              	 
 928              	 
 929 0000 80B4     	 push {r7}
 930              	.LCFI102:
 931              	 .cfi_def_cfa_offset 4
 932              	 .cfi_offset 7,-4
 933 0002 83B0     	 sub sp,sp,#12
 934              	.LCFI103:
 935              	 .cfi_def_cfa_offset 16
 936 0004 00AF     	 add r7,sp,#0
 937              	.LCFI104:
 938              	 .cfi_def_cfa_register 7
 939 0006 7860     	 str r0,[r7,#4]
 940 0008 3960     	 str r1,[r7]
 286:.././hal/sam3u1c/smc.c **** 	p_smc->SMC_IER = ul_sources;
 941              	 .loc 1 286 17
 942 000a 7B68     	 ldr r3,[r7,#4]
 943 000c 3A68     	 ldr r2,[r7]
 944 000e DA60     	 str r2,[r3,#12]
 287:.././hal/sam3u1c/smc.c **** }
 945              	 .loc 1 287 1
 946 0010 00BF     	 nop
 947 0012 0C37     	 adds r7,r7,#12
 948              	.LCFI105:
 949              	 .cfi_def_cfa_offset 4
 950 0014 BD46     	 mov sp,r7
 951              	.LCFI106:
 952              	 .cfi_def_cfa_register 13
 953              	 
 954 0016 80BC     	 pop {r7}
 955              	.LCFI107:
 956              	 .cfi_restore 7
 957              	 .cfi_def_cfa_offset 0
 958 0018 7047     	 bx lr
 959              	 .cfi_endproc
 960              	.LFE86:
 962              	 .section .text.smc_nfc_disable_interrupt,"ax",%progbits
 963              	 .align 1
 964              	 .global smc_nfc_disable_interrupt
 965              	 .syntax unified
 966              	 .thumb
 967              	 .thumb_func
 968              	 .fpu softvfp
 970              	smc_nfc_disable_interrupt:
 971              	.LFB87:
 288:.././hal/sam3u1c/smc.c **** 
 289:.././hal/sam3u1c/smc.c **** /**
 290:.././hal/sam3u1c/smc.c ****  * \brief Disable SMC interrupts.
 291:.././hal/sam3u1c/smc.c ****  *
 292:.././hal/sam3u1c/smc.c ****  * \param p_smc Pointer to an SMC instance.
 293:.././hal/sam3u1c/smc.c ****  * \param ul_sources Interrupt source bitmap.
 294:.././hal/sam3u1c/smc.c ****  */
 295:.././hal/sam3u1c/smc.c **** void smc_nfc_disable_interrupt(Smc *p_smc, uint32_t ul_sources)
 296:.././hal/sam3u1c/smc.c **** {
 972              	 .loc 1 296 1
 973              	 .cfi_startproc
 974              	 
 975              	 
 976              	 
 977 0000 80B4     	 push {r7}
 978              	.LCFI108:
 979              	 .cfi_def_cfa_offset 4
 980              	 .cfi_offset 7,-4
 981 0002 83B0     	 sub sp,sp,#12
 982              	.LCFI109:
 983              	 .cfi_def_cfa_offset 16
 984 0004 00AF     	 add r7,sp,#0
 985              	.LCFI110:
 986              	 .cfi_def_cfa_register 7
 987 0006 7860     	 str r0,[r7,#4]
 988 0008 3960     	 str r1,[r7]
 297:.././hal/sam3u1c/smc.c **** 	p_smc->SMC_IDR = ul_sources;
 989              	 .loc 1 297 17
 990 000a 7B68     	 ldr r3,[r7,#4]
 991 000c 3A68     	 ldr r2,[r7]
 992 000e 1A61     	 str r2,[r3,#16]
 298:.././hal/sam3u1c/smc.c **** }
 993              	 .loc 1 298 1
 994 0010 00BF     	 nop
 995 0012 0C37     	 adds r7,r7,#12
 996              	.LCFI111:
 997              	 .cfi_def_cfa_offset 4
 998 0014 BD46     	 mov sp,r7
 999              	.LCFI112:
 1000              	 .cfi_def_cfa_register 13
 1001              	 
 1002 0016 80BC     	 pop {r7}
 1003              	.LCFI113:
 1004              	 .cfi_restore 7
 1005              	 .cfi_def_cfa_offset 0
 1006 0018 7047     	 bx lr
 1007              	 .cfi_endproc
 1008              	.LFE87:
 1010              	 .section .text.smc_nfc_get_interrupt_mask,"ax",%progbits
 1011              	 .align 1
 1012              	 .global smc_nfc_get_interrupt_mask
 1013              	 .syntax unified
 1014              	 .thumb
 1015              	 .thumb_func
 1016              	 .fpu softvfp
 1018              	smc_nfc_get_interrupt_mask:
 1019              	.LFB88:
 299:.././hal/sam3u1c/smc.c **** 
 300:.././hal/sam3u1c/smc.c **** /**
 301:.././hal/sam3u1c/smc.c ****  * \brief Get the interrupt mask.
 302:.././hal/sam3u1c/smc.c ****  *
 303:.././hal/sam3u1c/smc.c ****  * \param p_smc Pointer to an SMC instance.
 304:.././hal/sam3u1c/smc.c ****  *
 305:.././hal/sam3u1c/smc.c ****  * \return Interrupt mask bitmap.
 306:.././hal/sam3u1c/smc.c ****  */
 307:.././hal/sam3u1c/smc.c **** uint32_t smc_nfc_get_interrupt_mask(Smc *p_smc)
 308:.././hal/sam3u1c/smc.c **** {
 1020              	 .loc 1 308 1
 1021              	 .cfi_startproc
 1022              	 
 1023              	 
 1024              	 
 1025 0000 80B4     	 push {r7}
 1026              	.LCFI114:
 1027              	 .cfi_def_cfa_offset 4
 1028              	 .cfi_offset 7,-4
 1029 0002 83B0     	 sub sp,sp,#12
 1030              	.LCFI115:
 1031              	 .cfi_def_cfa_offset 16
 1032 0004 00AF     	 add r7,sp,#0
 1033              	.LCFI116:
 1034              	 .cfi_def_cfa_register 7
 1035 0006 7860     	 str r0,[r7,#4]
 309:.././hal/sam3u1c/smc.c **** 	return p_smc->SMC_IMR;
 1036              	 .loc 1 309 14
 1037 0008 7B68     	 ldr r3,[r7,#4]
 1038 000a 5B69     	 ldr r3,[r3,#20]
 310:.././hal/sam3u1c/smc.c **** }
 1039              	 .loc 1 310 1
 1040 000c 1846     	 mov r0,r3
 1041 000e 0C37     	 adds r7,r7,#12
 1042              	.LCFI117:
 1043              	 .cfi_def_cfa_offset 4
 1044 0010 BD46     	 mov sp,r7
 1045              	.LCFI118:
 1046              	 .cfi_def_cfa_register 13
 1047              	 
 1048 0012 80BC     	 pop {r7}
 1049              	.LCFI119:
 1050              	 .cfi_restore 7
 1051              	 .cfi_def_cfa_offset 0
 1052 0014 7047     	 bx lr
 1053              	 .cfi_endproc
 1054              	.LFE88:
 1056              	 .section .text.smc_nfc_set_address0,"ax",%progbits
 1057              	 .align 1
 1058              	 .global smc_nfc_set_address0
 1059              	 .syntax unified
 1060              	 .thumb
 1061              	 .thumb_func
 1062              	 .fpu softvfp
 1064              	smc_nfc_set_address0:
 1065              	.LFB89:
 311:.././hal/sam3u1c/smc.c **** 
 312:.././hal/sam3u1c/smc.c **** /**
 313:.././hal/sam3u1c/smc.c ****  * \brief Set flash cycle 0 address.
 314:.././hal/sam3u1c/smc.c ****  *
 315:.././hal/sam3u1c/smc.c ****  * \param p_smc Pointer to an SMC instance.
 316:.././hal/sam3u1c/smc.c ****  * \param uc_address0 Address cycle 0 in 5 address cycles.
 317:.././hal/sam3u1c/smc.c ****  */
 318:.././hal/sam3u1c/smc.c **** void smc_nfc_set_address0(Smc *p_smc, uint8_t uc_address0)
 319:.././hal/sam3u1c/smc.c **** {
 1066              	 .loc 1 319 1
 1067              	 .cfi_startproc
 1068              	 
 1069              	 
 1070              	 
 1071 0000 80B4     	 push {r7}
 1072              	.LCFI120:
 1073              	 .cfi_def_cfa_offset 4
 1074              	 .cfi_offset 7,-4
 1075 0002 83B0     	 sub sp,sp,#12
 1076              	.LCFI121:
 1077              	 .cfi_def_cfa_offset 16
 1078 0004 00AF     	 add r7,sp,#0
 1079              	.LCFI122:
 1080              	 .cfi_def_cfa_register 7
 1081 0006 7860     	 str r0,[r7,#4]
 1082 0008 0B46     	 mov r3,r1
 1083 000a FB70     	 strb r3,[r7,#3]
 320:.././hal/sam3u1c/smc.c **** 	p_smc->SMC_ADDR = uc_address0;
 1084              	 .loc 1 320 18
 1085 000c FA78     	 ldrb r2,[r7,#3]
 1086 000e 7B68     	 ldr r3,[r7,#4]
 1087 0010 9A61     	 str r2,[r3,#24]
 321:.././hal/sam3u1c/smc.c **** }
 1088              	 .loc 1 321 1
 1089 0012 00BF     	 nop
 1090 0014 0C37     	 adds r7,r7,#12
 1091              	.LCFI123:
 1092              	 .cfi_def_cfa_offset 4
 1093 0016 BD46     	 mov sp,r7
 1094              	.LCFI124:
 1095              	 .cfi_def_cfa_register 13
 1096              	 
 1097 0018 80BC     	 pop {r7}
 1098              	.LCFI125:
 1099              	 .cfi_restore 7
 1100              	 .cfi_def_cfa_offset 0
 1101 001a 7047     	 bx lr
 1102              	 .cfi_endproc
 1103              	.LFE89:
 1105              	 .section .text.smc_nfc_set_bank,"ax",%progbits
 1106              	 .align 1
 1107              	 .global smc_nfc_set_bank
 1108              	 .syntax unified
 1109              	 .thumb
 1110              	 .thumb_func
 1111              	 .fpu softvfp
 1113              	smc_nfc_set_bank:
 1114              	.LFB90:
 322:.././hal/sam3u1c/smc.c **** 
 323:.././hal/sam3u1c/smc.c **** /**
 324:.././hal/sam3u1c/smc.c ****  * \brief Set NFC sram bank.
 325:.././hal/sam3u1c/smc.c ****  *
 326:.././hal/sam3u1c/smc.c ****  * \param p_smc Pointer to an SMC instance.
 327:.././hal/sam3u1c/smc.c ****  * \param ul_bank NFC sram bank.
 328:.././hal/sam3u1c/smc.c ****  */
 329:.././hal/sam3u1c/smc.c **** void smc_nfc_set_bank(Smc *p_smc, uint32_t ul_bank)
 330:.././hal/sam3u1c/smc.c **** {
 1115              	 .loc 1 330 1
 1116              	 .cfi_startproc
 1117              	 
 1118              	 
 1119              	 
 1120 0000 80B4     	 push {r7}
 1121              	.LCFI126:
 1122              	 .cfi_def_cfa_offset 4
 1123              	 .cfi_offset 7,-4
 1124 0002 83B0     	 sub sp,sp,#12
 1125              	.LCFI127:
 1126              	 .cfi_def_cfa_offset 16
 1127 0004 00AF     	 add r7,sp,#0
 1128              	.LCFI128:
 1129              	 .cfi_def_cfa_register 7
 1130 0006 7860     	 str r0,[r7,#4]
 1131 0008 3960     	 str r1,[r7]
 331:.././hal/sam3u1c/smc.c **** 	p_smc->SMC_BANK = SMC_BANK_BANK(ul_bank);
 1132              	 .loc 1 331 20
 1133 000a 3B68     	 ldr r3,[r7]
 1134 000c 03F00702 	 and r2,r3,#7
 1135              	 .loc 1 331 18
 1136 0010 7B68     	 ldr r3,[r7,#4]
 1137 0012 DA61     	 str r2,[r3,#28]
 332:.././hal/sam3u1c/smc.c **** }
 1138              	 .loc 1 332 1
 1139 0014 00BF     	 nop
 1140 0016 0C37     	 adds r7,r7,#12
 1141              	.LCFI129:
 1142              	 .cfi_def_cfa_offset 4
 1143 0018 BD46     	 mov sp,r7
 1144              	.LCFI130:
 1145              	 .cfi_def_cfa_register 13
 1146              	 
 1147 001a 80BC     	 pop {r7}
 1148              	.LCFI131:
 1149              	 .cfi_restore 7
 1150              	 .cfi_def_cfa_offset 0
 1151 001c 7047     	 bx lr
 1152              	 .cfi_endproc
 1153              	.LFE90:
 1155              	 .section .text.smc_nfc_send_command,"ax",%progbits
 1156              	 .align 1
 1157              	 .global smc_nfc_send_command
 1158              	 .syntax unified
 1159              	 .thumb
 1160              	 .thumb_func
 1161              	 .fpu softvfp
 1163              	smc_nfc_send_command:
 1164              	.LFB91:
 333:.././hal/sam3u1c/smc.c **** 
 334:.././hal/sam3u1c/smc.c **** /**
 335:.././hal/sam3u1c/smc.c ****  * \brief Use the HOST nandflash controller to send a command.
 336:.././hal/sam3u1c/smc.c ****  *
 337:.././hal/sam3u1c/smc.c ****  * \param p_smc Pointer to an SMC instance.
 338:.././hal/sam3u1c/smc.c ****  * \param ul_cmd Command to send.
 339:.././hal/sam3u1c/smc.c ****  * \param ul_address_cycle Address cycle when command access is decoded.
 340:.././hal/sam3u1c/smc.c ****  * \param ul_cycle0 Address at first cycle.
 341:.././hal/sam3u1c/smc.c ****  */
 342:.././hal/sam3u1c/smc.c **** void smc_nfc_send_command(Smc *p_smc, uint32_t ul_cmd,
 343:.././hal/sam3u1c/smc.c **** 		uint32_t ul_address_cycle, uint32_t ul_cycle0)
 344:.././hal/sam3u1c/smc.c **** {
 1165              	 .loc 1 344 1
 1166              	 .cfi_startproc
 1167              	 
 1168              	 
 1169              	 
 1170 0000 80B4     	 push {r7}
 1171              	.LCFI132:
 1172              	 .cfi_def_cfa_offset 4
 1173              	 .cfi_offset 7,-4
 1174 0002 87B0     	 sub sp,sp,#28
 1175              	.LCFI133:
 1176              	 .cfi_def_cfa_offset 32
 1177 0004 00AF     	 add r7,sp,#0
 1178              	.LCFI134:
 1179              	 .cfi_def_cfa_register 7
 1180 0006 F860     	 str r0,[r7,#12]
 1181 0008 B960     	 str r1,[r7,#8]
 1182 000a 7A60     	 str r2,[r7,#4]
 1183 000c 3B60     	 str r3,[r7]
 345:.././hal/sam3u1c/smc.c **** 	volatile uint32_t *p_command_address;
 346:.././hal/sam3u1c/smc.c **** 
 347:.././hal/sam3u1c/smc.c **** 	/* Wait until host controller is not busy. */
 348:.././hal/sam3u1c/smc.c **** 	while (((*((volatile uint32_t *)(BOARD_NF_DATA_ADDR + NFCADDR_CMD_NFCCMD)))
 1184              	 .loc 1 348 8
 1185 000e 00BF     	 nop
 1186              	.L33:
 1187              	 .loc 1 348 11 discriminator 1
 1188 0010 4FF0D243 	 mov r3,#1761607680
 1189 0014 1B68     	 ldr r3,[r3]
 349:.././hal/sam3u1c/smc.c **** 			& NFC_BUSY_FLAG) == NFC_BUSY_FLAG) {
 1190              	 .loc 1 349 4 discriminator 1
 1191 0016 03F00063 	 and r3,r3,#134217728
 348:.././hal/sam3u1c/smc.c **** 			& NFC_BUSY_FLAG) == NFC_BUSY_FLAG) {
 1192              	 .loc 1 348 8 discriminator 1
 1193 001a B3F1006F 	 cmp r3,#134217728
 1194 001e F7D0     	 beq .L33
 350:.././hal/sam3u1c/smc.c **** 	}
 351:.././hal/sam3u1c/smc.c **** 	/* Send the command plus the ADDR_CYCLE. */
 352:.././hal/sam3u1c/smc.c **** 	p_command_address = (volatile uint32_t *)(ul_cmd + BOARD_NF_DATA_ADDR);
 1195              	 .loc 1 352 51
 1196 0020 BB68     	 ldr r3,[r7,#8]
 1197 0022 03F1C243 	 add r3,r3,#1627389952
 1198              	 .loc 1 352 20
 1199 0026 7B61     	 str r3,[r7,#20]
 353:.././hal/sam3u1c/smc.c **** 	p_smc->SMC_ADDR = ul_cycle0;
 1200              	 .loc 1 353 18
 1201 0028 FB68     	 ldr r3,[r7,#12]
 1202 002a 3A68     	 ldr r2,[r7]
 1203 002c 9A61     	 str r2,[r3,#24]
 354:.././hal/sam3u1c/smc.c **** 	*p_command_address = ul_address_cycle;
 1204              	 .loc 1 354 21
 1205 002e 7B69     	 ldr r3,[r7,#20]
 1206 0030 7A68     	 ldr r2,[r7,#4]
 1207 0032 1A60     	 str r2,[r3]
 355:.././hal/sam3u1c/smc.c **** 	while (!((p_smc->SMC_SR & SMC_SR_CMDDONE) == SMC_SR_CMDDONE)) {
 1208              	 .loc 1 355 8
 1209 0034 00BF     	 nop
 1210              	.L34:
 1211              	 .loc 1 355 17 discriminator 1
 1212 0036 FB68     	 ldr r3,[r7,#12]
 1213 0038 9B68     	 ldr r3,[r3,#8]
 1214              	 .loc 1 355 26 discriminator 1
 1215 003a 03F40033 	 and r3,r3,#131072
 1216              	 .loc 1 355 8 discriminator 1
 1217 003e B3F5003F 	 cmp r3,#131072
 1218 0042 F8D1     	 bne .L34
 356:.././hal/sam3u1c/smc.c **** 	}
 357:.././hal/sam3u1c/smc.c **** }
 1219              	 .loc 1 357 1
 1220 0044 00BF     	 nop
 1221 0046 1C37     	 adds r7,r7,#28
 1222              	.LCFI135:
 1223              	 .cfi_def_cfa_offset 4
 1224 0048 BD46     	 mov sp,r7
 1225              	.LCFI136:
 1226              	 .cfi_def_cfa_register 13
 1227              	 
 1228 004a 80BC     	 pop {r7}
 1229              	.LCFI137:
 1230              	 .cfi_restore 7
 1231              	 .cfi_def_cfa_offset 0
 1232 004c 7047     	 bx lr
 1233              	 .cfi_endproc
 1234              	.LFE91:
 1236              	 .section .text.smc_ecc_init,"ax",%progbits
 1237              	 .align 1
 1238              	 .global smc_ecc_init
 1239              	 .syntax unified
 1240              	 .thumb
 1241              	 .thumb_func
 1242              	 .fpu softvfp
 1244              	smc_ecc_init:
 1245              	.LFB92:
 358:.././hal/sam3u1c/smc.c **** 
 359:.././hal/sam3u1c/smc.c **** /**
 360:.././hal/sam3u1c/smc.c ****  * \brief Initialize ECC mode.
 361:.././hal/sam3u1c/smc.c ****  *
 362:.././hal/sam3u1c/smc.c ****  * \param p_smc Pointer to an SMC instance.
 363:.././hal/sam3u1c/smc.c ****  * \param ul_type Type of correction, use pattern defined in the device header file.
 364:.././hal/sam3u1c/smc.c ****  * \param ul_pagesize Page size of NAND Flash device, use pattern defined in
 365:.././hal/sam3u1c/smc.c ****  * the device header file.
 366:.././hal/sam3u1c/smc.c ****  */
 367:.././hal/sam3u1c/smc.c **** void smc_ecc_init(Smc *p_smc, uint32_t ul_type, uint32_t ul_pagesize)
 368:.././hal/sam3u1c/smc.c **** {
 1246              	 .loc 1 368 1
 1247              	 .cfi_startproc
 1248              	 
 1249              	 
 1250              	 
 1251 0000 80B4     	 push {r7}
 1252              	.LCFI138:
 1253              	 .cfi_def_cfa_offset 4
 1254              	 .cfi_offset 7,-4
 1255 0002 85B0     	 sub sp,sp,#20
 1256              	.LCFI139:
 1257              	 .cfi_def_cfa_offset 24
 1258 0004 00AF     	 add r7,sp,#0
 1259              	.LCFI140:
 1260              	 .cfi_def_cfa_register 7
 1261 0006 F860     	 str r0,[r7,#12]
 1262 0008 B960     	 str r1,[r7,#8]
 1263 000a 7A60     	 str r2,[r7,#4]
 369:.././hal/sam3u1c/smc.c **** 	/* Software Reset ECC. */
 370:.././hal/sam3u1c/smc.c **** 	p_smc->SMC_ECC_CTRL = SMC_ECC_CTRL_SWRST;
 1264              	 .loc 1 370 22
 1265 000c FB68     	 ldr r3,[r7,#12]
 1266 000e 0222     	 movs r2,#2
 1267 0010 1A62     	 str r2,[r3,#32]
 371:.././hal/sam3u1c/smc.c **** 	p_smc->SMC_ECC_MD = ul_type | ul_pagesize;
 1268              	 .loc 1 371 30
 1269 0012 BA68     	 ldr r2,[r7,#8]
 1270 0014 7B68     	 ldr r3,[r7,#4]
 1271 0016 1A43     	 orrs r2,r2,r3
 1272              	 .loc 1 371 20
 1273 0018 FB68     	 ldr r3,[r7,#12]
 1274 001a 5A62     	 str r2,[r3,#36]
 372:.././hal/sam3u1c/smc.c **** }
 1275              	 .loc 1 372 1
 1276 001c 00BF     	 nop
 1277 001e 1437     	 adds r7,r7,#20
 1278              	.LCFI141:
 1279              	 .cfi_def_cfa_offset 4
 1280 0020 BD46     	 mov sp,r7
 1281              	.LCFI142:
 1282              	 .cfi_def_cfa_register 13
 1283              	 
 1284 0022 80BC     	 pop {r7}
 1285              	.LCFI143:
 1286              	 .cfi_restore 7
 1287              	 .cfi_def_cfa_offset 0
 1288 0024 7047     	 bx lr
 1289              	 .cfi_endproc
 1290              	.LFE92:
 1292              	 .section .text.smc_ecc_get_status,"ax",%progbits
 1293              	 .align 1
 1294              	 .global smc_ecc_get_status
 1295              	 .syntax unified
 1296              	 .thumb
 1297              	 .thumb_func
 1298              	 .fpu softvfp
 1300              	smc_ecc_get_status:
 1301              	.LFB93:
 373:.././hal/sam3u1c/smc.c **** 
 374:.././hal/sam3u1c/smc.c **** /**
 375:.././hal/sam3u1c/smc.c ****  * \brief Get ECC status by giving ecc number.
 376:.././hal/sam3u1c/smc.c ****  *
 377:.././hal/sam3u1c/smc.c ****  * \param p_smc Pointer to an SMC instance.
 378:.././hal/sam3u1c/smc.c ****  * \param ul_parity_number ECC parity number from 0 to 15.
 379:.././hal/sam3u1c/smc.c ****  *
 380:.././hal/sam3u1c/smc.c ****  * \return ECC status by giving ECC number.
 381:.././hal/sam3u1c/smc.c ****  */
 382:.././hal/sam3u1c/smc.c **** uint32_t smc_ecc_get_status(Smc *p_smc, uint32_t ul_parity_number)
 383:.././hal/sam3u1c/smc.c **** {
 1302              	 .loc 1 383 1
 1303              	 .cfi_startproc
 1304              	 
 1305              	 
 1306              	 
 1307 0000 80B4     	 push {r7}
 1308              	.LCFI144:
 1309              	 .cfi_def_cfa_offset 4
 1310              	 .cfi_offset 7,-4
 1311 0002 85B0     	 sub sp,sp,#20
 1312              	.LCFI145:
 1313              	 .cfi_def_cfa_offset 24
 1314 0004 00AF     	 add r7,sp,#0
 1315              	.LCFI146:
 1316              	 .cfi_def_cfa_register 7
 1317 0006 7860     	 str r0,[r7,#4]
 1318 0008 3960     	 str r1,[r7]
 384:.././hal/sam3u1c/smc.c **** 	uint32_t status;
 385:.././hal/sam3u1c/smc.c **** 
 386:.././hal/sam3u1c/smc.c **** 	if (ul_parity_number < 8) {
 1319              	 .loc 1 386 5
 1320 000a 3B68     	 ldr r3,[r7]
 1321 000c 072B     	 cmp r3,#7
 1322 000e 03D8     	 bhi .L37
 387:.././hal/sam3u1c/smc.c **** 		status = p_smc->SMC_ECC_SR1;
 1323              	 .loc 1 387 10
 1324 0010 7B68     	 ldr r3,[r7,#4]
 1325 0012 9B6A     	 ldr r3,[r3,#40]
 1326 0014 FB60     	 str r3,[r7,#12]
 1327 0016 05E0     	 b .L38
 1328              	.L37:
 388:.././hal/sam3u1c/smc.c **** 	} else {
 389:.././hal/sam3u1c/smc.c **** 		status = p_smc->SMC_ECC_SR2;
 1329              	 .loc 1 389 10
 1330 0018 7B68     	 ldr r3,[r7,#4]
 1331 001a 5B6B     	 ldr r3,[r3,#52]
 1332 001c FB60     	 str r3,[r7,#12]
 390:.././hal/sam3u1c/smc.c **** 		ul_parity_number -= 8;
 1333              	 .loc 1 390 20
 1334 001e 3B68     	 ldr r3,[r7]
 1335 0020 083B     	 subs r3,r3,#8
 1336 0022 3B60     	 str r3,[r7]
 1337              	.L38:
 391:.././hal/sam3u1c/smc.c **** 	}
 392:.././hal/sam3u1c/smc.c **** 
 393:.././hal/sam3u1c/smc.c **** 	return ((status >> (ul_parity_number * 4)) & ECC_STATUS_MASK);
 1338              	 .loc 1 393 39
 1339 0024 3B68     	 ldr r3,[r7]
 1340 0026 9B00     	 lsls r3,r3,#2
 1341              	 .loc 1 393 18
 1342 0028 FA68     	 ldr r2,[r7,#12]
 1343 002a 22FA03F3 	 lsr r3,r2,r3
 1344              	 .loc 1 393 45
 1345 002e 03F00703 	 and r3,r3,#7
 394:.././hal/sam3u1c/smc.c **** }
 1346              	 .loc 1 394 1
 1347 0032 1846     	 mov r0,r3
 1348 0034 1437     	 adds r7,r7,#20
 1349              	.LCFI147:
 1350              	 .cfi_def_cfa_offset 4
 1351 0036 BD46     	 mov sp,r7
 1352              	.LCFI148:
 1353              	 .cfi_def_cfa_register 13
 1354              	 
 1355 0038 80BC     	 pop {r7}
 1356              	.LCFI149:
 1357              	 .cfi_restore 7
 1358              	 .cfi_def_cfa_offset 0
 1359 003a 7047     	 bx lr
 1360              	 .cfi_endproc
 1361              	.LFE93:
 1363              	 .section .text.smc_ecc_get_value,"ax",%progbits
 1364              	 .align 1
 1365              	 .global smc_ecc_get_value
 1366              	 .syntax unified
 1367              	 .thumb
 1368              	 .thumb_func
 1369              	 .fpu softvfp
 1371              	smc_ecc_get_value:
 1372              	.LFB94:
 395:.././hal/sam3u1c/smc.c **** 
 396:.././hal/sam3u1c/smc.c **** /**
 397:.././hal/sam3u1c/smc.c ****  * \brief Get all ECC parity registers value.
 398:.././hal/sam3u1c/smc.c ****  *
 399:.././hal/sam3u1c/smc.c ****  * \param p_smc Pointer to an SMC instance.
 400:.././hal/sam3u1c/smc.c ****  * \param p_ecc Pointer to a parity buffer.
 401:.././hal/sam3u1c/smc.c ****  */
 402:.././hal/sam3u1c/smc.c **** void smc_ecc_get_value(Smc *p_smc, uint32_t *p_ecc)
 403:.././hal/sam3u1c/smc.c **** {
 1373              	 .loc 1 403 1
 1374              	 .cfi_startproc
 1375              	 
 1376              	 
 1377              	 
 1378 0000 80B4     	 push {r7}
 1379              	.LCFI150:
 1380              	 .cfi_def_cfa_offset 4
 1381              	 .cfi_offset 7,-4
 1382 0002 83B0     	 sub sp,sp,#12
 1383              	.LCFI151:
 1384              	 .cfi_def_cfa_offset 16
 1385 0004 00AF     	 add r7,sp,#0
 1386              	.LCFI152:
 1387              	 .cfi_def_cfa_register 7
 1388 0006 7860     	 str r0,[r7,#4]
 1389 0008 3960     	 str r1,[r7]
 404:.././hal/sam3u1c/smc.c **** 	p_ecc[0] = p_smc->SMC_ECC_PR0;
 1390              	 .loc 1 404 18
 1391 000a 7B68     	 ldr r3,[r7,#4]
 1392 000c DA6A     	 ldr r2,[r3,#44]
 1393              	 .loc 1 404 11
 1394 000e 3B68     	 ldr r3,[r7]
 1395 0010 1A60     	 str r2,[r3]
 405:.././hal/sam3u1c/smc.c **** 	p_ecc[1] = p_smc->SMC_ECC_PR1;
 1396              	 .loc 1 405 7
 1397 0012 3B68     	 ldr r3,[r7]
 1398 0014 0433     	 adds r3,r3,#4
 1399              	 .loc 1 405 18
 1400 0016 7A68     	 ldr r2,[r7,#4]
 1401 0018 126B     	 ldr r2,[r2,#48]
 1402              	 .loc 1 405 11
 1403 001a 1A60     	 str r2,[r3]
 406:.././hal/sam3u1c/smc.c **** 	p_ecc[2] = p_smc->SMC_ECC_PR2;
 1404              	 .loc 1 406 7
 1405 001c 3B68     	 ldr r3,[r7]
 1406 001e 0833     	 adds r3,r3,#8
 1407              	 .loc 1 406 18
 1408 0020 7A68     	 ldr r2,[r7,#4]
 1409 0022 926B     	 ldr r2,[r2,#56]
 1410              	 .loc 1 406 11
 1411 0024 1A60     	 str r2,[r3]
 407:.././hal/sam3u1c/smc.c **** 	p_ecc[3] = p_smc->SMC_ECC_PR3;
 1412              	 .loc 1 407 7
 1413 0026 3B68     	 ldr r3,[r7]
 1414 0028 0C33     	 adds r3,r3,#12
 1415              	 .loc 1 407 18
 1416 002a 7A68     	 ldr r2,[r7,#4]
 1417 002c D26B     	 ldr r2,[r2,#60]
 1418              	 .loc 1 407 11
 1419 002e 1A60     	 str r2,[r3]
 408:.././hal/sam3u1c/smc.c **** 	p_ecc[4] = p_smc->SMC_ECC_PR4;
 1420              	 .loc 1 408 7
 1421 0030 3B68     	 ldr r3,[r7]
 1422 0032 1033     	 adds r3,r3,#16
 1423              	 .loc 1 408 18
 1424 0034 7A68     	 ldr r2,[r7,#4]
 1425 0036 126C     	 ldr r2,[r2,#64]
 1426              	 .loc 1 408 11
 1427 0038 1A60     	 str r2,[r3]
 409:.././hal/sam3u1c/smc.c **** 	p_ecc[5] = p_smc->SMC_ECC_PR5;
 1428              	 .loc 1 409 7
 1429 003a 3B68     	 ldr r3,[r7]
 1430 003c 1433     	 adds r3,r3,#20
 1431              	 .loc 1 409 18
 1432 003e 7A68     	 ldr r2,[r7,#4]
 1433 0040 526C     	 ldr r2,[r2,#68]
 1434              	 .loc 1 409 11
 1435 0042 1A60     	 str r2,[r3]
 410:.././hal/sam3u1c/smc.c **** 	p_ecc[6] = p_smc->SMC_ECC_PR6;
 1436              	 .loc 1 410 7
 1437 0044 3B68     	 ldr r3,[r7]
 1438 0046 1833     	 adds r3,r3,#24
 1439              	 .loc 1 410 18
 1440 0048 7A68     	 ldr r2,[r7,#4]
 1441 004a 926C     	 ldr r2,[r2,#72]
 1442              	 .loc 1 410 11
 1443 004c 1A60     	 str r2,[r3]
 411:.././hal/sam3u1c/smc.c **** 	p_ecc[7] = p_smc->SMC_ECC_PR7;
 1444              	 .loc 1 411 7
 1445 004e 3B68     	 ldr r3,[r7]
 1446 0050 1C33     	 adds r3,r3,#28
 1447              	 .loc 1 411 18
 1448 0052 7A68     	 ldr r2,[r7,#4]
 1449 0054 D26C     	 ldr r2,[r2,#76]
 1450              	 .loc 1 411 11
 1451 0056 1A60     	 str r2,[r3]
 412:.././hal/sam3u1c/smc.c **** 	p_ecc[8] = p_smc->SMC_ECC_PR8;
 1452              	 .loc 1 412 7
 1453 0058 3B68     	 ldr r3,[r7]
 1454 005a 2033     	 adds r3,r3,#32
 1455              	 .loc 1 412 18
 1456 005c 7A68     	 ldr r2,[r7,#4]
 1457 005e 126D     	 ldr r2,[r2,#80]
 1458              	 .loc 1 412 11
 1459 0060 1A60     	 str r2,[r3]
 413:.././hal/sam3u1c/smc.c **** 	p_ecc[9] = p_smc->SMC_ECC_PR9;
 1460              	 .loc 1 413 7
 1461 0062 3B68     	 ldr r3,[r7]
 1462 0064 2433     	 adds r3,r3,#36
 1463              	 .loc 1 413 18
 1464 0066 7A68     	 ldr r2,[r7,#4]
 1465 0068 526D     	 ldr r2,[r2,#84]
 1466              	 .loc 1 413 11
 1467 006a 1A60     	 str r2,[r3]
 414:.././hal/sam3u1c/smc.c **** 	p_ecc[10] = p_smc->SMC_ECC_PR10;
 1468              	 .loc 1 414 7
 1469 006c 3B68     	 ldr r3,[r7]
 1470 006e 2833     	 adds r3,r3,#40
 1471              	 .loc 1 414 19
 1472 0070 7A68     	 ldr r2,[r7,#4]
 1473 0072 926D     	 ldr r2,[r2,#88]
 1474              	 .loc 1 414 12
 1475 0074 1A60     	 str r2,[r3]
 415:.././hal/sam3u1c/smc.c **** 	p_ecc[11] = p_smc->SMC_ECC_PR11;
 1476              	 .loc 1 415 7
 1477 0076 3B68     	 ldr r3,[r7]
 1478 0078 2C33     	 adds r3,r3,#44
 1479              	 .loc 1 415 19
 1480 007a 7A68     	 ldr r2,[r7,#4]
 1481 007c D26D     	 ldr r2,[r2,#92]
 1482              	 .loc 1 415 12
 1483 007e 1A60     	 str r2,[r3]
 416:.././hal/sam3u1c/smc.c **** 	p_ecc[12] = p_smc->SMC_ECC_PR12;
 1484              	 .loc 1 416 7
 1485 0080 3B68     	 ldr r3,[r7]
 1486 0082 3033     	 adds r3,r3,#48
 1487              	 .loc 1 416 19
 1488 0084 7A68     	 ldr r2,[r7,#4]
 1489 0086 126E     	 ldr r2,[r2,#96]
 1490              	 .loc 1 416 12
 1491 0088 1A60     	 str r2,[r3]
 417:.././hal/sam3u1c/smc.c **** 	p_ecc[13] = p_smc->SMC_ECC_PR13;
 1492              	 .loc 1 417 7
 1493 008a 3B68     	 ldr r3,[r7]
 1494 008c 3433     	 adds r3,r3,#52
 1495              	 .loc 1 417 19
 1496 008e 7A68     	 ldr r2,[r7,#4]
 1497 0090 526E     	 ldr r2,[r2,#100]
 1498              	 .loc 1 417 12
 1499 0092 1A60     	 str r2,[r3]
 418:.././hal/sam3u1c/smc.c **** 	p_ecc[14] = p_smc->SMC_ECC_PR14;
 1500              	 .loc 1 418 7
 1501 0094 3B68     	 ldr r3,[r7]
 1502 0096 3833     	 adds r3,r3,#56
 1503              	 .loc 1 418 19
 1504 0098 7A68     	 ldr r2,[r7,#4]
 1505 009a 926E     	 ldr r2,[r2,#104]
 1506              	 .loc 1 418 12
 1507 009c 1A60     	 str r2,[r3]
 419:.././hal/sam3u1c/smc.c **** 	p_ecc[15] = p_smc->SMC_ECC_PR15;
 1508              	 .loc 1 419 7
 1509 009e 3B68     	 ldr r3,[r7]
 1510 00a0 3C33     	 adds r3,r3,#60
 1511              	 .loc 1 419 19
 1512 00a2 7A68     	 ldr r2,[r7,#4]
 1513 00a4 D26E     	 ldr r2,[r2,#108]
 1514              	 .loc 1 419 12
 1515 00a6 1A60     	 str r2,[r3]
 420:.././hal/sam3u1c/smc.c **** }
 1516              	 .loc 1 420 1
 1517 00a8 00BF     	 nop
 1518 00aa 0C37     	 adds r7,r7,#12
 1519              	.LCFI153:
 1520              	 .cfi_def_cfa_offset 4
 1521 00ac BD46     	 mov sp,r7
 1522              	.LCFI154:
 1523              	 .cfi_def_cfa_register 13
 1524              	 
 1525 00ae 80BC     	 pop {r7}
 1526              	.LCFI155:
 1527              	 .cfi_restore 7
 1528              	 .cfi_def_cfa_offset 0
 1529 00b0 7047     	 bx lr
 1530              	 .cfi_endproc
 1531              	.LFE94:
 1533              	 .text
 1534              	.Letext0:
 1535              	 .file 2 "c:\\program files (x86)\\gnu tools arm embedded\\8 2018-q4-major\\arm-none-eabi\\include\\machine\\_default_types.h"
 1536              	 .file 3 "c:\\program files (x86)\\gnu tools arm embedded\\8 2018-q4-major\\arm-none-eabi\\include\\sys\\_stdint.h"
 1537              	 .file 4 ".././hal/sam3u1c/inc/sam3u1c.h"
 1538              	 .file 5 ".././hal/sam3u1c/inc/core_cm3.h"
 1539              	 .file 6 ".././hal/sam3u1c/inc/system_sam3u.h"
 1540              	 .file 7 ".././hal/sam3u1c/inc/component/component_smc.h"
 1541              	 .file 8 "c:\\program files (x86)\\gnu tools arm embedded\\8 2018-q4-major\\arm-none-eabi\\include\\sys\\lock.h"
 1542              	 .file 9 "c:\\program files (x86)\\gnu tools arm embedded\\8 2018-q4-major\\arm-none-eabi\\include\\sys\\_types.h"
 1543              	 .file 10 "c:\\program files (x86)\\gnu tools arm embedded\\8 2018-q4-major\\lib\\gcc\\arm-none-eabi\\8.2.1\\include\\stddef.h"
 1544              	 .file 11 "c:\\program files (x86)\\gnu tools arm embedded\\8 2018-q4-major\\arm-none-eabi\\include\\sys\\reent.h"
 1545              	 .file 12 "c:\\program files (x86)\\gnu tools arm embedded\\8 2018-q4-major\\arm-none-eabi\\include\\stdlib.h"
 1546              	 .file 13 ".././hal/sam3u1c/inc/interrupt/interrupt_sam_nvic.h"