   1              	 .cpu cortex-m3
   2              	 .eabi_attribute 20,1
   3              	 .eabi_attribute 21,1
   4              	 .eabi_attribute 23,3
   5              	 .eabi_attribute 24,1
   6              	 .eabi_attribute 25,1
   7              	 .eabi_attribute 26,1
   8              	 .eabi_attribute 30,6
   9              	 .eabi_attribute 34,1
  10              	 .eabi_attribute 18,4
  11              	 .file "startup_sam3u.c"
  12              	 .text
  13              	.Ltext0:
  14              	 .cfi_sections .debug_frame
  15              	 .section .bss.cpu_irq_critical_section_counter,"aw",%nobits
  16              	 .align 2
  19              	cpu_irq_critical_section_counter:
  20 0000 00000000 	 .space 4
  21              	 .section .bss.cpu_irq_prev_interrupt_state,"aw",%nobits
  24              	cpu_irq_prev_interrupt_state:
  25 0000 00       	 .space 1
  26              	 .global exception_table
  27              	 .section .vectors,"aw",%progbits
  28              	 .align 2
  31              	exception_table:
  32 0000 00000000 	 .word _estack
  33 0004 00000000 	 .word Reset_Handler
  34 0008 00000000 	 .word NMI_Handler
  35 000c 00000000 	 .word HardFault_Handler
  36 0010 00000000 	 .word MemManage_Handler
  37 0014 00000000 	 .word BusFault_Handler
  38 0018 00000000 	 .word UsageFault_Handler
  39 001c 00000000 	 .word 0
  40 0020 00000000 	 .word 0
  41 0024 00000000 	 .word 0
  42 0028 00000000 	 .word 0
  43 002c 00000000 	 .word SVC_Handler
  44 0030 00000000 	 .word DebugMon_Handler
  45 0034 00000000 	 .word 0
  46 0038 00000000 	 .word PendSV_Handler
  47 003c 00000000 	 .word SysTick_Handler
  48 0040 00000000 	 .word SUPC_Handler
  49 0044 00000000 	 .word RSTC_Handler
  50 0048 00000000 	 .word RTC_Handler
  51 004c 00000000 	 .word RTT_Handler
  52 0050 00000000 	 .word WDT_Handler
  53 0054 00000000 	 .word PMC_Handler
  54 0058 00000000 	 .word EFC0_Handler
  55 005c 00000000 	 .word EFC1_Handler
  56 0060 00000000 	 .word UART_Handler
  57 0064 00000000 	 .word SMC_Handler
  58 0068 00000000 	 .word PIOA_Handler
  59 006c 00000000 	 .word PIOB_Handler
  60 0070 00000000 	 .word Dummy_Handler
  61 0074 00000000 	 .word USART0_Handler
  62 0078 00000000 	 .word USART1_Handler
  63 007c 00000000 	 .word USART2_Handler
  64 0080 00000000 	 .word Dummy_Handler
  65 0084 00000000 	 .word HSMCI_Handler
  66 0088 00000000 	 .word TWI0_Handler
  67 008c 00000000 	 .word TWI1_Handler
  68 0090 00000000 	 .word SPI_Handler
  69 0094 00000000 	 .word SSC_Handler
  70 0098 00000000 	 .word TC0_Handler
  71 009c 00000000 	 .word TC1_Handler
  72 00a0 00000000 	 .word TC2_Handler
  73 00a4 00000000 	 .word PWM_Handler
  74 00a8 00000000 	 .word ADC12B_Handler
  75 00ac 00000000 	 .word ADC_Handler
  76 00b0 00000000 	 .word DMAC_Handler
  77 00b4 00000000 	 .word UDPHS_Handler
  78 00b8 00000000 	 .word Dummy_Handler
  79              	 .section .text.Reset_Handler,"ax",%progbits
  80              	 .align 1
  81              	 .global Reset_Handler
  82              	 .syntax unified
  83              	 .thumb
  84              	 .thumb_func
  85              	 .fpu softvfp
  87              	Reset_Handler:
  88              	.LFB69:
  89              	 .file 1 ".././hal/sam3u1c/startup_sam3u.c"
   1:.././hal/sam3u1c/startup_sam3u.c **** /**
   2:.././hal/sam3u1c/startup_sam3u.c ****  * \file
   3:.././hal/sam3u1c/startup_sam3u.c ****  *
   4:.././hal/sam3u1c/startup_sam3u.c ****  * \brief Startup file for SAM3U.
   5:.././hal/sam3u1c/startup_sam3u.c ****  *
   6:.././hal/sam3u1c/startup_sam3u.c ****  * Copyright (c) 2011-2012 Atmel Corporation. All rights reserved.
   7:.././hal/sam3u1c/startup_sam3u.c ****  *
   8:.././hal/sam3u1c/startup_sam3u.c ****  * \asf_license_start
   9:.././hal/sam3u1c/startup_sam3u.c ****  *
  10:.././hal/sam3u1c/startup_sam3u.c ****  * \page License
  11:.././hal/sam3u1c/startup_sam3u.c ****  *
  12:.././hal/sam3u1c/startup_sam3u.c ****  * Redistribution and use in source and binary forms, with or without
  13:.././hal/sam3u1c/startup_sam3u.c ****  * modification, are permitted provided that the following conditions are met:
  14:.././hal/sam3u1c/startup_sam3u.c ****  *
  15:.././hal/sam3u1c/startup_sam3u.c ****  * 1. Redistributions of source code must retain the above copyright notice,
  16:.././hal/sam3u1c/startup_sam3u.c ****  *    this list of conditions and the following disclaimer.
  17:.././hal/sam3u1c/startup_sam3u.c ****  *
  18:.././hal/sam3u1c/startup_sam3u.c ****  * 2. Redistributions in binary form must reproduce the above copyright notice,
  19:.././hal/sam3u1c/startup_sam3u.c ****  *    this list of conditions and the following disclaimer in the documentation
  20:.././hal/sam3u1c/startup_sam3u.c ****  *    and/or other materials provided with the distribution.
  21:.././hal/sam3u1c/startup_sam3u.c ****  *
  22:.././hal/sam3u1c/startup_sam3u.c ****  * 3. The name of Atmel may not be used to endorse or promote products derived
  23:.././hal/sam3u1c/startup_sam3u.c ****  *    from this software without specific prior written permission.
  24:.././hal/sam3u1c/startup_sam3u.c ****  *
  25:.././hal/sam3u1c/startup_sam3u.c ****  * 4. This software may only be redistributed and used in connection with an
  26:.././hal/sam3u1c/startup_sam3u.c ****  *    Atmel microcontroller product.
  27:.././hal/sam3u1c/startup_sam3u.c ****  *
  28:.././hal/sam3u1c/startup_sam3u.c ****  * THIS SOFTWARE IS PROVIDED BY ATMEL "AS IS" AND ANY EXPRESS OR IMPLIED
  29:.././hal/sam3u1c/startup_sam3u.c ****  * WARRANTIES, INCLUDING, BUT NOT LIMITED TO, THE IMPLIED WARRANTIES OF
  30:.././hal/sam3u1c/startup_sam3u.c ****  * MERCHANTABILITY, FITNESS FOR A PARTICULAR PURPOSE AND NON-INFRINGEMENT ARE
  31:.././hal/sam3u1c/startup_sam3u.c ****  * EXPRESSLY AND SPECIFICALLY DISCLAIMED. IN NO EVENT SHALL ATMEL BE LIABLE FOR
  32:.././hal/sam3u1c/startup_sam3u.c ****  * ANY DIRECT, INDIRECT, INCIDENTAL, SPECIAL, EXEMPLARY, OR CONSEQUENTIAL
  33:.././hal/sam3u1c/startup_sam3u.c ****  * DAMAGES (INCLUDING, BUT NOT LIMITED TO, PROCUREMENT OF SUBSTITUTE GOODS
  34:.././hal/sam3u1c/startup_sam3u.c ****  * OR SERVICES; LOSS OF USE, DATA, OR PROFITS; OR BUSINESS INTERRUPTION)
  35:.././hal/sam3u1c/startup_sam3u.c ****  * HOWEVER CAUSED AND ON ANY THEORY OF LIABILITY, WHETHER IN CONTRACT,
  36:.././hal/sam3u1c/startup_sam3u.c ****  * STRICT LIABILITY, OR TORT (INCLUDING NEGLIGENCE OR OTHERWISE) ARISING IN
  37:.././hal/sam3u1c/startup_sam3u.c ****  * ANY WAY OUT OF THE USE OF THIS SOFTWARE, EVEN IF ADVISED OF THE
  38:.././hal/sam3u1c/startup_sam3u.c ****  * POSSIBILITY OF SUCH DAMAGE.
  39:.././hal/sam3u1c/startup_sam3u.c ****  *
  40:.././hal/sam3u1c/startup_sam3u.c ****  * \asf_license_stop
  41:.././hal/sam3u1c/startup_sam3u.c ****  *
  42:.././hal/sam3u1c/startup_sam3u.c ****  */
  43:.././hal/sam3u1c/startup_sam3u.c **** 
  44:.././hal/sam3u1c/startup_sam3u.c **** #include "exceptions.h"
  45:.././hal/sam3u1c/startup_sam3u.c **** #include "sam3u.h"
  46:.././hal/sam3u1c/startup_sam3u.c **** #include "system_sam3u.h"
  47:.././hal/sam3u1c/startup_sam3u.c **** 
  48:.././hal/sam3u1c/startup_sam3u.c **** /* Initialize segments */
  49:.././hal/sam3u1c/startup_sam3u.c **** extern uint32_t _sfixed;
  50:.././hal/sam3u1c/startup_sam3u.c **** extern uint32_t _efixed;
  51:.././hal/sam3u1c/startup_sam3u.c **** extern uint32_t _etext;
  52:.././hal/sam3u1c/startup_sam3u.c **** extern uint32_t _srelocate;
  53:.././hal/sam3u1c/startup_sam3u.c **** extern uint32_t _erelocate;
  54:.././hal/sam3u1c/startup_sam3u.c **** extern uint32_t _szero;
  55:.././hal/sam3u1c/startup_sam3u.c **** extern uint32_t _ezero;
  56:.././hal/sam3u1c/startup_sam3u.c **** extern uint32_t _sstack;
  57:.././hal/sam3u1c/startup_sam3u.c **** extern uint32_t _estack;
  58:.././hal/sam3u1c/startup_sam3u.c **** 
  59:.././hal/sam3u1c/startup_sam3u.c **** /** \cond DOXYGEN_SHOULD_SKIP_THIS */
  60:.././hal/sam3u1c/startup_sam3u.c **** int main(void);
  61:.././hal/sam3u1c/startup_sam3u.c **** /** \endcond */
  62:.././hal/sam3u1c/startup_sam3u.c **** 
  63:.././hal/sam3u1c/startup_sam3u.c **** void __libc_init_array(void);
  64:.././hal/sam3u1c/startup_sam3u.c **** 
  65:.././hal/sam3u1c/startup_sam3u.c **** /* Exception Table */
  66:.././hal/sam3u1c/startup_sam3u.c **** __attribute__ ((section(".vectors")))
  67:.././hal/sam3u1c/startup_sam3u.c **** IntFunc exception_table[] = {
  68:.././hal/sam3u1c/startup_sam3u.c **** 
  69:.././hal/sam3u1c/startup_sam3u.c **** 	/* Configure Initial Stack Pointer, using linker-generated symbols */
  70:.././hal/sam3u1c/startup_sam3u.c **** 	(IntFunc) (&_estack),
  71:.././hal/sam3u1c/startup_sam3u.c **** 	Reset_Handler,
  72:.././hal/sam3u1c/startup_sam3u.c **** 	NMI_Handler,
  73:.././hal/sam3u1c/startup_sam3u.c **** 	HardFault_Handler,
  74:.././hal/sam3u1c/startup_sam3u.c **** 	MemManage_Handler,
  75:.././hal/sam3u1c/startup_sam3u.c **** 	BusFault_Handler,
  76:.././hal/sam3u1c/startup_sam3u.c **** 	UsageFault_Handler,
  77:.././hal/sam3u1c/startup_sam3u.c **** 	0, 0, 0, 0,	          /*  Reserved */
  78:.././hal/sam3u1c/startup_sam3u.c **** 	SVC_Handler,
  79:.././hal/sam3u1c/startup_sam3u.c **** 	DebugMon_Handler,
  80:.././hal/sam3u1c/startup_sam3u.c **** 	0,	                  /*  Reserved */
  81:.././hal/sam3u1c/startup_sam3u.c **** 	PendSV_Handler,
  82:.././hal/sam3u1c/startup_sam3u.c **** 	SysTick_Handler,
  83:.././hal/sam3u1c/startup_sam3u.c **** 
  84:.././hal/sam3u1c/startup_sam3u.c **** 	/* Configurable interrupts */
  85:.././hal/sam3u1c/startup_sam3u.c **** 	SUPC_Handler,      /* 0  Supply Controller */
  86:.././hal/sam3u1c/startup_sam3u.c **** 	RSTC_Handler,      /* 1  Reset Controller */
  87:.././hal/sam3u1c/startup_sam3u.c **** 	RTC_Handler,       /* 2  Real Time Clock */
  88:.././hal/sam3u1c/startup_sam3u.c **** 	RTT_Handler,       /* 3  Real Time Timer */
  89:.././hal/sam3u1c/startup_sam3u.c **** 	WDT_Handler,       /* 4  Watchdog Timer */
  90:.././hal/sam3u1c/startup_sam3u.c **** 	PMC_Handler,       /* 5  PMC */
  91:.././hal/sam3u1c/startup_sam3u.c **** 	EFC0_Handler,      /* 6  EEFC 0 */
  92:.././hal/sam3u1c/startup_sam3u.c **** 	EFC1_Handler,      /* 7  EEFC 1 */
  93:.././hal/sam3u1c/startup_sam3u.c **** 	UART_Handler,      /* 8  UART0 */
  94:.././hal/sam3u1c/startup_sam3u.c **** 	SMC_Handler,       /* 9  SMC */
  95:.././hal/sam3u1c/startup_sam3u.c **** 	PIOA_Handler,      /* 10 Parallel IO Controller A */
  96:.././hal/sam3u1c/startup_sam3u.c **** 	PIOB_Handler,      /* 11 Parallel IO Controller B */
  97:.././hal/sam3u1c/startup_sam3u.c **** #ifdef ID_PIOC
  98:.././hal/sam3u1c/startup_sam3u.c **** 	PIOC_Handler,      /* 12 Parallel IO Controller C */
  99:.././hal/sam3u1c/startup_sam3u.c **** #else
 100:.././hal/sam3u1c/startup_sam3u.c **** 	Dummy_Handler,
 101:.././hal/sam3u1c/startup_sam3u.c **** #endif
 102:.././hal/sam3u1c/startup_sam3u.c **** 	USART0_Handler,    /* 13 USART 0 */
 103:.././hal/sam3u1c/startup_sam3u.c **** 	USART1_Handler,    /* 14 USART 1 */
 104:.././hal/sam3u1c/startup_sam3u.c **** 	USART2_Handler,    /* 15 USART 2 */
 105:.././hal/sam3u1c/startup_sam3u.c **** #ifdef ID_USART3
 106:.././hal/sam3u1c/startup_sam3u.c **** 	USART3_Handler,    /* 16 USART 3 */
 107:.././hal/sam3u1c/startup_sam3u.c **** #else
 108:.././hal/sam3u1c/startup_sam3u.c **** 	Dummy_Handler,
 109:.././hal/sam3u1c/startup_sam3u.c **** #endif
 110:.././hal/sam3u1c/startup_sam3u.c **** 	HSMCI_Handler,     /* 17 MCI */
 111:.././hal/sam3u1c/startup_sam3u.c **** 	TWI0_Handler,      /* 18 TWI 0 */
 112:.././hal/sam3u1c/startup_sam3u.c **** 	TWI1_Handler,      /* 19 TWI 1 */
 113:.././hal/sam3u1c/startup_sam3u.c **** 	SPI_Handler,       /* 20 SPI */
 114:.././hal/sam3u1c/startup_sam3u.c **** 	SSC_Handler,       /* 21 SSC */
 115:.././hal/sam3u1c/startup_sam3u.c **** 	TC0_Handler,       /* 22 Timer Counter 0 */
 116:.././hal/sam3u1c/startup_sam3u.c **** 	TC1_Handler,       /* 23 Timer Counter 1 */
 117:.././hal/sam3u1c/startup_sam3u.c **** 	TC2_Handler,       /* 24 Timer Counter 2 */
 118:.././hal/sam3u1c/startup_sam3u.c **** 	PWM_Handler,       /* 25 PWM */
 119:.././hal/sam3u1c/startup_sam3u.c **** 	ADC12B_Handler,    /* 26 ADC12B controller */
 120:.././hal/sam3u1c/startup_sam3u.c **** 	ADC_Handler,       /* 27 ADC controller */
 121:.././hal/sam3u1c/startup_sam3u.c **** 	DMAC_Handler,      /* 28 DMA controller */
 122:.././hal/sam3u1c/startup_sam3u.c **** 	UDPHS_Handler,     /* 29 USB High Speed Port */
 123:.././hal/sam3u1c/startup_sam3u.c **** 	Dummy_Handler      /* 30 not used */
 124:.././hal/sam3u1c/startup_sam3u.c **** };
 125:.././hal/sam3u1c/startup_sam3u.c **** 
 126:.././hal/sam3u1c/startup_sam3u.c **** /* TEMPORARY PATCH FOR SCB */
 127:.././hal/sam3u1c/startup_sam3u.c **** #define SCB_VTOR_TBLBASE_Pos               29                            /*!< SCB VTOR: TBLBASE Pos
 128:.././hal/sam3u1c/startup_sam3u.c **** #define SCB_VTOR_TBLBASE_Msk               (1UL << SCB_VTOR_TBLBASE_Pos) /*!< SCB VTOR: TBLBASE Mas
 129:.././hal/sam3u1c/startup_sam3u.c **** 
 130:.././hal/sam3u1c/startup_sam3u.c **** /**
 131:.././hal/sam3u1c/startup_sam3u.c ****  * \brief This is the code that gets called on processor reset.
 132:.././hal/sam3u1c/startup_sam3u.c ****  * To initialize the device, and call the main() routine.
 133:.././hal/sam3u1c/startup_sam3u.c ****  */
 134:.././hal/sam3u1c/startup_sam3u.c **** void Reset_Handler(void)
 135:.././hal/sam3u1c/startup_sam3u.c **** {
  90              	 .loc 1 135 0
  91              	 .cfi_startproc
  92              	 
  93              	 
  94 0000 80B5     	 push {r7,lr}
  95              	.LCFI0:
  96              	 .cfi_def_cfa_offset 8
  97              	 .cfi_offset 7,-8
  98              	 .cfi_offset 14,-4
  99 0002 82B0     	 sub sp,sp,#8
 100              	.LCFI1:
 101              	 .cfi_def_cfa_offset 16
 102 0004 00AF     	 add r7,sp,#0
 103              	.LCFI2:
 104              	 .cfi_def_cfa_register 7
 136:.././hal/sam3u1c/startup_sam3u.c **** 	uint32_t *pSrc, *pDest;
 137:.././hal/sam3u1c/startup_sam3u.c **** 
 138:.././hal/sam3u1c/startup_sam3u.c **** 	/* Initialize the relocate segment */
 139:.././hal/sam3u1c/startup_sam3u.c **** 	pSrc = &_etext;
 105              	 .loc 1 139 0
 106 0006 1E4B     	 ldr r3,.L9
 107 0008 7B60     	 str r3,[r7,#4]
 140:.././hal/sam3u1c/startup_sam3u.c **** 	pDest = &_srelocate;
 108              	 .loc 1 140 0
 109 000a 1E4B     	 ldr r3,.L9+4
 110 000c 3B60     	 str r3,[r7]
 141:.././hal/sam3u1c/startup_sam3u.c **** 
 142:.././hal/sam3u1c/startup_sam3u.c **** 	if (pSrc != pDest) {
 111              	 .loc 1 142 0
 112 000e 7A68     	 ldr r2,[r7,#4]
 113 0010 3B68     	 ldr r3,[r7]
 114 0012 9A42     	 cmp r2,r3
 115 0014 0CD0     	 beq .L2
 143:.././hal/sam3u1c/startup_sam3u.c **** 		for (; pDest < &_erelocate;) {
 116              	 .loc 1 143 0
 117 0016 07E0     	 b .L3
 118              	.L4:
 144:.././hal/sam3u1c/startup_sam3u.c **** 			*pDest++ = *pSrc++;
 119              	 .loc 1 144 0
 120 0018 7A68     	 ldr r2,[r7,#4]
 121 001a 131D     	 adds r3,r2,#4
 122 001c 7B60     	 str r3,[r7,#4]
 123 001e 3B68     	 ldr r3,[r7]
 124 0020 191D     	 adds r1,r3,#4
 125 0022 3960     	 str r1,[r7]
 126 0024 1268     	 ldr r2,[r2]
 127 0026 1A60     	 str r2,[r3]
 128              	.L3:
 143:.././hal/sam3u1c/startup_sam3u.c **** 		for (; pDest < &_erelocate;) {
 129              	 .loc 1 143 0
 130 0028 3B68     	 ldr r3,[r7]
 131 002a 174A     	 ldr r2,.L9+8
 132 002c 9342     	 cmp r3,r2
 133 002e F3D3     	 bcc .L4
 134              	.L2:
 145:.././hal/sam3u1c/startup_sam3u.c **** 		}
 146:.././hal/sam3u1c/startup_sam3u.c **** 	}
 147:.././hal/sam3u1c/startup_sam3u.c **** 
 148:.././hal/sam3u1c/startup_sam3u.c **** 	/* Clear the zero segment */
 149:.././hal/sam3u1c/startup_sam3u.c **** 	for (pDest = &_szero; pDest < &_ezero;) {
 135              	 .loc 1 149 0
 136 0030 164B     	 ldr r3,.L9+12
 137 0032 3B60     	 str r3,[r7]
 138 0034 04E0     	 b .L5
 139              	.L6:
 150:.././hal/sam3u1c/startup_sam3u.c **** 		*pDest++ = 0;
 140              	 .loc 1 150 0
 141 0036 3B68     	 ldr r3,[r7]
 142 0038 1A1D     	 adds r2,r3,#4
 143 003a 3A60     	 str r2,[r7]
 144 003c 0022     	 movs r2,#0
 145 003e 1A60     	 str r2,[r3]
 146              	.L5:
 149:.././hal/sam3u1c/startup_sam3u.c **** 		*pDest++ = 0;
 147              	 .loc 1 149 0 discriminator 1
 148 0040 3B68     	 ldr r3,[r7]
 149 0042 134A     	 ldr r2,.L9+16
 150 0044 9342     	 cmp r3,r2
 151 0046 F6D3     	 bcc .L6
 151:.././hal/sam3u1c/startup_sam3u.c **** 	}
 152:.././hal/sam3u1c/startup_sam3u.c **** 
 153:.././hal/sam3u1c/startup_sam3u.c **** 	/* Set the vector table base address */
 154:.././hal/sam3u1c/startup_sam3u.c **** 	pSrc = (uint32_t *) & _sfixed;
 152              	 .loc 1 154 0
 153 0048 124B     	 ldr r3,.L9+20
 154 004a 7B60     	 str r3,[r7,#4]
 155:.././hal/sam3u1c/startup_sam3u.c **** 	SCB->VTOR = ((uint32_t) pSrc & SCB_VTOR_TBLOFF_Msk);
 155              	 .loc 1 155 0
 156 004c 7B68     	 ldr r3,[r7,#4]
 157 004e 124A     	 ldr r2,.L9+24
 158 0050 23F06043 	 bic r3,r3,#-536870912
 159 0054 23F07F03 	 bic r3,r3,#127
 160 0058 9360     	 str r3,[r2,#8]
 156:.././hal/sam3u1c/startup_sam3u.c **** 
 157:.././hal/sam3u1c/startup_sam3u.c **** 	if (((uint32_t) pSrc >= IRAM0_ADDR) && ((uint32_t) pSrc < IRAM0_ADDR + IRAM_SIZE)) {
 161              	 .loc 1 157 0
 162 005a 7B68     	 ldr r3,[r7,#4]
 163 005c B3F1005F 	 cmp r3,#536870912
 164 0060 09D3     	 bcc .L7
 165              	 .loc 1 157 0 is_stmt 0 discriminator 1
 166 0062 7B68     	 ldr r3,[r7,#4]
 167 0064 0D4A     	 ldr r2,.L9+28
 168 0066 9342     	 cmp r3,r2
 169 0068 05D8     	 bhi .L7
 158:.././hal/sam3u1c/startup_sam3u.c **** 		SCB->VTOR |= 1 << SCB_VTOR_TBLBASE_Pos;
 170              	 .loc 1 158 0 is_stmt 1
 171 006a 0B4B     	 ldr r3,.L9+24
 172 006c 9B68     	 ldr r3,[r3,#8]
 173 006e 0A4A     	 ldr r2,.L9+24
 174 0070 43F00053 	 orr r3,r3,#536870912
 175 0074 9360     	 str r3,[r2,#8]
 176              	.L7:
 159:.././hal/sam3u1c/startup_sam3u.c **** 	}
 160:.././hal/sam3u1c/startup_sam3u.c **** 
 161:.././hal/sam3u1c/startup_sam3u.c **** 	/* Initialize the C library */
 162:.././hal/sam3u1c/startup_sam3u.c **** 	__libc_init_array();
 177              	 .loc 1 162 0
 178 0076 0A4B     	 ldr r3,.L9+32
 179 0078 9847     	 blx r3
 180              	.LVL0:
 163:.././hal/sam3u1c/startup_sam3u.c **** 
 164:.././hal/sam3u1c/startup_sam3u.c **** 	/* Branch to main function */
 165:.././hal/sam3u1c/startup_sam3u.c **** 	main();
 181              	 .loc 1 165 0
 182 007a 0A4B     	 ldr r3,.L9+36
 183 007c 9847     	 blx r3
 184              	.LVL1:
 185              	.L8:
 166:.././hal/sam3u1c/startup_sam3u.c **** 
 167:.././hal/sam3u1c/startup_sam3u.c **** 	/* Infinite loop */
 168:.././hal/sam3u1c/startup_sam3u.c **** 	while (1);
 186              	 .loc 1 168 0 discriminator 1
 187 007e FEE7     	 b .L8
 188              	.L10:
 189              	 .align 2
 190              	.L9:
 191 0080 00000000 	 .word _etext
 192 0084 00000000 	 .word _srelocate
 193 0088 00000000 	 .word _erelocate
 194 008c 00000000 	 .word _szero
 195 0090 00000000 	 .word _ezero
 196 0094 00000000 	 .word _sfixed
 197 0098 00ED00E0 	 .word -536810240
 198 009c FF3F0020 	 .word 536887295
 199 00a0 00000000 	 .word __libc_init_array
 200 00a4 00000000 	 .word main
 201              	 .cfi_endproc
 202              	.LFE69:
 204              	 .text
 205              	.Letext0:
 206              	 .file 2 "c:\\program files (x86)\\gnu tools arm embedded\\7 2018-q2-update\\arm-none-eabi\\include\\machine\\_default_types.h"
 207              	 .file 3 "c:\\program files (x86)\\gnu tools arm embedded\\7 2018-q2-update\\arm-none-eabi\\include\\sys\\_stdint.h"
 208              	 .file 4 ".././hal/sam3u1c/inc/core_cm3.h"
 209              	 .file 5 "c:\\program files (x86)\\gnu tools arm embedded\\7 2018-q2-update\\arm-none-eabi\\include\\sys\\lock.h"
 210              	 .file 6 "c:\\program files (x86)\\gnu tools arm embedded\\7 2018-q2-update\\arm-none-eabi\\include\\sys\\_types.h"
 211              	 .file 7 "c:\\program files (x86)\\gnu tools arm embedded\\7 2018-q2-update\\lib\\gcc\\arm-none-eabi\\7.3.1\\include\\stddef.h"
 212              	 .file 8 "c:\\program files (x86)\\gnu tools arm embedded\\7 2018-q2-update\\arm-none-eabi\\include\\sys\\reent.h"
 213              	 .file 9 "c:\\program files (x86)\\gnu tools arm embedded\\7 2018-q2-update\\arm-none-eabi\\include\\stdlib.h"
 214              	 .file 10 ".././hal/sam3u1c/inc/interrupt/interrupt_sam_nvic.h"
 215              	 .file 11 ".././hal/sam3u1c/inc/system_sam3u.h"
 216              	 .file 12 ".././hal/sam3u1c/inc/exceptions.h"