   1              	 .cpu cortex-m3
   2              	 .eabi_attribute 20,1
   3              	 .eabi_attribute 21,1
   4              	 .eabi_attribute 23,3
   5              	 .eabi_attribute 24,1
   6              	 .eabi_attribute 25,1
   7              	 .eabi_attribute 26,1
   8              	 .eabi_attribute 30,6
   9              	 .eabi_attribute 34,1
  10              	 .eabi_attribute 18,4
  11              	 .file "sysclk.c"
  12              	 .text
  13              	.Ltext0:
  14              	 .cfi_sections .debug_frame
  15              	 .section .bss.cpu_irq_critical_section_counter,"aw",%nobits
  16              	 .align 2
  19              	cpu_irq_critical_section_counter:
  20 0000 00000000 	 .space 4
  21              	 .section .bss.cpu_irq_prev_interrupt_state,"aw",%nobits
  24              	cpu_irq_prev_interrupt_state:
  25 0000 00       	 .space 1
  26              	 .section .text.osc_enable,"ax",%progbits
  27              	 .align 1
  28              	 .syntax unified
  29              	 .thumb
  30              	 .thumb_func
  31              	 .fpu softvfp
  33              	osc_enable:
  34              	.LFB69:
  35              	 .file 1 ".././hal/sam3u1c/inc/sam3u/osc.h"
   1:.././hal/sam3u1c/inc/sam3u/osc.h **** /**
   2:.././hal/sam3u1c/inc/sam3u/osc.h ****  * \file
   3:.././hal/sam3u1c/inc/sam3u/osc.h ****  *
   4:.././hal/sam3u1c/inc/sam3u/osc.h ****  * \brief Chip-specific oscillator management functions.
   5:.././hal/sam3u1c/inc/sam3u/osc.h ****  *
   6:.././hal/sam3u1c/inc/sam3u/osc.h ****  * Copyright (c) 2011 - 2013 Atmel Corporation. All rights reserved.
   7:.././hal/sam3u1c/inc/sam3u/osc.h ****  *
   8:.././hal/sam3u1c/inc/sam3u/osc.h ****  * \asf_license_start
   9:.././hal/sam3u1c/inc/sam3u/osc.h ****  *
  10:.././hal/sam3u1c/inc/sam3u/osc.h ****  * \page License
  11:.././hal/sam3u1c/inc/sam3u/osc.h ****  *
  12:.././hal/sam3u1c/inc/sam3u/osc.h ****  * Redistribution and use in source and binary forms, with or without
  13:.././hal/sam3u1c/inc/sam3u/osc.h ****  * modification, are permitted provided that the following conditions are met:
  14:.././hal/sam3u1c/inc/sam3u/osc.h ****  *
  15:.././hal/sam3u1c/inc/sam3u/osc.h ****  * 1. Redistributions of source code must retain the above copyright notice,
  16:.././hal/sam3u1c/inc/sam3u/osc.h ****  *    this list of conditions and the following disclaimer.
  17:.././hal/sam3u1c/inc/sam3u/osc.h ****  *
  18:.././hal/sam3u1c/inc/sam3u/osc.h ****  * 2. Redistributions in binary form must reproduce the above copyright notice,
  19:.././hal/sam3u1c/inc/sam3u/osc.h ****  *    this list of conditions and the following disclaimer in the documentation
  20:.././hal/sam3u1c/inc/sam3u/osc.h ****  *    and/or other materials provided with the distribution.
  21:.././hal/sam3u1c/inc/sam3u/osc.h ****  *
  22:.././hal/sam3u1c/inc/sam3u/osc.h ****  * 3. The name of Atmel may not be used to endorse or promote products derived
  23:.././hal/sam3u1c/inc/sam3u/osc.h ****  *    from this software without specific prior written permission.
  24:.././hal/sam3u1c/inc/sam3u/osc.h ****  *
  25:.././hal/sam3u1c/inc/sam3u/osc.h ****  * 4. This software may only be redistributed and used in connection with an
  26:.././hal/sam3u1c/inc/sam3u/osc.h ****  *    Atmel microcontroller product.
  27:.././hal/sam3u1c/inc/sam3u/osc.h ****  *
  28:.././hal/sam3u1c/inc/sam3u/osc.h ****  * THIS SOFTWARE IS PROVIDED BY ATMEL "AS IS" AND ANY EXPRESS OR IMPLIED
  29:.././hal/sam3u1c/inc/sam3u/osc.h ****  * WARRANTIES, INCLUDING, BUT NOT LIMITED TO, THE IMPLIED WARRANTIES OF
  30:.././hal/sam3u1c/inc/sam3u/osc.h ****  * MERCHANTABILITY, FITNESS FOR A PARTICULAR PURPOSE AND NON-INFRINGEMENT ARE
  31:.././hal/sam3u1c/inc/sam3u/osc.h ****  * EXPRESSLY AND SPECIFICALLY DISCLAIMED. IN NO EVENT SHALL ATMEL BE LIABLE FOR
  32:.././hal/sam3u1c/inc/sam3u/osc.h ****  * ANY DIRECT, INDIRECT, INCIDENTAL, SPECIAL, EXEMPLARY, OR CONSEQUENTIAL
  33:.././hal/sam3u1c/inc/sam3u/osc.h ****  * DAMAGES (INCLUDING, BUT NOT LIMITED TO, PROCUREMENT OF SUBSTITUTE GOODS
  34:.././hal/sam3u1c/inc/sam3u/osc.h ****  * OR SERVICES; LOSS OF USE, DATA, OR PROFITS; OR BUSINESS INTERRUPTION)
  35:.././hal/sam3u1c/inc/sam3u/osc.h ****  * HOWEVER CAUSED AND ON ANY THEORY OF LIABILITY, WHETHER IN CONTRACT,
  36:.././hal/sam3u1c/inc/sam3u/osc.h ****  * STRICT LIABILITY, OR TORT (INCLUDING NEGLIGENCE OR OTHERWISE) ARISING IN
  37:.././hal/sam3u1c/inc/sam3u/osc.h ****  * ANY WAY OUT OF THE USE OF THIS SOFTWARE, EVEN IF ADVISED OF THE
  38:.././hal/sam3u1c/inc/sam3u/osc.h ****  * POSSIBILITY OF SUCH DAMAGE.
  39:.././hal/sam3u1c/inc/sam3u/osc.h ****  *
  40:.././hal/sam3u1c/inc/sam3u/osc.h ****  * \asf_license_stop
  41:.././hal/sam3u1c/inc/sam3u/osc.h ****  *
  42:.././hal/sam3u1c/inc/sam3u/osc.h ****  */
  43:.././hal/sam3u1c/inc/sam3u/osc.h **** 
  44:.././hal/sam3u1c/inc/sam3u/osc.h **** #ifndef CHIP_OSC_H_INCLUDED
  45:.././hal/sam3u1c/inc/sam3u/osc.h **** #define CHIP_OSC_H_INCLUDED
  46:.././hal/sam3u1c/inc/sam3u/osc.h **** 
  47:.././hal/sam3u1c/inc/sam3u/osc.h **** #include "board.h"
  48:.././hal/sam3u1c/inc/sam3u/osc.h **** #include "pmc.h"
  49:.././hal/sam3u1c/inc/sam3u/osc.h **** 
  50:.././hal/sam3u1c/inc/sam3u/osc.h **** /// @cond 0
  51:.././hal/sam3u1c/inc/sam3u/osc.h **** /**INDENT-OFF**/
  52:.././hal/sam3u1c/inc/sam3u/osc.h **** #ifdef __cplusplus
  53:.././hal/sam3u1c/inc/sam3u/osc.h **** extern "C" {
  54:.././hal/sam3u1c/inc/sam3u/osc.h **** #endif
  55:.././hal/sam3u1c/inc/sam3u/osc.h **** /**INDENT-ON**/
  56:.././hal/sam3u1c/inc/sam3u/osc.h **** /// @endcond
  57:.././hal/sam3u1c/inc/sam3u/osc.h **** 
  58:.././hal/sam3u1c/inc/sam3u/osc.h **** /*
  59:.././hal/sam3u1c/inc/sam3u/osc.h ****  * Below BOARD_XXX macros are related to the specific board, and
  60:.././hal/sam3u1c/inc/sam3u/osc.h ****  * should be defined by the board code, otherwise default value are used.
  61:.././hal/sam3u1c/inc/sam3u/osc.h ****  */
  62:.././hal/sam3u1c/inc/sam3u/osc.h **** #if !defined(BOARD_FREQ_SLCK_XTAL)
  63:.././hal/sam3u1c/inc/sam3u/osc.h **** #  warning The board slow clock xtal frequency has not been defined.
  64:.././hal/sam3u1c/inc/sam3u/osc.h **** #  define BOARD_FREQ_SLCK_XTAL      (32768UL)
  65:.././hal/sam3u1c/inc/sam3u/osc.h **** #endif
  66:.././hal/sam3u1c/inc/sam3u/osc.h **** 
  67:.././hal/sam3u1c/inc/sam3u/osc.h **** #if !defined(BOARD_FREQ_SLCK_BYPASS)
  68:.././hal/sam3u1c/inc/sam3u/osc.h **** #  warning The board slow clock bypass frequency has not been defined.
  69:.././hal/sam3u1c/inc/sam3u/osc.h **** #  define BOARD_FREQ_SLCK_BYPASS    (32768UL)
  70:.././hal/sam3u1c/inc/sam3u/osc.h **** #endif
  71:.././hal/sam3u1c/inc/sam3u/osc.h **** 
  72:.././hal/sam3u1c/inc/sam3u/osc.h **** #if !defined(BOARD_FREQ_MAINCK_XTAL)
  73:.././hal/sam3u1c/inc/sam3u/osc.h **** #  warning The board main clock xtal frequency has not been defined.
  74:.././hal/sam3u1c/inc/sam3u/osc.h **** #  define BOARD_FREQ_MAINCK_XTAL    (12000000UL)
  75:.././hal/sam3u1c/inc/sam3u/osc.h **** #endif
  76:.././hal/sam3u1c/inc/sam3u/osc.h **** 
  77:.././hal/sam3u1c/inc/sam3u/osc.h **** #if !defined(BOARD_FREQ_MAINCK_BYPASS)
  78:.././hal/sam3u1c/inc/sam3u/osc.h **** #  warning The board main clock bypass frequency has not been defined.
  79:.././hal/sam3u1c/inc/sam3u/osc.h **** #  define BOARD_FREQ_MAINCK_BYPASS  (12000000UL)
  80:.././hal/sam3u1c/inc/sam3u/osc.h **** #endif
  81:.././hal/sam3u1c/inc/sam3u/osc.h **** 
  82:.././hal/sam3u1c/inc/sam3u/osc.h **** #if !defined(BOARD_OSC_STARTUP_US)
  83:.././hal/sam3u1c/inc/sam3u/osc.h **** #  warning The board main clock xtal startup time has not been defined.
  84:.././hal/sam3u1c/inc/sam3u/osc.h **** #  define BOARD_OSC_STARTUP_US      (15625UL)
  85:.././hal/sam3u1c/inc/sam3u/osc.h **** #endif
  86:.././hal/sam3u1c/inc/sam3u/osc.h **** 
  87:.././hal/sam3u1c/inc/sam3u/osc.h **** /**
  88:.././hal/sam3u1c/inc/sam3u/osc.h ****  * \weakgroup osc_group
  89:.././hal/sam3u1c/inc/sam3u/osc.h ****  * @{
  90:.././hal/sam3u1c/inc/sam3u/osc.h ****  */
  91:.././hal/sam3u1c/inc/sam3u/osc.h **** 
  92:.././hal/sam3u1c/inc/sam3u/osc.h **** //! \name Oscillator identifiers
  93:.././hal/sam3u1c/inc/sam3u/osc.h **** //@{
  94:.././hal/sam3u1c/inc/sam3u/osc.h **** #define OSC_SLCK_32K_RC             0    //!< Internal 32kHz RC oscillator.
  95:.././hal/sam3u1c/inc/sam3u/osc.h **** #define OSC_SLCK_32K_XTAL           1    //!< External 32kHz crystal oscillator.
  96:.././hal/sam3u1c/inc/sam3u/osc.h **** #define OSC_SLCK_32K_BYPASS         2    //!< External 32kHz bypass oscillator.
  97:.././hal/sam3u1c/inc/sam3u/osc.h **** #define OSC_MAINCK_4M_RC            3    //!< Internal 4MHz RC oscillator.
  98:.././hal/sam3u1c/inc/sam3u/osc.h **** #define OSC_MAINCK_8M_RC            4    //!< Internal 8MHz RC oscillator.
  99:.././hal/sam3u1c/inc/sam3u/osc.h **** #define OSC_MAINCK_12M_RC           5    //!< Internal 12MHz RC oscillator.
 100:.././hal/sam3u1c/inc/sam3u/osc.h **** #define OSC_MAINCK_XTAL             6    //!< External crystal oscillator.
 101:.././hal/sam3u1c/inc/sam3u/osc.h **** #define OSC_MAINCK_BYPASS           7    //!< External bypass oscillator.
 102:.././hal/sam3u1c/inc/sam3u/osc.h **** //@}
 103:.././hal/sam3u1c/inc/sam3u/osc.h **** 
 104:.././hal/sam3u1c/inc/sam3u/osc.h **** //! \name Oscillator clock speed in hertz
 105:.././hal/sam3u1c/inc/sam3u/osc.h **** //@{
 106:.././hal/sam3u1c/inc/sam3u/osc.h **** #define OSC_SLCK_32K_RC_HZ          CHIP_FREQ_SLCK_RC               //!< Internal 32kHz RC oscillat
 107:.././hal/sam3u1c/inc/sam3u/osc.h **** #define OSC_SLCK_32K_XTAL_HZ        BOARD_FREQ_SLCK_XTAL            //!< External 32kHz crystal osc
 108:.././hal/sam3u1c/inc/sam3u/osc.h **** #define OSC_SLCK_32K_BYPASS_HZ      BOARD_FREQ_SLCK_BYPASS          //!< External 32kHz bypass osci
 109:.././hal/sam3u1c/inc/sam3u/osc.h **** #define OSC_MAINCK_4M_RC_HZ         CHIP_FREQ_MAINCK_RC_4MHZ        //!< Internal 4MHz RC oscillato
 110:.././hal/sam3u1c/inc/sam3u/osc.h **** #define OSC_MAINCK_8M_RC_HZ         CHIP_FREQ_MAINCK_RC_8MHZ        //!< Internal 8MHz RC oscillato
 111:.././hal/sam3u1c/inc/sam3u/osc.h **** #define OSC_MAINCK_12M_RC_HZ        CHIP_FREQ_MAINCK_RC_12MHZ       //!< Internal 12MHz RC oscillat
 112:.././hal/sam3u1c/inc/sam3u/osc.h **** #define OSC_MAINCK_XTAL_HZ          BOARD_FREQ_MAINCK_XTAL          //!< External crystal oscillato
 113:.././hal/sam3u1c/inc/sam3u/osc.h **** #define OSC_MAINCK_BYPASS_HZ        BOARD_FREQ_MAINCK_BYPASS        //!< External bypass oscillator
 114:.././hal/sam3u1c/inc/sam3u/osc.h **** //@}
 115:.././hal/sam3u1c/inc/sam3u/osc.h **** 
 116:.././hal/sam3u1c/inc/sam3u/osc.h **** static inline void osc_enable(uint32_t ul_id)
 117:.././hal/sam3u1c/inc/sam3u/osc.h **** {
  36              	 .loc 1 117 0
  37              	 .cfi_startproc
  38              	 
  39              	 
  40 0000 80B5     	 push {r7,lr}
  41              	.LCFI0:
  42              	 .cfi_def_cfa_offset 8
  43              	 .cfi_offset 7,-8
  44              	 .cfi_offset 14,-4
  45 0002 82B0     	 sub sp,sp,#8
  46              	.LCFI1:
  47              	 .cfi_def_cfa_offset 16
  48 0004 00AF     	 add r7,sp,#0
  49              	.LCFI2:
  50              	 .cfi_def_cfa_register 7
  51 0006 7860     	 str r0,[r7,#4]
 118:.././hal/sam3u1c/inc/sam3u/osc.h **** 	switch (ul_id) {
  52              	 .loc 1 118 0
  53 0008 7B68     	 ldr r3,[r7,#4]
  54 000a 072B     	 cmp r3,#7
  55 000c 2ED8     	 bhi .L12
  56 000e 01A2     	 adr r2,.L4
  57 0010 52F823F0 	 ldr pc,[r2,r3,lsl#2]
  58              	 .p2align 2
  59              	.L4:
  60 0014 6B000000 	 .word .L13+1
  61 0018 35000000 	 .word .L5+1
  62 001c 3D000000 	 .word .L6+1
  63 0020 45000000 	 .word .L7+1
  64 0024 4D000000 	 .word .L8+1
  65 0028 55000000 	 .word .L9+1
  66 002c 5D000000 	 .word .L10+1
  67 0030 65000000 	 .word .L11+1
  68              	 .p2align 1
  69              	.L5:
 119:.././hal/sam3u1c/inc/sam3u/osc.h **** 	case OSC_SLCK_32K_RC:
 120:.././hal/sam3u1c/inc/sam3u/osc.h **** 		break;
 121:.././hal/sam3u1c/inc/sam3u/osc.h **** 
 122:.././hal/sam3u1c/inc/sam3u/osc.h **** 	case OSC_SLCK_32K_XTAL:
 123:.././hal/sam3u1c/inc/sam3u/osc.h **** 		pmc_switch_sclk_to_32kxtal(PMC_OSC_XTAL);
  70              	 .loc 1 123 0
  71 0034 0020     	 movs r0,#0
  72 0036 0F4B     	 ldr r3,.L14
  73 0038 9847     	 blx r3
  74              	.LVL0:
 124:.././hal/sam3u1c/inc/sam3u/osc.h **** 		break;
  75              	 .loc 1 124 0
  76 003a 17E0     	 b .L2
  77              	.L6:
 125:.././hal/sam3u1c/inc/sam3u/osc.h **** 
 126:.././hal/sam3u1c/inc/sam3u/osc.h **** 	case OSC_SLCK_32K_BYPASS:
 127:.././hal/sam3u1c/inc/sam3u/osc.h **** 		pmc_switch_sclk_to_32kxtal(PMC_OSC_BYPASS);
  78              	 .loc 1 127 0
  79 003c 0120     	 movs r0,#1
  80 003e 0D4B     	 ldr r3,.L14
  81 0040 9847     	 blx r3
  82              	.LVL1:
 128:.././hal/sam3u1c/inc/sam3u/osc.h **** 		break;
  83              	 .loc 1 128 0
  84 0042 13E0     	 b .L2
  85              	.L7:
 129:.././hal/sam3u1c/inc/sam3u/osc.h **** 
 130:.././hal/sam3u1c/inc/sam3u/osc.h **** 
 131:.././hal/sam3u1c/inc/sam3u/osc.h **** 	case OSC_MAINCK_4M_RC:
 132:.././hal/sam3u1c/inc/sam3u/osc.h **** 		pmc_osc_enable_fastrc(CKGR_MOR_MOSCRCF_4_MHz);
  86              	 .loc 1 132 0
  87 0044 0020     	 movs r0,#0
  88 0046 0C4B     	 ldr r3,.L14+4
  89 0048 9847     	 blx r3
  90              	.LVL2:
 133:.././hal/sam3u1c/inc/sam3u/osc.h **** 		break;
  91              	 .loc 1 133 0
  92 004a 0FE0     	 b .L2
  93              	.L8:
 134:.././hal/sam3u1c/inc/sam3u/osc.h **** 
 135:.././hal/sam3u1c/inc/sam3u/osc.h **** 	case OSC_MAINCK_8M_RC:
 136:.././hal/sam3u1c/inc/sam3u/osc.h **** 		pmc_osc_enable_fastrc(CKGR_MOR_MOSCRCF_8_MHz);
  94              	 .loc 1 136 0
  95 004c 1020     	 movs r0,#16
  96 004e 0A4B     	 ldr r3,.L14+4
  97 0050 9847     	 blx r3
  98              	.LVL3:
 137:.././hal/sam3u1c/inc/sam3u/osc.h **** 		break;
  99              	 .loc 1 137 0
 100 0052 0BE0     	 b .L2
 101              	.L9:
 138:.././hal/sam3u1c/inc/sam3u/osc.h **** 
 139:.././hal/sam3u1c/inc/sam3u/osc.h **** 	case OSC_MAINCK_12M_RC:
 140:.././hal/sam3u1c/inc/sam3u/osc.h **** 		pmc_osc_enable_fastrc(CKGR_MOR_MOSCRCF_12_MHz);
 102              	 .loc 1 140 0
 103 0054 2020     	 movs r0,#32
 104 0056 084B     	 ldr r3,.L14+4
 105 0058 9847     	 blx r3
 106              	.LVL4:
 141:.././hal/sam3u1c/inc/sam3u/osc.h **** 		break;
 107              	 .loc 1 141 0
 108 005a 07E0     	 b .L2
 109              	.L10:
 142:.././hal/sam3u1c/inc/sam3u/osc.h **** 
 143:.././hal/sam3u1c/inc/sam3u/osc.h **** 
 144:.././hal/sam3u1c/inc/sam3u/osc.h **** 	case OSC_MAINCK_XTAL:
 145:.././hal/sam3u1c/inc/sam3u/osc.h **** 		pmc_osc_enable_main_xtal(pmc_us_to_moscxtst(
 110              	 .loc 1 145 0
 111 005c 3E20     	 movs r0,#62
 112 005e 074B     	 ldr r3,.L14+8
 113 0060 9847     	 blx r3
 114              	.LVL5:
 146:.././hal/sam3u1c/inc/sam3u/osc.h **** 				BOARD_OSC_STARTUP_US, OSC_SLCK_32K_RC_HZ));
 147:.././hal/sam3u1c/inc/sam3u/osc.h **** 		break;
 115              	 .loc 1 147 0
 116 0062 03E0     	 b .L2
 117              	.L11:
 148:.././hal/sam3u1c/inc/sam3u/osc.h **** 
 149:.././hal/sam3u1c/inc/sam3u/osc.h **** 	case OSC_MAINCK_BYPASS:
 150:.././hal/sam3u1c/inc/sam3u/osc.h **** 		pmc_osc_bypass_main_xtal();
 118              	 .loc 1 150 0
 119 0064 064B     	 ldr r3,.L14+12
 120 0066 9847     	 blx r3
 121              	.LVL6:
 151:.././hal/sam3u1c/inc/sam3u/osc.h **** 		break;
 122              	 .loc 1 151 0
 123 0068 00E0     	 b .L2
 124              	.L13:
 120:.././hal/sam3u1c/inc/sam3u/osc.h **** 
 125              	 .loc 1 120 0
 126 006a 00BF     	 nop
 127              	.L2:
 128              	.L12:
 152:.././hal/sam3u1c/inc/sam3u/osc.h **** 	}
 153:.././hal/sam3u1c/inc/sam3u/osc.h **** }
 129              	 .loc 1 153 0
 130 006c 00BF     	 nop
 131 006e 0837     	 adds r7,r7,#8
 132              	.LCFI3:
 133              	 .cfi_def_cfa_offset 8
 134 0070 BD46     	 mov sp,r7
 135              	.LCFI4:
 136              	 .cfi_def_cfa_register 13
 137              	 
 138 0072 80BD     	 pop {r7,pc}
 139              	.L15:
 140              	 .align 2
 141              	.L14:
 142 0074 00000000 	 .word pmc_switch_sclk_to_32kxtal
 143 0078 00000000 	 .word pmc_osc_enable_fastrc
 144 007c 00000000 	 .word pmc_osc_enable_main_xtal
 145 0080 00000000 	 .word pmc_osc_bypass_main_xtal
 146              	 .cfi_endproc
 147              	.LFE69:
 149              	 .section .text.osc_is_ready,"ax",%progbits
 150              	 .align 1
 151              	 .syntax unified
 152              	 .thumb
 153              	 .thumb_func
 154              	 .fpu softvfp
 156              	osc_is_ready:
 157              	.LFB71:
 154:.././hal/sam3u1c/inc/sam3u/osc.h **** 
 155:.././hal/sam3u1c/inc/sam3u/osc.h **** static inline void osc_disable(uint32_t ul_id)
 156:.././hal/sam3u1c/inc/sam3u/osc.h **** {
 157:.././hal/sam3u1c/inc/sam3u/osc.h **** 	switch (ul_id) {
 158:.././hal/sam3u1c/inc/sam3u/osc.h **** 	case OSC_SLCK_32K_RC:
 159:.././hal/sam3u1c/inc/sam3u/osc.h **** 	case OSC_SLCK_32K_XTAL:
 160:.././hal/sam3u1c/inc/sam3u/osc.h **** 	case OSC_SLCK_32K_BYPASS:
 161:.././hal/sam3u1c/inc/sam3u/osc.h **** 		break;
 162:.././hal/sam3u1c/inc/sam3u/osc.h **** 
 163:.././hal/sam3u1c/inc/sam3u/osc.h **** 	case OSC_MAINCK_4M_RC:
 164:.././hal/sam3u1c/inc/sam3u/osc.h **** 	case OSC_MAINCK_8M_RC:
 165:.././hal/sam3u1c/inc/sam3u/osc.h **** 	case OSC_MAINCK_12M_RC:
 166:.././hal/sam3u1c/inc/sam3u/osc.h **** 		pmc_osc_disable_fastrc();
 167:.././hal/sam3u1c/inc/sam3u/osc.h **** 		break;
 168:.././hal/sam3u1c/inc/sam3u/osc.h **** 
 169:.././hal/sam3u1c/inc/sam3u/osc.h **** 	case OSC_MAINCK_XTAL:
 170:.././hal/sam3u1c/inc/sam3u/osc.h **** 		pmc_osc_disable_xtal(PMC_OSC_XTAL);
 171:.././hal/sam3u1c/inc/sam3u/osc.h **** 		break;
 172:.././hal/sam3u1c/inc/sam3u/osc.h **** 
 173:.././hal/sam3u1c/inc/sam3u/osc.h **** 	case OSC_MAINCK_BYPASS:
 174:.././hal/sam3u1c/inc/sam3u/osc.h **** 		pmc_osc_disable_xtal(PMC_OSC_BYPASS);
 175:.././hal/sam3u1c/inc/sam3u/osc.h **** 		break;
 176:.././hal/sam3u1c/inc/sam3u/osc.h **** 	}
 177:.././hal/sam3u1c/inc/sam3u/osc.h **** }
 178:.././hal/sam3u1c/inc/sam3u/osc.h **** 
 179:.././hal/sam3u1c/inc/sam3u/osc.h **** static inline bool osc_is_ready(uint32_t ul_id)
 180:.././hal/sam3u1c/inc/sam3u/osc.h **** {
 158              	 .loc 1 180 0
 159              	 .cfi_startproc
 160              	 
 161              	 
 162 0000 80B5     	 push {r7,lr}
 163              	.LCFI5:
 164              	 .cfi_def_cfa_offset 8
 165              	 .cfi_offset 7,-8
 166              	 .cfi_offset 14,-4
 167 0002 82B0     	 sub sp,sp,#8
 168              	.LCFI6:
 169              	 .cfi_def_cfa_offset 16
 170 0004 00AF     	 add r7,sp,#0
 171              	.LCFI7:
 172              	 .cfi_def_cfa_register 7
 173 0006 7860     	 str r0,[r7,#4]
 181:.././hal/sam3u1c/inc/sam3u/osc.h **** 	switch (ul_id) {
 174              	 .loc 1 181 0
 175 0008 7B68     	 ldr r3,[r7,#4]
 176 000a 072B     	 cmp r3,#7
 177 000c 2FD8     	 bhi .L17
 178 000e 01A2     	 adr r2,.L19
 179 0010 52F823F0 	 ldr pc,[r2,r3,lsl#2]
 180              	 .p2align 2
 181              	.L19:
 182 0014 35000000 	 .word .L18+1
 183 0018 39000000 	 .word .L20+1
 184 001c 39000000 	 .word .L20+1
 185 0020 4B000000 	 .word .L21+1
 186 0024 4B000000 	 .word .L21+1
 187 0028 4B000000 	 .word .L21+1
 188 002c 5D000000 	 .word .L22+1
 189 0030 5D000000 	 .word .L22+1
 190              	 .p2align 1
 191              	.L18:
 182:.././hal/sam3u1c/inc/sam3u/osc.h **** 	case OSC_SLCK_32K_RC:
 183:.././hal/sam3u1c/inc/sam3u/osc.h **** 		return 1;
 192              	 .loc 1 183 0
 193 0034 0123     	 movs r3,#1
 194 0036 1BE0     	 b .L23
 195              	.L20:
 184:.././hal/sam3u1c/inc/sam3u/osc.h **** 
 185:.././hal/sam3u1c/inc/sam3u/osc.h **** 	case OSC_SLCK_32K_XTAL:
 186:.././hal/sam3u1c/inc/sam3u/osc.h **** 	case OSC_SLCK_32K_BYPASS:
 187:.././hal/sam3u1c/inc/sam3u/osc.h **** 		return pmc_osc_is_ready_32kxtal();
 196              	 .loc 1 187 0
 197 0038 0F4B     	 ldr r3,.L24
 198 003a 9847     	 blx r3
 199              	.LVL7:
 200 003c 0346     	 mov r3,r0
 201 003e 002B     	 cmp r3,#0
 202 0040 14BF     	 ite ne
 203 0042 0123     	 movne r3,#1
 204 0044 0023     	 moveq r3,#0
 205 0046 DBB2     	 uxtb r3,r3
 206 0048 12E0     	 b .L23
 207              	.L21:
 188:.././hal/sam3u1c/inc/sam3u/osc.h **** 
 189:.././hal/sam3u1c/inc/sam3u/osc.h **** 	case OSC_MAINCK_4M_RC:
 190:.././hal/sam3u1c/inc/sam3u/osc.h **** 	case OSC_MAINCK_8M_RC:
 191:.././hal/sam3u1c/inc/sam3u/osc.h **** 	case OSC_MAINCK_12M_RC:
 192:.././hal/sam3u1c/inc/sam3u/osc.h **** 		return pmc_osc_is_ready_fastrc();
 208              	 .loc 1 192 0
 209 004a 0C4B     	 ldr r3,.L24+4
 210 004c 9847     	 blx r3
 211              	.LVL8:
 212 004e 0346     	 mov r3,r0
 213 0050 002B     	 cmp r3,#0
 214 0052 14BF     	 ite ne
 215 0054 0123     	 movne r3,#1
 216 0056 0023     	 moveq r3,#0
 217 0058 DBB2     	 uxtb r3,r3
 218 005a 09E0     	 b .L23
 219              	.L22:
 193:.././hal/sam3u1c/inc/sam3u/osc.h **** 
 194:.././hal/sam3u1c/inc/sam3u/osc.h **** 	case OSC_MAINCK_XTAL:
 195:.././hal/sam3u1c/inc/sam3u/osc.h **** 	case OSC_MAINCK_BYPASS:
 196:.././hal/sam3u1c/inc/sam3u/osc.h **** 		return pmc_osc_is_ready_main_xtal();
 220              	 .loc 1 196 0
 221 005c 084B     	 ldr r3,.L24+8
 222 005e 9847     	 blx r3
 223              	.LVL9:
 224 0060 0346     	 mov r3,r0
 225 0062 002B     	 cmp r3,#0
 226 0064 14BF     	 ite ne
 227 0066 0123     	 movne r3,#1
 228 0068 0023     	 moveq r3,#0
 229 006a DBB2     	 uxtb r3,r3
 230 006c 00E0     	 b .L23
 231              	.L17:
 197:.././hal/sam3u1c/inc/sam3u/osc.h **** 	}
 198:.././hal/sam3u1c/inc/sam3u/osc.h **** 
 199:.././hal/sam3u1c/inc/sam3u/osc.h **** 	return 0;
 232              	 .loc 1 199 0
 233 006e 0023     	 movs r3,#0
 234              	.L23:
 200:.././hal/sam3u1c/inc/sam3u/osc.h **** }
 235              	 .loc 1 200 0
 236 0070 1846     	 mov r0,r3
 237 0072 0837     	 adds r7,r7,#8
 238              	.LCFI8:
 239              	 .cfi_def_cfa_offset 8
 240 0074 BD46     	 mov sp,r7
 241              	.LCFI9:
 242              	 .cfi_def_cfa_register 13
 243              	 
 244 0076 80BD     	 pop {r7,pc}
 245              	.L25:
 246              	 .align 2
 247              	.L24:
 248 0078 00000000 	 .word pmc_osc_is_ready_32kxtal
 249 007c 00000000 	 .word pmc_osc_is_ready_fastrc
 250 0080 00000000 	 .word pmc_osc_is_ready_main_xtal
 251              	 .cfi_endproc
 252              	.LFE71:
 254              	 .section .text.osc_get_rate,"ax",%progbits
 255              	 .align 1
 256              	 .syntax unified
 257              	 .thumb
 258              	 .thumb_func
 259              	 .fpu softvfp
 261              	osc_get_rate:
 262              	.LFB72:
 201:.././hal/sam3u1c/inc/sam3u/osc.h **** 
 202:.././hal/sam3u1c/inc/sam3u/osc.h **** static inline uint32_t osc_get_rate(uint32_t ul_id)
 203:.././hal/sam3u1c/inc/sam3u/osc.h **** {
 263              	 .loc 1 203 0
 264              	 .cfi_startproc
 265              	 
 266              	 
 267              	 
 268 0000 80B4     	 push {r7}
 269              	.LCFI10:
 270              	 .cfi_def_cfa_offset 4
 271              	 .cfi_offset 7,-4
 272 0002 83B0     	 sub sp,sp,#12
 273              	.LCFI11:
 274              	 .cfi_def_cfa_offset 16
 275 0004 00AF     	 add r7,sp,#0
 276              	.LCFI12:
 277              	 .cfi_def_cfa_register 7
 278 0006 7860     	 str r0,[r7,#4]
 204:.././hal/sam3u1c/inc/sam3u/osc.h **** 	switch (ul_id) {
 279              	 .loc 1 204 0
 280 0008 7B68     	 ldr r3,[r7,#4]
 281 000a 072B     	 cmp r3,#7
 282 000c 23D8     	 bhi .L27
 283 000e 01A2     	 adr r2,.L29
 284 0010 52F823F0 	 ldr pc,[r2,r3,lsl#2]
 285              	 .p2align 2
 286              	.L29:
 287 0014 35000000 	 .word .L28+1
 288 0018 3B000000 	 .word .L30+1
 289 001c 3F000000 	 .word .L31+1
 290 0020 43000000 	 .word .L32+1
 291 0024 47000000 	 .word .L33+1
 292 0028 4B000000 	 .word .L34+1
 293 002c 4F000000 	 .word .L35+1
 294 0030 53000000 	 .word .L36+1
 295              	 .p2align 1
 296              	.L28:
 205:.././hal/sam3u1c/inc/sam3u/osc.h **** 	case OSC_SLCK_32K_RC:
 206:.././hal/sam3u1c/inc/sam3u/osc.h **** 		return OSC_SLCK_32K_RC_HZ;
 297              	 .loc 1 206 0
 298 0034 4FF4FA43 	 mov r3,#32000
 299 0038 0EE0     	 b .L37
 300              	.L30:
 207:.././hal/sam3u1c/inc/sam3u/osc.h **** 
 208:.././hal/sam3u1c/inc/sam3u/osc.h **** 	case OSC_SLCK_32K_XTAL:
 209:.././hal/sam3u1c/inc/sam3u/osc.h **** 		return BOARD_FREQ_SLCK_XTAL;
 301              	 .loc 1 209 0
 302 003a 0023     	 movs r3,#0
 303 003c 0CE0     	 b .L37
 304              	.L31:
 210:.././hal/sam3u1c/inc/sam3u/osc.h **** 
 211:.././hal/sam3u1c/inc/sam3u/osc.h **** 	case OSC_SLCK_32K_BYPASS:
 212:.././hal/sam3u1c/inc/sam3u/osc.h **** 		return BOARD_FREQ_SLCK_BYPASS;
 305              	 .loc 1 212 0
 306 003e 0023     	 movs r3,#0
 307 0040 0AE0     	 b .L37
 308              	.L32:
 213:.././hal/sam3u1c/inc/sam3u/osc.h **** 
 214:.././hal/sam3u1c/inc/sam3u/osc.h **** 	case OSC_MAINCK_4M_RC:
 215:.././hal/sam3u1c/inc/sam3u/osc.h **** 		return OSC_MAINCK_4M_RC_HZ;
 309              	 .loc 1 215 0
 310 0042 084B     	 ldr r3,.L38
 311 0044 08E0     	 b .L37
 312              	.L33:
 216:.././hal/sam3u1c/inc/sam3u/osc.h **** 
 217:.././hal/sam3u1c/inc/sam3u/osc.h **** 	case OSC_MAINCK_8M_RC:
 218:.././hal/sam3u1c/inc/sam3u/osc.h **** 		return OSC_MAINCK_8M_RC_HZ;
 313              	 .loc 1 218 0
 314 0046 084B     	 ldr r3,.L38+4
 315 0048 06E0     	 b .L37
 316              	.L34:
 219:.././hal/sam3u1c/inc/sam3u/osc.h **** 
 220:.././hal/sam3u1c/inc/sam3u/osc.h **** 	case OSC_MAINCK_12M_RC:
 221:.././hal/sam3u1c/inc/sam3u/osc.h **** 		return OSC_MAINCK_12M_RC_HZ;
 317              	 .loc 1 221 0
 318 004a 084B     	 ldr r3,.L38+8
 319 004c 04E0     	 b .L37
 320              	.L35:
 222:.././hal/sam3u1c/inc/sam3u/osc.h **** 
 223:.././hal/sam3u1c/inc/sam3u/osc.h **** 	case OSC_MAINCK_XTAL:
 224:.././hal/sam3u1c/inc/sam3u/osc.h **** 		return BOARD_FREQ_MAINCK_XTAL;
 321              	 .loc 1 224 0
 322 004e 074B     	 ldr r3,.L38+8
 323 0050 02E0     	 b .L37
 324              	.L36:
 225:.././hal/sam3u1c/inc/sam3u/osc.h **** 
 226:.././hal/sam3u1c/inc/sam3u/osc.h **** 	case OSC_MAINCK_BYPASS:
 227:.././hal/sam3u1c/inc/sam3u/osc.h **** 		return BOARD_FREQ_MAINCK_BYPASS;
 325              	 .loc 1 227 0
 326 0052 064B     	 ldr r3,.L38+8
 327 0054 00E0     	 b .L37
 328              	.L27:
 228:.././hal/sam3u1c/inc/sam3u/osc.h **** 	}
 229:.././hal/sam3u1c/inc/sam3u/osc.h **** 
 230:.././hal/sam3u1c/inc/sam3u/osc.h **** 	return 0;
 329              	 .loc 1 230 0
 330 0056 0023     	 movs r3,#0
 331              	.L37:
 231:.././hal/sam3u1c/inc/sam3u/osc.h **** }
 332              	 .loc 1 231 0
 333 0058 1846     	 mov r0,r3
 334 005a 0C37     	 adds r7,r7,#12
 335              	.LCFI13:
 336              	 .cfi_def_cfa_offset 4
 337 005c BD46     	 mov sp,r7
 338              	.LCFI14:
 339              	 .cfi_def_cfa_register 13
 340              	 
 341 005e 80BC     	 pop {r7}
 342              	.LCFI15:
 343              	 .cfi_restore 7
 344              	 .cfi_def_cfa_offset 0
 345 0060 7047     	 bx lr
 346              	.L39:
 347 0062 00BF     	 .align 2
 348              	.L38:
 349 0064 00093D00 	 .word 4000000
 350 0068 00127A00 	 .word 8000000
 351 006c 001BB700 	 .word 12000000
 352              	 .cfi_endproc
 353              	.LFE72:
 355              	 .section .text.osc_wait_ready,"ax",%progbits
 356              	 .align 1
 357              	 .syntax unified
 358              	 .thumb
 359              	 .thumb_func
 360              	 .fpu softvfp
 362              	osc_wait_ready:
 363              	.LFB73:
 364              	 .file 2 ".././hal/sam3u1c/inc/osc.h"
   1:.././hal/sam3u1c/inc/osc.h **** /**
   2:.././hal/sam3u1c/inc/osc.h ****  * \file
   3:.././hal/sam3u1c/inc/osc.h ****  *
   4:.././hal/sam3u1c/inc/osc.h ****  * \brief Oscillator management
   5:.././hal/sam3u1c/inc/osc.h ****  *
   6:.././hal/sam3u1c/inc/osc.h ****  * Copyright (c) 2010-2014 Atmel Corporation. All rights reserved.
   7:.././hal/sam3u1c/inc/osc.h ****  *
   8:.././hal/sam3u1c/inc/osc.h ****  * \asf_license_start
   9:.././hal/sam3u1c/inc/osc.h ****  *
  10:.././hal/sam3u1c/inc/osc.h ****  * \page License
  11:.././hal/sam3u1c/inc/osc.h ****  *
  12:.././hal/sam3u1c/inc/osc.h ****  * Redistribution and use in source and binary forms, with or without
  13:.././hal/sam3u1c/inc/osc.h ****  * modification, are permitted provided that the following conditions are met:
  14:.././hal/sam3u1c/inc/osc.h ****  *
  15:.././hal/sam3u1c/inc/osc.h ****  * 1. Redistributions of source code must retain the above copyright notice,
  16:.././hal/sam3u1c/inc/osc.h ****  *    this list of conditions and the following disclaimer.
  17:.././hal/sam3u1c/inc/osc.h ****  *
  18:.././hal/sam3u1c/inc/osc.h ****  * 2. Redistributions in binary form must reproduce the above copyright notice,
  19:.././hal/sam3u1c/inc/osc.h ****  *    this list of conditions and the following disclaimer in the documentation
  20:.././hal/sam3u1c/inc/osc.h ****  *    and/or other materials provided with the distribution.
  21:.././hal/sam3u1c/inc/osc.h ****  *
  22:.././hal/sam3u1c/inc/osc.h ****  * 3. The name of Atmel may not be used to endorse or promote products derived
  23:.././hal/sam3u1c/inc/osc.h ****  *    from this software without specific prior written permission.
  24:.././hal/sam3u1c/inc/osc.h ****  *
  25:.././hal/sam3u1c/inc/osc.h ****  * 4. This software may only be redistributed and used in connection with an
  26:.././hal/sam3u1c/inc/osc.h ****  *    Atmel microcontroller product.
  27:.././hal/sam3u1c/inc/osc.h ****  *
  28:.././hal/sam3u1c/inc/osc.h ****  * THIS SOFTWARE IS PROVIDED BY ATMEL "AS IS" AND ANY EXPRESS OR IMPLIED
  29:.././hal/sam3u1c/inc/osc.h ****  * WARRANTIES, INCLUDING, BUT NOT LIMITED TO, THE IMPLIED WARRANTIES OF
  30:.././hal/sam3u1c/inc/osc.h ****  * MERCHANTABILITY, FITNESS FOR A PARTICULAR PURPOSE AND NON-INFRINGEMENT ARE
  31:.././hal/sam3u1c/inc/osc.h ****  * EXPRESSLY AND SPECIFICALLY DISCLAIMED. IN NO EVENT SHALL ATMEL BE LIABLE FOR
  32:.././hal/sam3u1c/inc/osc.h ****  * ANY DIRECT, INDIRECT, INCIDENTAL, SPECIAL, EXEMPLARY, OR CONSEQUENTIAL
  33:.././hal/sam3u1c/inc/osc.h ****  * DAMAGES (INCLUDING, BUT NOT LIMITED TO, PROCUREMENT OF SUBSTITUTE GOODS
  34:.././hal/sam3u1c/inc/osc.h ****  * OR SERVICES; LOSS OF USE, DATA, OR PROFITS; OR BUSINESS INTERRUPTION)
  35:.././hal/sam3u1c/inc/osc.h ****  * HOWEVER CAUSED AND ON ANY THEORY OF LIABILITY, WHETHER IN CONTRACT,
  36:.././hal/sam3u1c/inc/osc.h ****  * STRICT LIABILITY, OR TORT (INCLUDING NEGLIGENCE OR OTHERWISE) ARISING IN
  37:.././hal/sam3u1c/inc/osc.h ****  * ANY WAY OUT OF THE USE OF THIS SOFTWARE, EVEN IF ADVISED OF THE
  38:.././hal/sam3u1c/inc/osc.h ****  * POSSIBILITY OF SUCH DAMAGE.
  39:.././hal/sam3u1c/inc/osc.h ****  *
  40:.././hal/sam3u1c/inc/osc.h ****  * \asf_license_stop
  41:.././hal/sam3u1c/inc/osc.h ****  *
  42:.././hal/sam3u1c/inc/osc.h ****  */
  43:.././hal/sam3u1c/inc/osc.h **** #ifndef OSC_H_INCLUDED
  44:.././hal/sam3u1c/inc/osc.h **** #define OSC_H_INCLUDED
  45:.././hal/sam3u1c/inc/osc.h **** 
  46:.././hal/sam3u1c/inc/osc.h **** #include "parts.h"
  47:.././hal/sam3u1c/inc/osc.h **** #include "conf_clock.h"
  48:.././hal/sam3u1c/inc/osc.h **** 
  49:.././hal/sam3u1c/inc/osc.h **** #if SAM3S
  50:.././hal/sam3u1c/inc/osc.h **** # include "sam3s/osc.h"
  51:.././hal/sam3u1c/inc/osc.h **** #elif SAM3XA
  52:.././hal/sam3u1c/inc/osc.h **** # include "sam3x/osc.h"
  53:.././hal/sam3u1c/inc/osc.h **** #elif SAM3U
  54:.././hal/sam3u1c/inc/osc.h **** # include "sam3u/osc.h"
  55:.././hal/sam3u1c/inc/osc.h **** #elif SAM3N
  56:.././hal/sam3u1c/inc/osc.h **** # include "sam3n/osc.h"
  57:.././hal/sam3u1c/inc/osc.h **** #elif SAM4S
  58:.././hal/sam3u1c/inc/osc.h **** # include "sam4s/osc.h"
  59:.././hal/sam3u1c/inc/osc.h **** #elif SAM4E
  60:.././hal/sam3u1c/inc/osc.h **** # include "sam4e/osc.h"
  61:.././hal/sam3u1c/inc/osc.h **** #elif SAM4C
  62:.././hal/sam3u1c/inc/osc.h **** # include "sam4c/osc.h"
  63:.././hal/sam3u1c/inc/osc.h **** #elif SAM4CM
  64:.././hal/sam3u1c/inc/osc.h **** # include "sam4cm/osc.h"
  65:.././hal/sam3u1c/inc/osc.h **** #elif SAM4CP
  66:.././hal/sam3u1c/inc/osc.h **** # include "sam4cp/osc.h"
  67:.././hal/sam3u1c/inc/osc.h **** #elif SAM4L
  68:.././hal/sam3u1c/inc/osc.h **** # include "sam4l/osc.h"
  69:.././hal/sam3u1c/inc/osc.h **** #elif SAM4N
  70:.././hal/sam3u1c/inc/osc.h **** # include "sam4n/osc.h"
  71:.././hal/sam3u1c/inc/osc.h **** #elif SAMG
  72:.././hal/sam3u1c/inc/osc.h **** # include "samg/osc.h"
  73:.././hal/sam3u1c/inc/osc.h **** #elif (UC3A0 || UC3A1)
  74:.././hal/sam3u1c/inc/osc.h **** # include "uc3a0_a1/osc.h"
  75:.././hal/sam3u1c/inc/osc.h **** #elif UC3A3
  76:.././hal/sam3u1c/inc/osc.h **** # include "uc3a3_a4/osc.h"
  77:.././hal/sam3u1c/inc/osc.h **** #elif UC3B
  78:.././hal/sam3u1c/inc/osc.h **** # include "uc3b0_b1/osc.h"
  79:.././hal/sam3u1c/inc/osc.h **** #elif UC3C
  80:.././hal/sam3u1c/inc/osc.h **** # include "uc3c/osc.h"
  81:.././hal/sam3u1c/inc/osc.h **** #elif UC3D
  82:.././hal/sam3u1c/inc/osc.h **** # include "uc3d/osc.h"
  83:.././hal/sam3u1c/inc/osc.h **** #elif UC3L
  84:.././hal/sam3u1c/inc/osc.h **** # include "uc3l/osc.h"
  85:.././hal/sam3u1c/inc/osc.h **** #elif XMEGA
  86:.././hal/sam3u1c/inc/osc.h **** # include "xmega/osc.h"
  87:.././hal/sam3u1c/inc/osc.h **** #else
  88:.././hal/sam3u1c/inc/osc.h **** # error Unsupported chip type
  89:.././hal/sam3u1c/inc/osc.h **** #endif
  90:.././hal/sam3u1c/inc/osc.h **** 
  91:.././hal/sam3u1c/inc/osc.h **** /**
  92:.././hal/sam3u1c/inc/osc.h ****  * \ingroup clk_group
  93:.././hal/sam3u1c/inc/osc.h ****  * \defgroup osc_group Oscillator Management
  94:.././hal/sam3u1c/inc/osc.h ****  *
  95:.././hal/sam3u1c/inc/osc.h ****  * This group contains functions and definitions related to configuring
  96:.././hal/sam3u1c/inc/osc.h ****  * and enabling/disabling on-chip oscillators. Internal RC-oscillators,
  97:.././hal/sam3u1c/inc/osc.h ****  * external crystal oscillators and external clock generators are
  98:.././hal/sam3u1c/inc/osc.h ****  * supported by this module. What all of these have in common is that
  99:.././hal/sam3u1c/inc/osc.h ****  * they swing at a fixed, nominal frequency which is normally not
 100:.././hal/sam3u1c/inc/osc.h ****  * adjustable.
 101:.././hal/sam3u1c/inc/osc.h ****  *
 102:.././hal/sam3u1c/inc/osc.h ****  * \par Example: Enabling an oscillator
 103:.././hal/sam3u1c/inc/osc.h ****  *
 104:.././hal/sam3u1c/inc/osc.h ****  * The following example demonstrates how to enable the external
 105:.././hal/sam3u1c/inc/osc.h ****  * oscillator on XMEGA A and wait for it to be ready to use. The
 106:.././hal/sam3u1c/inc/osc.h ****  * oscillator identifiers are platform-specific, so while the same
 107:.././hal/sam3u1c/inc/osc.h ****  * procedure is used on all platforms, the parameter to osc_enable()
 108:.././hal/sam3u1c/inc/osc.h ****  * will be different from device to device.
 109:.././hal/sam3u1c/inc/osc.h ****  * \code
 110:.././hal/sam3u1c/inc/osc.h **** 	osc_enable(OSC_ID_XOSC);
 111:.././hal/sam3u1c/inc/osc.h **** 	osc_wait_ready(OSC_ID_XOSC); \endcode
 112:.././hal/sam3u1c/inc/osc.h ****  *
 113:.././hal/sam3u1c/inc/osc.h ****  * \section osc_group_board Board-specific Definitions
 114:.././hal/sam3u1c/inc/osc.h ****  * If external oscillators are used, the board code must provide the
 115:.././hal/sam3u1c/inc/osc.h ****  * following definitions for each of those:
 116:.././hal/sam3u1c/inc/osc.h ****  *   - \b BOARD_<osc name>_HZ: The nominal frequency of the oscillator.
 117:.././hal/sam3u1c/inc/osc.h ****  *   - \b BOARD_<osc name>_STARTUP_US: The startup time of the
 118:.././hal/sam3u1c/inc/osc.h ****  *     oscillator in microseconds.
 119:.././hal/sam3u1c/inc/osc.h ****  *   - \b BOARD_<osc name>_TYPE: The type of oscillator connected, i.e.
 120:.././hal/sam3u1c/inc/osc.h ****  *     whether it's a crystal or external clock, and sometimes what kind
 121:.././hal/sam3u1c/inc/osc.h ****  *     of crystal it is. The meaning of this value is platform-specific.
 122:.././hal/sam3u1c/inc/osc.h ****  *
 123:.././hal/sam3u1c/inc/osc.h ****  * @{
 124:.././hal/sam3u1c/inc/osc.h ****  */
 125:.././hal/sam3u1c/inc/osc.h **** 
 126:.././hal/sam3u1c/inc/osc.h **** //! \name Oscillator Management
 127:.././hal/sam3u1c/inc/osc.h **** //@{
 128:.././hal/sam3u1c/inc/osc.h **** /**
 129:.././hal/sam3u1c/inc/osc.h ****  * \fn void osc_enable(uint8_t id)
 130:.././hal/sam3u1c/inc/osc.h ****  * \brief Enable oscillator \a id
 131:.././hal/sam3u1c/inc/osc.h ****  *
 132:.././hal/sam3u1c/inc/osc.h ****  * The startup time and mode value is automatically determined based on
 133:.././hal/sam3u1c/inc/osc.h ****  * definitions in the board code.
 134:.././hal/sam3u1c/inc/osc.h ****  */
 135:.././hal/sam3u1c/inc/osc.h **** /**
 136:.././hal/sam3u1c/inc/osc.h ****  * \fn void osc_disable(uint8_t id)
 137:.././hal/sam3u1c/inc/osc.h ****  * \brief Disable oscillator \a id
 138:.././hal/sam3u1c/inc/osc.h ****  */
 139:.././hal/sam3u1c/inc/osc.h **** /**
 140:.././hal/sam3u1c/inc/osc.h ****  * \fn osc_is_ready(uint8_t id)
 141:.././hal/sam3u1c/inc/osc.h ****  * \brief Determine whether oscillator \a id is ready.
 142:.././hal/sam3u1c/inc/osc.h ****  * \retval true Oscillator \a id is running and ready to use as a clock
 143:.././hal/sam3u1c/inc/osc.h ****  * source.
 144:.././hal/sam3u1c/inc/osc.h ****  * \retval false Oscillator \a id is not running.
 145:.././hal/sam3u1c/inc/osc.h ****  */
 146:.././hal/sam3u1c/inc/osc.h **** /**
 147:.././hal/sam3u1c/inc/osc.h ****  * \fn uint32_t osc_get_rate(uint8_t id)
 148:.././hal/sam3u1c/inc/osc.h ****  * \brief Return the frequency of oscillator \a id in Hz
 149:.././hal/sam3u1c/inc/osc.h ****  */
 150:.././hal/sam3u1c/inc/osc.h **** 
 151:.././hal/sam3u1c/inc/osc.h **** #ifndef __ASSEMBLY__
 152:.././hal/sam3u1c/inc/osc.h **** 
 153:.././hal/sam3u1c/inc/osc.h **** /**
 154:.././hal/sam3u1c/inc/osc.h ****  * \brief Wait until the oscillator identified by \a id is ready
 155:.././hal/sam3u1c/inc/osc.h ****  *
 156:.././hal/sam3u1c/inc/osc.h ****  * This function will busy-wait for the oscillator identified by \a id
 157:.././hal/sam3u1c/inc/osc.h ****  * to become stable and ready to use as a clock source.
 158:.././hal/sam3u1c/inc/osc.h ****  *
 159:.././hal/sam3u1c/inc/osc.h ****  * \param id A number identifying the oscillator to wait for.
 160:.././hal/sam3u1c/inc/osc.h ****  */
 161:.././hal/sam3u1c/inc/osc.h **** static inline void osc_wait_ready(uint8_t id)
 162:.././hal/sam3u1c/inc/osc.h **** {
 365              	 .loc 2 162 0
 366              	 .cfi_startproc
 367              	 
 368              	 
 369 0000 80B5     	 push {r7,lr}
 370              	.LCFI16:
 371              	 .cfi_def_cfa_offset 8
 372              	 .cfi_offset 7,-8
 373              	 .cfi_offset 14,-4
 374 0002 82B0     	 sub sp,sp,#8
 375              	.LCFI17:
 376              	 .cfi_def_cfa_offset 16
 377 0004 00AF     	 add r7,sp,#0
 378              	.LCFI18:
 379              	 .cfi_def_cfa_register 7
 380 0006 0346     	 mov r3,r0
 381 0008 FB71     	 strb r3,[r7,#7]
 163:.././hal/sam3u1c/inc/osc.h **** 	while (!osc_is_ready(id)) {
 382              	 .loc 2 163 0
 383 000a 00BF     	 nop
 384              	.L41:
 385              	 .loc 2 163 0 is_stmt 0 discriminator 1
 386 000c FB79     	 ldrb r3,[r7,#7]
 387 000e 1846     	 mov r0,r3
 388 0010 054B     	 ldr r3,.L42
 389 0012 9847     	 blx r3
 390              	.LVL10:
 391 0014 0346     	 mov r3,r0
 392 0016 83F00103 	 eor r3,r3,#1
 393 001a DBB2     	 uxtb r3,r3
 394 001c 002B     	 cmp r3,#0
 395 001e F5D1     	 bne .L41
 164:.././hal/sam3u1c/inc/osc.h **** 		/* Do nothing */
 165:.././hal/sam3u1c/inc/osc.h **** 	}
 166:.././hal/sam3u1c/inc/osc.h **** }
 396              	 .loc 2 166 0 is_stmt 1
 397 0020 00BF     	 nop
 398 0022 0837     	 adds r7,r7,#8
 399              	.LCFI19:
 400              	 .cfi_def_cfa_offset 8
 401 0024 BD46     	 mov sp,r7
 402              	.LCFI20:
 403              	 .cfi_def_cfa_register 13
 404              	 
 405 0026 80BD     	 pop {r7,pc}
 406              	.L43:
 407              	 .align 2
 408              	.L42:
 409 0028 00000000 	 .word osc_is_ready
 410              	 .cfi_endproc
 411              	.LFE73:
 413              	 .section .text.pll_config_init,"ax",%progbits
 414              	 .align 1
 415              	 .syntax unified
 416              	 .thumb
 417              	 .thumb_func
 418              	 .fpu softvfp
 420              	pll_config_init:
 421              	.LFB74:
 422              	 .file 3 ".././hal/sam3u1c/inc/sam3u/pll.h"
   1:.././hal/sam3u1c/inc/sam3u/pll.h **** /**
   2:.././hal/sam3u1c/inc/sam3u/pll.h ****  * \file
   3:.././hal/sam3u1c/inc/sam3u/pll.h ****  *
   4:.././hal/sam3u1c/inc/sam3u/pll.h ****  * \brief Chip-specific PLL definitions.
   5:.././hal/sam3u1c/inc/sam3u/pll.h ****  *
   6:.././hal/sam3u1c/inc/sam3u/pll.h ****  * Copyright (c) 2011 - 2013 Atmel Corporation. All rights reserved.
   7:.././hal/sam3u1c/inc/sam3u/pll.h ****  *
   8:.././hal/sam3u1c/inc/sam3u/pll.h ****  * \asf_license_start
   9:.././hal/sam3u1c/inc/sam3u/pll.h ****  *
  10:.././hal/sam3u1c/inc/sam3u/pll.h ****  * \page License
  11:.././hal/sam3u1c/inc/sam3u/pll.h ****  *
  12:.././hal/sam3u1c/inc/sam3u/pll.h ****  * Redistribution and use in source and binary forms, with or without
  13:.././hal/sam3u1c/inc/sam3u/pll.h ****  * modification, are permitted provided that the following conditions are met:
  14:.././hal/sam3u1c/inc/sam3u/pll.h ****  *
  15:.././hal/sam3u1c/inc/sam3u/pll.h ****  * 1. Redistributions of source code must retain the above copyright notice,
  16:.././hal/sam3u1c/inc/sam3u/pll.h ****  *    this list of conditions and the following disclaimer.
  17:.././hal/sam3u1c/inc/sam3u/pll.h ****  *
  18:.././hal/sam3u1c/inc/sam3u/pll.h ****  * 2. Redistributions in binary form must reproduce the above copyright notice,
  19:.././hal/sam3u1c/inc/sam3u/pll.h ****  *    this list of conditions and the following disclaimer in the documentation
  20:.././hal/sam3u1c/inc/sam3u/pll.h ****  *    and/or other materials provided with the distribution.
  21:.././hal/sam3u1c/inc/sam3u/pll.h ****  *
  22:.././hal/sam3u1c/inc/sam3u/pll.h ****  * 3. The name of Atmel may not be used to endorse or promote products derived
  23:.././hal/sam3u1c/inc/sam3u/pll.h ****  *    from this software without specific prior written permission.
  24:.././hal/sam3u1c/inc/sam3u/pll.h ****  *
  25:.././hal/sam3u1c/inc/sam3u/pll.h ****  * 4. This software may only be redistributed and used in connection with an
  26:.././hal/sam3u1c/inc/sam3u/pll.h ****  *    Atmel microcontroller product.
  27:.././hal/sam3u1c/inc/sam3u/pll.h ****  *
  28:.././hal/sam3u1c/inc/sam3u/pll.h ****  * THIS SOFTWARE IS PROVIDED BY ATMEL "AS IS" AND ANY EXPRESS OR IMPLIED
  29:.././hal/sam3u1c/inc/sam3u/pll.h ****  * WARRANTIES, INCLUDING, BUT NOT LIMITED TO, THE IMPLIED WARRANTIES OF
  30:.././hal/sam3u1c/inc/sam3u/pll.h ****  * MERCHANTABILITY, FITNESS FOR A PARTICULAR PURPOSE AND NON-INFRINGEMENT ARE
  31:.././hal/sam3u1c/inc/sam3u/pll.h ****  * EXPRESSLY AND SPECIFICALLY DISCLAIMED. IN NO EVENT SHALL ATMEL BE LIABLE FOR
  32:.././hal/sam3u1c/inc/sam3u/pll.h ****  * ANY DIRECT, INDIRECT, INCIDENTAL, SPECIAL, EXEMPLARY, OR CONSEQUENTIAL
  33:.././hal/sam3u1c/inc/sam3u/pll.h ****  * DAMAGES (INCLUDING, BUT NOT LIMITED TO, PROCUREMENT OF SUBSTITUTE GOODS
  34:.././hal/sam3u1c/inc/sam3u/pll.h ****  * OR SERVICES; LOSS OF USE, DATA, OR PROFITS; OR BUSINESS INTERRUPTION)
  35:.././hal/sam3u1c/inc/sam3u/pll.h ****  * HOWEVER CAUSED AND ON ANY THEORY OF LIABILITY, WHETHER IN CONTRACT,
  36:.././hal/sam3u1c/inc/sam3u/pll.h ****  * STRICT LIABILITY, OR TORT (INCLUDING NEGLIGENCE OR OTHERWISE) ARISING IN
  37:.././hal/sam3u1c/inc/sam3u/pll.h ****  * ANY WAY OUT OF THE USE OF THIS SOFTWARE, EVEN IF ADVISED OF THE
  38:.././hal/sam3u1c/inc/sam3u/pll.h ****  * POSSIBILITY OF SUCH DAMAGE.
  39:.././hal/sam3u1c/inc/sam3u/pll.h ****  *
  40:.././hal/sam3u1c/inc/sam3u/pll.h ****  * \asf_license_stop
  41:.././hal/sam3u1c/inc/sam3u/pll.h ****  *
  42:.././hal/sam3u1c/inc/sam3u/pll.h ****  */
  43:.././hal/sam3u1c/inc/sam3u/pll.h **** 
  44:.././hal/sam3u1c/inc/sam3u/pll.h **** #ifndef CHIP_PLL_H_INCLUDED
  45:.././hal/sam3u1c/inc/sam3u/pll.h **** #define CHIP_PLL_H_INCLUDED
  46:.././hal/sam3u1c/inc/sam3u/pll.h **** 
  47:.././hal/sam3u1c/inc/sam3u/pll.h **** #include <osc.h>
  48:.././hal/sam3u1c/inc/sam3u/pll.h **** 
  49:.././hal/sam3u1c/inc/sam3u/pll.h **** /// @cond 0
  50:.././hal/sam3u1c/inc/sam3u/pll.h **** /**INDENT-OFF**/
  51:.././hal/sam3u1c/inc/sam3u/pll.h **** #ifdef __cplusplus
  52:.././hal/sam3u1c/inc/sam3u/pll.h **** extern "C" {
  53:.././hal/sam3u1c/inc/sam3u/pll.h **** #endif
  54:.././hal/sam3u1c/inc/sam3u/pll.h **** /**INDENT-ON**/
  55:.././hal/sam3u1c/inc/sam3u/pll.h **** /// @endcond
  56:.././hal/sam3u1c/inc/sam3u/pll.h **** 
  57:.././hal/sam3u1c/inc/sam3u/pll.h **** /**
  58:.././hal/sam3u1c/inc/sam3u/pll.h ****  * \weakgroup pll_group
  59:.././hal/sam3u1c/inc/sam3u/pll.h ****  * @{
  60:.././hal/sam3u1c/inc/sam3u/pll.h ****  */
  61:.././hal/sam3u1c/inc/sam3u/pll.h **** 
  62:.././hal/sam3u1c/inc/sam3u/pll.h **** #define PLL_OUTPUT_MIN_HZ   96000000
  63:.././hal/sam3u1c/inc/sam3u/pll.h **** #define PLL_OUTPUT_MAX_HZ   192000000
  64:.././hal/sam3u1c/inc/sam3u/pll.h **** 
  65:.././hal/sam3u1c/inc/sam3u/pll.h **** #define PLL_INPUT_MIN_HZ    8000000
  66:.././hal/sam3u1c/inc/sam3u/pll.h **** #define PLL_INPUT_MAX_HZ    16000000
  67:.././hal/sam3u1c/inc/sam3u/pll.h **** 
  68:.././hal/sam3u1c/inc/sam3u/pll.h **** #define NR_PLLS             2
  69:.././hal/sam3u1c/inc/sam3u/pll.h **** #define PLLA_ID             0
  70:.././hal/sam3u1c/inc/sam3u/pll.h **** #define UPLL_ID             1   //!< USB UTMI PLL.
  71:.././hal/sam3u1c/inc/sam3u/pll.h **** 
  72:.././hal/sam3u1c/inc/sam3u/pll.h **** #define PLL_UPLL_HZ         480000000
  73:.././hal/sam3u1c/inc/sam3u/pll.h **** 
  74:.././hal/sam3u1c/inc/sam3u/pll.h **** #define PLL_COUNT           0x3fU
  75:.././hal/sam3u1c/inc/sam3u/pll.h **** 
  76:.././hal/sam3u1c/inc/sam3u/pll.h **** enum pll_source {
  77:.././hal/sam3u1c/inc/sam3u/pll.h **** 	PLL_SRC_MAINCK_4M_RC  = OSC_MAINCK_4M_RC,     //!< Internal 4MHz RC oscillator.
  78:.././hal/sam3u1c/inc/sam3u/pll.h **** 	PLL_SRC_MAINCK_8M_RC  = OSC_MAINCK_8M_RC,     //!< Internal 8MHz RC oscillator.
  79:.././hal/sam3u1c/inc/sam3u/pll.h **** 	PLL_SRC_MAINCK_12M_RC = OSC_MAINCK_12M_RC,    //!< Internal 12MHz RC oscillator.
  80:.././hal/sam3u1c/inc/sam3u/pll.h **** 	PLL_SRC_MAINCK_XTAL   = OSC_MAINCK_XTAL,      //!< External crystal oscillator.
  81:.././hal/sam3u1c/inc/sam3u/pll.h **** 	PLL_SRC_MAINCK_BYPASS = OSC_MAINCK_BYPASS,    //!< External bypass oscillator.
  82:.././hal/sam3u1c/inc/sam3u/pll.h **** 	PLL_NR_SOURCES,                               //!< Number of PLL sources.
  83:.././hal/sam3u1c/inc/sam3u/pll.h **** };
  84:.././hal/sam3u1c/inc/sam3u/pll.h **** 
  85:.././hal/sam3u1c/inc/sam3u/pll.h **** struct pll_config {
  86:.././hal/sam3u1c/inc/sam3u/pll.h **** 	uint32_t ctrl;
  87:.././hal/sam3u1c/inc/sam3u/pll.h **** };
  88:.././hal/sam3u1c/inc/sam3u/pll.h **** 
  89:.././hal/sam3u1c/inc/sam3u/pll.h **** #define pll_get_default_rate(pll_id)                                       \
  90:.././hal/sam3u1c/inc/sam3u/pll.h **** 	((osc_get_rate(CONFIG_PLL##pll_id##_SOURCE)                        \
  91:.././hal/sam3u1c/inc/sam3u/pll.h **** 			* CONFIG_PLL##pll_id##_MUL)                        \
  92:.././hal/sam3u1c/inc/sam3u/pll.h **** 			/ CONFIG_PLL##pll_id##_DIV)
  93:.././hal/sam3u1c/inc/sam3u/pll.h **** 
  94:.././hal/sam3u1c/inc/sam3u/pll.h **** /* Force UTMI PLL parameters (Hardware defined) */
  95:.././hal/sam3u1c/inc/sam3u/pll.h **** #ifdef CONFIG_PLL1_SOURCE
  96:.././hal/sam3u1c/inc/sam3u/pll.h **** # undef CONFIG_PLL1_SOURCE
  97:.././hal/sam3u1c/inc/sam3u/pll.h **** #endif
  98:.././hal/sam3u1c/inc/sam3u/pll.h **** #ifdef CONFIG_PLL1_MUL
  99:.././hal/sam3u1c/inc/sam3u/pll.h **** # undef CONFIG_PLL1_MUL
 100:.././hal/sam3u1c/inc/sam3u/pll.h **** #endif
 101:.././hal/sam3u1c/inc/sam3u/pll.h **** #ifdef CONFIG_PLL1_DIV
 102:.././hal/sam3u1c/inc/sam3u/pll.h **** # undef CONFIG_PLL1_DIV
 103:.././hal/sam3u1c/inc/sam3u/pll.h **** #endif
 104:.././hal/sam3u1c/inc/sam3u/pll.h **** #define CONFIG_PLL1_SOURCE  PLL_SRC_MAINCK_XTAL
 105:.././hal/sam3u1c/inc/sam3u/pll.h **** #define CONFIG_PLL1_MUL     0
 106:.././hal/sam3u1c/inc/sam3u/pll.h **** #define CONFIG_PLL1_DIV     0
 107:.././hal/sam3u1c/inc/sam3u/pll.h **** 
 108:.././hal/sam3u1c/inc/sam3u/pll.h **** /**
 109:.././hal/sam3u1c/inc/sam3u/pll.h ****  * \note The SAM3U PLL hardware interprets mul as mul+1. For readability the
 110:.././hal/sam3u1c/inc/sam3u/pll.h ****  *       hardware mul+1 is hidden in this implementation. Use mul as mul
 111:.././hal/sam3u1c/inc/sam3u/pll.h ****  *       effective value.
 112:.././hal/sam3u1c/inc/sam3u/pll.h ****  */
 113:.././hal/sam3u1c/inc/sam3u/pll.h **** static inline void pll_config_init(struct pll_config *p_cfg,
 114:.././hal/sam3u1c/inc/sam3u/pll.h **** 		enum pll_source e_src, uint32_t ul_div, uint32_t ul_mul)
 115:.././hal/sam3u1c/inc/sam3u/pll.h **** {
 423              	 .loc 3 115 0
 424              	 .cfi_startproc
 425              	 
 426              	 
 427 0000 80B5     	 push {r7,lr}
 428              	.LCFI21:
 429              	 .cfi_def_cfa_offset 8
 430              	 .cfi_offset 7,-8
 431              	 .cfi_offset 14,-4
 432 0002 86B0     	 sub sp,sp,#24
 433              	.LCFI22:
 434              	 .cfi_def_cfa_offset 32
 435 0004 00AF     	 add r7,sp,#0
 436              	.LCFI23:
 437              	 .cfi_def_cfa_register 7
 438 0006 F860     	 str r0,[r7,#12]
 439 0008 7A60     	 str r2,[r7,#4]
 440 000a 3B60     	 str r3,[r7]
 441 000c 0B46     	 mov r3,r1
 442 000e FB72     	 strb r3,[r7,#11]
 116:.././hal/sam3u1c/inc/sam3u/pll.h **** 	uint32_t vco_hz;
 117:.././hal/sam3u1c/inc/sam3u/pll.h **** 
 118:.././hal/sam3u1c/inc/sam3u/pll.h **** 	Assert(e_src < PLL_NR_SOURCES);
 119:.././hal/sam3u1c/inc/sam3u/pll.h **** 
 120:.././hal/sam3u1c/inc/sam3u/pll.h **** 	if (ul_div == 0 && ul_mul == 0) { /* Must only be true for UTMI PLL */
 443              	 .loc 3 120 0
 444 0010 7B68     	 ldr r3,[r7,#4]
 445 0012 002B     	 cmp r3,#0
 446 0014 07D1     	 bne .L45
 447              	 .loc 3 120 0 is_stmt 0 discriminator 1
 448 0016 3B68     	 ldr r3,[r7]
 449 0018 002B     	 cmp r3,#0
 450 001a 04D1     	 bne .L45
 121:.././hal/sam3u1c/inc/sam3u/pll.h **** 		p_cfg->ctrl = CKGR_UCKR_UPLLCOUNT(PLL_COUNT);
 451              	 .loc 3 121 0 is_stmt 1
 452 001c FB68     	 ldr r3,[r7,#12]
 453 001e 4FF47002 	 mov r2,#15728640
 454 0022 1A60     	 str r2,[r3]
 455 0024 19E0     	 b .L46
 456              	.L45:
 122:.././hal/sam3u1c/inc/sam3u/pll.h **** 	} else { /* PLLA */
 123:.././hal/sam3u1c/inc/sam3u/pll.h **** 		/* Calculate internal VCO frequency */
 124:.././hal/sam3u1c/inc/sam3u/pll.h **** 		vco_hz = osc_get_rate(e_src) / ul_div;
 457              	 .loc 3 124 0
 458 0026 FB7A     	 ldrb r3,[r7,#11]
 459 0028 1846     	 mov r0,r3
 460 002a 0E4B     	 ldr r3,.L47
 461 002c 9847     	 blx r3
 462              	.LVL11:
 463 002e 0246     	 mov r2,r0
 464 0030 7B68     	 ldr r3,[r7,#4]
 465 0032 B2FBF3F3 	 udiv r3,r2,r3
 466 0036 7B61     	 str r3,[r7,#20]
 125:.././hal/sam3u1c/inc/sam3u/pll.h **** 		Assert(vco_hz >= PLL_INPUT_MIN_HZ);
 126:.././hal/sam3u1c/inc/sam3u/pll.h **** 		Assert(vco_hz <= PLL_INPUT_MAX_HZ);
 127:.././hal/sam3u1c/inc/sam3u/pll.h **** 
 128:.././hal/sam3u1c/inc/sam3u/pll.h **** 		vco_hz *= ul_mul;
 467              	 .loc 3 128 0
 468 0038 7B69     	 ldr r3,[r7,#20]
 469 003a 3A68     	 ldr r2,[r7]
 470 003c 02FB03F3 	 mul r3,r2,r3
 471 0040 7B61     	 str r3,[r7,#20]
 129:.././hal/sam3u1c/inc/sam3u/pll.h **** 		Assert(vco_hz >= PLL_OUTPUT_MIN_HZ);
 130:.././hal/sam3u1c/inc/sam3u/pll.h **** 		Assert(vco_hz <= PLL_OUTPUT_MAX_HZ);
 131:.././hal/sam3u1c/inc/sam3u/pll.h **** 
 132:.././hal/sam3u1c/inc/sam3u/pll.h **** 		/* PMC hardware will automatically make it mul+1 */
 133:.././hal/sam3u1c/inc/sam3u/pll.h **** 		p_cfg->ctrl = CKGR_PLLAR_MULA(ul_mul - 1) |
 472              	 .loc 3 133 0
 473 0042 3B68     	 ldr r3,[r7]
 474 0044 013B     	 subs r3,r3,#1
 475 0046 1A04     	 lsls r2,r3,#16
 476 0048 074B     	 ldr r3,.L47+4
 477 004a 1340     	 ands r3,r3,r2
 134:.././hal/sam3u1c/inc/sam3u/pll.h **** 			CKGR_PLLAR_DIVA(ul_div) |
 478              	 .loc 3 134 0
 479 004c 7A68     	 ldr r2,[r7,#4]
 480 004e D2B2     	 uxtb r2,r2
 133:.././hal/sam3u1c/inc/sam3u/pll.h **** 			CKGR_PLLAR_DIVA(ul_div) |
 481              	 .loc 3 133 0
 482 0050 1343     	 orrs r3,r3,r2
 483              	 .loc 3 134 0
 484 0052 43F47C52 	 orr r2,r3,#16128
 133:.././hal/sam3u1c/inc/sam3u/pll.h **** 			CKGR_PLLAR_DIVA(ul_div) |
 485              	 .loc 3 133 0
 486 0056 FB68     	 ldr r3,[r7,#12]
 487 0058 1A60     	 str r2,[r3]
 488              	.L46:
 135:.././hal/sam3u1c/inc/sam3u/pll.h **** 			CKGR_PLLAR_PLLACOUNT(PLL_COUNT);
 136:.././hal/sam3u1c/inc/sam3u/pll.h **** 	}
 137:.././hal/sam3u1c/inc/sam3u/pll.h **** }
 489              	 .loc 3 137 0
 490 005a 00BF     	 nop
 491 005c 1837     	 adds r7,r7,#24
 492              	.LCFI24:
 493              	 .cfi_def_cfa_offset 8
 494 005e BD46     	 mov sp,r7
 495              	.LCFI25:
 496              	 .cfi_def_cfa_register 13
 497              	 
 498 0060 80BD     	 pop {r7,pc}
 499              	.L48:
 500 0062 00BF     	 .align 2
 501              	.L47:
 502 0064 00000000 	 .word osc_get_rate
 503 0068 0000FF07 	 .word 134152192
 504              	 .cfi_endproc
 505              	.LFE74:
 507              	 .section .text.pll_enable,"ax",%progbits
 508              	 .align 1
 509              	 .syntax unified
 510              	 .thumb
 511              	 .thumb_func
 512              	 .fpu softvfp
 514              	pll_enable:
 515              	.LFB77:
 138:.././hal/sam3u1c/inc/sam3u/pll.h **** 
 139:.././hal/sam3u1c/inc/sam3u/pll.h **** #define pll_config_defaults(cfg, pll_id)                                   \
 140:.././hal/sam3u1c/inc/sam3u/pll.h **** 	pll_config_init(cfg,                                               \
 141:.././hal/sam3u1c/inc/sam3u/pll.h **** 			CONFIG_PLL##pll_id##_SOURCE,                       \
 142:.././hal/sam3u1c/inc/sam3u/pll.h **** 			CONFIG_PLL##pll_id##_DIV,                          \
 143:.././hal/sam3u1c/inc/sam3u/pll.h **** 			CONFIG_PLL##pll_id##_MUL)
 144:.././hal/sam3u1c/inc/sam3u/pll.h **** 
 145:.././hal/sam3u1c/inc/sam3u/pll.h **** static inline void pll_config_read(struct pll_config *p_cfg, uint32_t ul_pll_id)
 146:.././hal/sam3u1c/inc/sam3u/pll.h **** {
 147:.././hal/sam3u1c/inc/sam3u/pll.h **** 	Assert(ul_pll_id < NR_PLLS);
 148:.././hal/sam3u1c/inc/sam3u/pll.h **** 
 149:.././hal/sam3u1c/inc/sam3u/pll.h **** 	if (ul_pll_id == PLLA_ID) {
 150:.././hal/sam3u1c/inc/sam3u/pll.h **** 		p_cfg->ctrl = PMC->CKGR_PLLAR;
 151:.././hal/sam3u1c/inc/sam3u/pll.h **** 	} else {
 152:.././hal/sam3u1c/inc/sam3u/pll.h **** 		p_cfg->ctrl = PMC->CKGR_UCKR;
 153:.././hal/sam3u1c/inc/sam3u/pll.h **** 	}
 154:.././hal/sam3u1c/inc/sam3u/pll.h **** }
 155:.././hal/sam3u1c/inc/sam3u/pll.h **** 
 156:.././hal/sam3u1c/inc/sam3u/pll.h **** static inline void pll_config_write(const struct pll_config *p_cfg,
 157:.././hal/sam3u1c/inc/sam3u/pll.h **** 		uint32_t ul_pll_id)
 158:.././hal/sam3u1c/inc/sam3u/pll.h **** {
 159:.././hal/sam3u1c/inc/sam3u/pll.h **** 	Assert(ul_pll_id < NR_PLLS);
 160:.././hal/sam3u1c/inc/sam3u/pll.h **** 
 161:.././hal/sam3u1c/inc/sam3u/pll.h **** 	if (ul_pll_id == PLLA_ID) {
 162:.././hal/sam3u1c/inc/sam3u/pll.h **** 		pmc_disable_pllack(); // Always stop PLL first!
 163:.././hal/sam3u1c/inc/sam3u/pll.h **** 		PMC->CKGR_PLLAR = CKGR_PLLAR_ONE | p_cfg->ctrl;
 164:.././hal/sam3u1c/inc/sam3u/pll.h **** 	} else {
 165:.././hal/sam3u1c/inc/sam3u/pll.h **** 		PMC->CKGR_UCKR = p_cfg->ctrl;
 166:.././hal/sam3u1c/inc/sam3u/pll.h **** 	}
 167:.././hal/sam3u1c/inc/sam3u/pll.h **** }
 168:.././hal/sam3u1c/inc/sam3u/pll.h **** 
 169:.././hal/sam3u1c/inc/sam3u/pll.h **** static inline void pll_enable(const struct pll_config *p_cfg,
 170:.././hal/sam3u1c/inc/sam3u/pll.h **** 		uint32_t ul_pll_id)
 171:.././hal/sam3u1c/inc/sam3u/pll.h **** {
 516              	 .loc 3 171 0
 517              	 .cfi_startproc
 518              	 
 519              	 
 520 0000 80B5     	 push {r7,lr}
 521              	.LCFI26:
 522              	 .cfi_def_cfa_offset 8
 523              	 .cfi_offset 7,-8
 524              	 .cfi_offset 14,-4
 525 0002 82B0     	 sub sp,sp,#8
 526              	.LCFI27:
 527              	 .cfi_def_cfa_offset 16
 528 0004 00AF     	 add r7,sp,#0
 529              	.LCFI28:
 530              	 .cfi_def_cfa_register 7
 531 0006 7860     	 str r0,[r7,#4]
 532 0008 3960     	 str r1,[r7]
 172:.././hal/sam3u1c/inc/sam3u/pll.h **** 	Assert(ul_pll_id < NR_PLLS);
 173:.././hal/sam3u1c/inc/sam3u/pll.h **** 
 174:.././hal/sam3u1c/inc/sam3u/pll.h **** 	if (ul_pll_id == PLLA_ID) {
 533              	 .loc 3 174 0
 534 000a 3B68     	 ldr r3,[r7]
 535 000c 002B     	 cmp r3,#0
 536 000e 08D1     	 bne .L50
 175:.././hal/sam3u1c/inc/sam3u/pll.h **** 		pmc_disable_pllack(); // Always stop PLL first!
 537              	 .loc 3 175 0
 538 0010 094B     	 ldr r3,.L53
 539 0012 9847     	 blx r3
 540              	.LVL12:
 176:.././hal/sam3u1c/inc/sam3u/pll.h **** 		PMC->CKGR_PLLAR = CKGR_PLLAR_ONE | p_cfg->ctrl;
 541              	 .loc 3 176 0
 542 0014 7B68     	 ldr r3,[r7,#4]
 543 0016 1B68     	 ldr r3,[r3]
 544 0018 084A     	 ldr r2,.L53+4
 545 001a 43F00053 	 orr r3,r3,#536870912
 546 001e 9362     	 str r3,[r2,#40]
 177:.././hal/sam3u1c/inc/sam3u/pll.h **** 	} else {
 178:.././hal/sam3u1c/inc/sam3u/pll.h **** 		PMC->CKGR_UCKR = p_cfg->ctrl | CKGR_UCKR_UPLLEN;
 179:.././hal/sam3u1c/inc/sam3u/pll.h **** 	}
 180:.././hal/sam3u1c/inc/sam3u/pll.h **** }
 547              	 .loc 3 180 0
 548 0020 05E0     	 b .L52
 549              	.L50:
 178:.././hal/sam3u1c/inc/sam3u/pll.h **** 	}
 550              	 .loc 3 178 0
 551 0022 7B68     	 ldr r3,[r7,#4]
 552 0024 1B68     	 ldr r3,[r3]
 553 0026 054A     	 ldr r2,.L53+4
 554 0028 43F48033 	 orr r3,r3,#65536
 555 002c D361     	 str r3,[r2,#28]
 556              	.L52:
 557              	 .loc 3 180 0
 558 002e 00BF     	 nop
 559 0030 0837     	 adds r7,r7,#8
 560              	.LCFI29:
 561              	 .cfi_def_cfa_offset 8
 562 0032 BD46     	 mov sp,r7
 563              	.LCFI30:
 564              	 .cfi_def_cfa_register 13
 565              	 
 566 0034 80BD     	 pop {r7,pc}
 567              	.L54:
 568 0036 00BF     	 .align 2
 569              	.L53:
 570 0038 00000000 	 .word pmc_disable_pllack
 571 003c 00040E40 	 .word 1074660352
 572              	 .cfi_endproc
 573              	.LFE77:
 575              	 .section .text.pll_disable,"ax",%progbits
 576              	 .align 1
 577              	 .syntax unified
 578              	 .thumb
 579              	 .thumb_func
 580              	 .fpu softvfp
 582              	pll_disable:
 583              	.LFB78:
 181:.././hal/sam3u1c/inc/sam3u/pll.h **** 
 182:.././hal/sam3u1c/inc/sam3u/pll.h **** /**
 183:.././hal/sam3u1c/inc/sam3u/pll.h ****  * \note This will only disable the selected PLL, not the underlying oscillator
 184:.././hal/sam3u1c/inc/sam3u/pll.h ****  *       (mainck).
 185:.././hal/sam3u1c/inc/sam3u/pll.h ****  */
 186:.././hal/sam3u1c/inc/sam3u/pll.h **** static inline void pll_disable(uint32_t ul_pll_id)
 187:.././hal/sam3u1c/inc/sam3u/pll.h **** {
 584              	 .loc 3 187 0
 585              	 .cfi_startproc
 586              	 
 587              	 
 588 0000 80B5     	 push {r7,lr}
 589              	.LCFI31:
 590              	 .cfi_def_cfa_offset 8
 591              	 .cfi_offset 7,-8
 592              	 .cfi_offset 14,-4
 593 0002 82B0     	 sub sp,sp,#8
 594              	.LCFI32:
 595              	 .cfi_def_cfa_offset 16
 596 0004 00AF     	 add r7,sp,#0
 597              	.LCFI33:
 598              	 .cfi_def_cfa_register 7
 599 0006 7860     	 str r0,[r7,#4]
 188:.././hal/sam3u1c/inc/sam3u/pll.h **** 	Assert(ul_pll_id < NR_PLLS);
 189:.././hal/sam3u1c/inc/sam3u/pll.h **** 
 190:.././hal/sam3u1c/inc/sam3u/pll.h **** 	if (ul_pll_id == PLLA_ID) {
 600              	 .loc 3 190 0
 601 0008 7B68     	 ldr r3,[r7,#4]
 602 000a 002B     	 cmp r3,#0
 603 000c 02D1     	 bne .L56
 191:.././hal/sam3u1c/inc/sam3u/pll.h **** 		pmc_disable_pllack();
 604              	 .loc 3 191 0
 605 000e 064B     	 ldr r3,.L59
 606 0010 9847     	 blx r3
 607              	.LVL13:
 192:.././hal/sam3u1c/inc/sam3u/pll.h **** 	} else {
 193:.././hal/sam3u1c/inc/sam3u/pll.h **** 		PMC->CKGR_UCKR &= ~CKGR_UCKR_UPLLEN;
 194:.././hal/sam3u1c/inc/sam3u/pll.h **** 	}
 195:.././hal/sam3u1c/inc/sam3u/pll.h **** }
 608              	 .loc 3 195 0
 609 0012 05E0     	 b .L58
 610              	.L56:
 193:.././hal/sam3u1c/inc/sam3u/pll.h **** 	}
 611              	 .loc 3 193 0
 612 0014 054B     	 ldr r3,.L59+4
 613 0016 DB69     	 ldr r3,[r3,#28]
 614 0018 044A     	 ldr r2,.L59+4
 615 001a 23F48033 	 bic r3,r3,#65536
 616 001e D361     	 str r3,[r2,#28]
 617              	.L58:
 618              	 .loc 3 195 0
 619 0020 00BF     	 nop
 620 0022 0837     	 adds r7,r7,#8
 621              	.LCFI34:
 622              	 .cfi_def_cfa_offset 8
 623 0024 BD46     	 mov sp,r7
 624              	.LCFI35:
 625              	 .cfi_def_cfa_register 13
 626              	 
 627 0026 80BD     	 pop {r7,pc}
 628              	.L60:
 629              	 .align 2
 630              	.L59:
 631 0028 00000000 	 .word pmc_disable_pllack
 632 002c 00040E40 	 .word 1074660352
 633              	 .cfi_endproc
 634              	.LFE78:
 636              	 .section .text.pll_is_locked,"ax",%progbits
 637              	 .align 1
 638              	 .syntax unified
 639              	 .thumb
 640              	 .thumb_func
 641              	 .fpu softvfp
 643              	pll_is_locked:
 644              	.LFB79:
 196:.././hal/sam3u1c/inc/sam3u/pll.h **** 
 197:.././hal/sam3u1c/inc/sam3u/pll.h **** static inline uint32_t pll_is_locked(uint32_t ul_pll_id)
 198:.././hal/sam3u1c/inc/sam3u/pll.h **** {
 645              	 .loc 3 198 0
 646              	 .cfi_startproc
 647              	 
 648              	 
 649 0000 80B5     	 push {r7,lr}
 650              	.LCFI36:
 651              	 .cfi_def_cfa_offset 8
 652              	 .cfi_offset 7,-8
 653              	 .cfi_offset 14,-4
 654 0002 82B0     	 sub sp,sp,#8
 655              	.LCFI37:
 656              	 .cfi_def_cfa_offset 16
 657 0004 00AF     	 add r7,sp,#0
 658              	.LCFI38:
 659              	 .cfi_def_cfa_register 7
 660 0006 7860     	 str r0,[r7,#4]
 199:.././hal/sam3u1c/inc/sam3u/pll.h **** 	Assert(ul_pll_id < NR_PLLS);
 200:.././hal/sam3u1c/inc/sam3u/pll.h **** 
 201:.././hal/sam3u1c/inc/sam3u/pll.h **** 	if (ul_pll_id == PLLA_ID) {
 661              	 .loc 3 201 0
 662 0008 7B68     	 ldr r3,[r7,#4]
 663 000a 002B     	 cmp r3,#0
 664 000c 03D1     	 bne .L62
 202:.././hal/sam3u1c/inc/sam3u/pll.h **** 		return pmc_is_locked_pllack();
 665              	 .loc 3 202 0
 666 000e 054B     	 ldr r3,.L64
 667 0010 9847     	 blx r3
 668              	.LVL14:
 669 0012 0346     	 mov r3,r0
 670 0014 02E0     	 b .L63
 671              	.L62:
 203:.././hal/sam3u1c/inc/sam3u/pll.h **** 	} else {
 204:.././hal/sam3u1c/inc/sam3u/pll.h **** 		return pmc_is_locked_upll();
 672              	 .loc 3 204 0
 673 0016 044B     	 ldr r3,.L64+4
 674 0018 9847     	 blx r3
 675              	.LVL15:
 676 001a 0346     	 mov r3,r0
 677              	.L63:
 205:.././hal/sam3u1c/inc/sam3u/pll.h **** 	}
 206:.././hal/sam3u1c/inc/sam3u/pll.h **** }
 678              	 .loc 3 206 0
 679 001c 1846     	 mov r0,r3
 680 001e 0837     	 adds r7,r7,#8
 681              	.LCFI39:
 682              	 .cfi_def_cfa_offset 8
 683 0020 BD46     	 mov sp,r7
 684              	.LCFI40:
 685              	 .cfi_def_cfa_register 13
 686              	 
 687 0022 80BD     	 pop {r7,pc}
 688              	.L65:
 689              	 .align 2
 690              	.L64:
 691 0024 00000000 	 .word pmc_is_locked_pllack
 692 0028 00000000 	 .word pmc_is_locked_upll
 693              	 .cfi_endproc
 694              	.LFE79:
 696              	 .section .text.pll_enable_source,"ax",%progbits
 697              	 .align 1
 698              	 .syntax unified
 699              	 .thumb
 700              	 .thumb_func
 701              	 .fpu softvfp
 703              	pll_enable_source:
 704              	.LFB80:
 207:.././hal/sam3u1c/inc/sam3u/pll.h **** 
 208:.././hal/sam3u1c/inc/sam3u/pll.h **** static inline void pll_enable_source(enum pll_source e_src)
 209:.././hal/sam3u1c/inc/sam3u/pll.h **** {
 705              	 .loc 3 209 0
 706              	 .cfi_startproc
 707              	 
 708              	 
 709 0000 80B5     	 push {r7,lr}
 710              	.LCFI41:
 711              	 .cfi_def_cfa_offset 8
 712              	 .cfi_offset 7,-8
 713              	 .cfi_offset 14,-4
 714 0002 82B0     	 sub sp,sp,#8
 715              	.LCFI42:
 716              	 .cfi_def_cfa_offset 16
 717 0004 00AF     	 add r7,sp,#0
 718              	.LCFI43:
 719              	 .cfi_def_cfa_register 7
 720 0006 0346     	 mov r3,r0
 721 0008 FB71     	 strb r3,[r7,#7]
 210:.././hal/sam3u1c/inc/sam3u/pll.h **** 	switch (e_src) {
 722              	 .loc 3 210 0
 723 000a FB79     	 ldrb r3,[r7,#7]
 724 000c 033B     	 subs r3,r3,#3
 725 000e 042B     	 cmp r3,#4
 726 0010 08D8     	 bhi .L70
 211:.././hal/sam3u1c/inc/sam3u/pll.h **** 	case PLL_SRC_MAINCK_4M_RC:
 212:.././hal/sam3u1c/inc/sam3u/pll.h **** 	case PLL_SRC_MAINCK_8M_RC:
 213:.././hal/sam3u1c/inc/sam3u/pll.h **** 	case PLL_SRC_MAINCK_12M_RC:
 214:.././hal/sam3u1c/inc/sam3u/pll.h **** 	case PLL_SRC_MAINCK_XTAL:
 215:.././hal/sam3u1c/inc/sam3u/pll.h **** 	case PLL_SRC_MAINCK_BYPASS:
 216:.././hal/sam3u1c/inc/sam3u/pll.h **** 		osc_enable(e_src);
 727              	 .loc 3 216 0
 728 0012 FB79     	 ldrb r3,[r7,#7]
 729 0014 1846     	 mov r0,r3
 730 0016 064B     	 ldr r3,.L71
 731 0018 9847     	 blx r3
 732              	.LVL16:
 217:.././hal/sam3u1c/inc/sam3u/pll.h **** 		osc_wait_ready(e_src);
 733              	 .loc 3 217 0
 734 001a FB79     	 ldrb r3,[r7,#7]
 735 001c 1846     	 mov r0,r3
 736 001e 054B     	 ldr r3,.L71+4
 737 0020 9847     	 blx r3
 738              	.LVL17:
 218:.././hal/sam3u1c/inc/sam3u/pll.h **** 		break;
 739              	 .loc 3 218 0
 740 0022 00E0     	 b .L69
 741              	.L70:
 219:.././hal/sam3u1c/inc/sam3u/pll.h **** 
 220:.././hal/sam3u1c/inc/sam3u/pll.h **** 	default:
 221:.././hal/sam3u1c/inc/sam3u/pll.h **** 		Assert(false);
 222:.././hal/sam3u1c/inc/sam3u/pll.h **** 		break;
 742              	 .loc 3 222 0
 743 0024 00BF     	 nop
 744              	.L69:
 223:.././hal/sam3u1c/inc/sam3u/pll.h **** 	}
 224:.././hal/sam3u1c/inc/sam3u/pll.h **** }
 745              	 .loc 3 224 0
 746 0026 00BF     	 nop
 747 0028 0837     	 adds r7,r7,#8
 748              	.LCFI44:
 749              	 .cfi_def_cfa_offset 8
 750 002a BD46     	 mov sp,r7
 751              	.LCFI45:
 752              	 .cfi_def_cfa_register 13
 753              	 
 754 002c 80BD     	 pop {r7,pc}
 755              	.L72:
 756 002e 00BF     	 .align 2
 757              	.L71:
 758 0030 00000000 	 .word osc_enable
 759 0034 00000000 	 .word osc_wait_ready
 760              	 .cfi_endproc
 761              	.LFE80:
 763              	 .section .text.pll_wait_for_lock,"ax",%progbits
 764              	 .align 1
 765              	 .syntax unified
 766              	 .thumb
 767              	 .thumb_func
 768              	 .fpu softvfp
 770              	pll_wait_for_lock:
 771              	.LFB82:
 772              	 .file 4 ".././hal/sam3u1c/inc/pll.h"
   1:.././hal/sam3u1c/inc/pll.h **** /**
   2:.././hal/sam3u1c/inc/pll.h ****  * \file
   3:.././hal/sam3u1c/inc/pll.h ****  *
   4:.././hal/sam3u1c/inc/pll.h ****  * \brief PLL management
   5:.././hal/sam3u1c/inc/pll.h ****  *
   6:.././hal/sam3u1c/inc/pll.h ****  * Copyright (c) 2010-2014 Atmel Corporation. All rights reserved.
   7:.././hal/sam3u1c/inc/pll.h ****  *
   8:.././hal/sam3u1c/inc/pll.h ****  * \asf_license_start
   9:.././hal/sam3u1c/inc/pll.h ****  *
  10:.././hal/sam3u1c/inc/pll.h ****  * \page License
  11:.././hal/sam3u1c/inc/pll.h ****  *
  12:.././hal/sam3u1c/inc/pll.h ****  * Redistribution and use in source and binary forms, with or without
  13:.././hal/sam3u1c/inc/pll.h ****  * modification, are permitted provided that the following conditions are met:
  14:.././hal/sam3u1c/inc/pll.h ****  *
  15:.././hal/sam3u1c/inc/pll.h ****  * 1. Redistributions of source code must retain the above copyright notice,
  16:.././hal/sam3u1c/inc/pll.h ****  *    this list of conditions and the following disclaimer.
  17:.././hal/sam3u1c/inc/pll.h ****  *
  18:.././hal/sam3u1c/inc/pll.h ****  * 2. Redistributions in binary form must reproduce the above copyright notice,
  19:.././hal/sam3u1c/inc/pll.h ****  *    this list of conditions and the following disclaimer in the documentation
  20:.././hal/sam3u1c/inc/pll.h ****  *    and/or other materials provided with the distribution.
  21:.././hal/sam3u1c/inc/pll.h ****  *
  22:.././hal/sam3u1c/inc/pll.h ****  * 3. The name of Atmel may not be used to endorse or promote products derived
  23:.././hal/sam3u1c/inc/pll.h ****  *    from this software without specific prior written permission.
  24:.././hal/sam3u1c/inc/pll.h ****  *
  25:.././hal/sam3u1c/inc/pll.h ****  * 4. This software may only be redistributed and used in connection with an
  26:.././hal/sam3u1c/inc/pll.h ****  *    Atmel microcontroller product.
  27:.././hal/sam3u1c/inc/pll.h ****  *
  28:.././hal/sam3u1c/inc/pll.h ****  * THIS SOFTWARE IS PROVIDED BY ATMEL "AS IS" AND ANY EXPRESS OR IMPLIED
  29:.././hal/sam3u1c/inc/pll.h ****  * WARRANTIES, INCLUDING, BUT NOT LIMITED TO, THE IMPLIED WARRANTIES OF
  30:.././hal/sam3u1c/inc/pll.h ****  * MERCHANTABILITY, FITNESS FOR A PARTICULAR PURPOSE AND NON-INFRINGEMENT ARE
  31:.././hal/sam3u1c/inc/pll.h ****  * EXPRESSLY AND SPECIFICALLY DISCLAIMED. IN NO EVENT SHALL ATMEL BE LIABLE FOR
  32:.././hal/sam3u1c/inc/pll.h ****  * ANY DIRECT, INDIRECT, INCIDENTAL, SPECIAL, EXEMPLARY, OR CONSEQUENTIAL
  33:.././hal/sam3u1c/inc/pll.h ****  * DAMAGES (INCLUDING, BUT NOT LIMITED TO, PROCUREMENT OF SUBSTITUTE GOODS
  34:.././hal/sam3u1c/inc/pll.h ****  * OR SERVICES; LOSS OF USE, DATA, OR PROFITS; OR BUSINESS INTERRUPTION)
  35:.././hal/sam3u1c/inc/pll.h ****  * HOWEVER CAUSED AND ON ANY THEORY OF LIABILITY, WHETHER IN CONTRACT,
  36:.././hal/sam3u1c/inc/pll.h ****  * STRICT LIABILITY, OR TORT (INCLUDING NEGLIGENCE OR OTHERWISE) ARISING IN
  37:.././hal/sam3u1c/inc/pll.h ****  * ANY WAY OUT OF THE USE OF THIS SOFTWARE, EVEN IF ADVISED OF THE
  38:.././hal/sam3u1c/inc/pll.h ****  * POSSIBILITY OF SUCH DAMAGE.
  39:.././hal/sam3u1c/inc/pll.h ****  *
  40:.././hal/sam3u1c/inc/pll.h ****  * \asf_license_stop
  41:.././hal/sam3u1c/inc/pll.h ****  *
  42:.././hal/sam3u1c/inc/pll.h ****  */
  43:.././hal/sam3u1c/inc/pll.h **** #ifndef CLK_PLL_H_INCLUDED
  44:.././hal/sam3u1c/inc/pll.h **** #define CLK_PLL_H_INCLUDED
  45:.././hal/sam3u1c/inc/pll.h **** 
  46:.././hal/sam3u1c/inc/pll.h **** #include "parts.h"
  47:.././hal/sam3u1c/inc/pll.h **** #include "conf_clock.h"
  48:.././hal/sam3u1c/inc/pll.h **** 
  49:.././hal/sam3u1c/inc/pll.h **** #if SAM3S
  50:.././hal/sam3u1c/inc/pll.h **** # include "sam3s/pll.h"
  51:.././hal/sam3u1c/inc/pll.h **** #elif SAM3XA
  52:.././hal/sam3u1c/inc/pll.h **** # include "sam3x/pll.h"
  53:.././hal/sam3u1c/inc/pll.h **** #elif SAM3U
  54:.././hal/sam3u1c/inc/pll.h **** # include "sam3u/pll.h"
  55:.././hal/sam3u1c/inc/pll.h **** #elif SAM3N
  56:.././hal/sam3u1c/inc/pll.h **** # include "sam3n/pll.h"
  57:.././hal/sam3u1c/inc/pll.h **** #elif SAM4S
  58:.././hal/sam3u1c/inc/pll.h **** # include "sam4s/pll.h"
  59:.././hal/sam3u1c/inc/pll.h **** #elif SAM4E
  60:.././hal/sam3u1c/inc/pll.h **** # include "sam4e/pll.h"
  61:.././hal/sam3u1c/inc/pll.h **** #elif SAM4C
  62:.././hal/sam3u1c/inc/pll.h **** # include "sam4c/pll.h"
  63:.././hal/sam3u1c/inc/pll.h **** #elif SAM4CM
  64:.././hal/sam3u1c/inc/pll.h **** # include "sam4cm/pll.h"
  65:.././hal/sam3u1c/inc/pll.h **** #elif SAM4CP
  66:.././hal/sam3u1c/inc/pll.h **** # include "sam4cp/pll.h"
  67:.././hal/sam3u1c/inc/pll.h **** #elif SAM4L
  68:.././hal/sam3u1c/inc/pll.h **** # include "sam4l/pll.h"
  69:.././hal/sam3u1c/inc/pll.h **** #elif SAM4N
  70:.././hal/sam3u1c/inc/pll.h **** # include "sam4n/pll.h"
  71:.././hal/sam3u1c/inc/pll.h **** #elif SAMG
  72:.././hal/sam3u1c/inc/pll.h **** # include "samg/pll.h"
  73:.././hal/sam3u1c/inc/pll.h **** #elif (UC3A0 || UC3A1)
  74:.././hal/sam3u1c/inc/pll.h **** # include "uc3a0_a1/pll.h"
  75:.././hal/sam3u1c/inc/pll.h **** #elif UC3A3
  76:.././hal/sam3u1c/inc/pll.h **** # include "uc3a3_a4/pll.h"
  77:.././hal/sam3u1c/inc/pll.h **** #elif UC3B
  78:.././hal/sam3u1c/inc/pll.h **** # include "uc3b0_b1/pll.h"
  79:.././hal/sam3u1c/inc/pll.h **** #elif UC3C
  80:.././hal/sam3u1c/inc/pll.h **** # include "uc3c/pll.h"
  81:.././hal/sam3u1c/inc/pll.h **** #elif UC3D
  82:.././hal/sam3u1c/inc/pll.h **** # include "uc3d/pll.h"
  83:.././hal/sam3u1c/inc/pll.h **** #elif (UC3L0128 || UC3L0256 || UC3L3_L4)
  84:.././hal/sam3u1c/inc/pll.h **** # include "uc3l/pll.h"
  85:.././hal/sam3u1c/inc/pll.h **** #elif XMEGA
  86:.././hal/sam3u1c/inc/pll.h **** # include "xmega/pll.h"
  87:.././hal/sam3u1c/inc/pll.h **** #else
  88:.././hal/sam3u1c/inc/pll.h **** # error Unsupported chip type
  89:.././hal/sam3u1c/inc/pll.h **** #endif
  90:.././hal/sam3u1c/inc/pll.h **** 
  91:.././hal/sam3u1c/inc/pll.h **** /**
  92:.././hal/sam3u1c/inc/pll.h ****  * \ingroup clk_group
  93:.././hal/sam3u1c/inc/pll.h ****  * \defgroup pll_group PLL Management
  94:.././hal/sam3u1c/inc/pll.h ****  *
  95:.././hal/sam3u1c/inc/pll.h ****  * This group contains functions and definitions related to configuring
  96:.././hal/sam3u1c/inc/pll.h ****  * and enabling/disabling on-chip PLLs. A PLL will take an input signal
  97:.././hal/sam3u1c/inc/pll.h ****  * (the \em source), optionally divide the frequency by a configurable
  98:.././hal/sam3u1c/inc/pll.h ****  * \em divider, and then multiply the frequency by a configurable \em
  99:.././hal/sam3u1c/inc/pll.h ****  * multiplier.
 100:.././hal/sam3u1c/inc/pll.h ****  *
 101:.././hal/sam3u1c/inc/pll.h ****  * Some devices don't support input dividers; specifying any other
 102:.././hal/sam3u1c/inc/pll.h ****  * divisor than 1 on these devices will result in an assertion failure.
 103:.././hal/sam3u1c/inc/pll.h ****  * Other devices may have various restrictions to the frequency range of
 104:.././hal/sam3u1c/inc/pll.h ****  * the input and output signals.
 105:.././hal/sam3u1c/inc/pll.h ****  *
 106:.././hal/sam3u1c/inc/pll.h ****  * \par Example: Setting up PLL0 with default parameters
 107:.././hal/sam3u1c/inc/pll.h ****  *
 108:.././hal/sam3u1c/inc/pll.h ****  * The following example shows how to configure and enable PLL0 using
 109:.././hal/sam3u1c/inc/pll.h ****  * the default parameters specified using the configuration symbols
 110:.././hal/sam3u1c/inc/pll.h ****  * listed above.
 111:.././hal/sam3u1c/inc/pll.h ****  * \code
 112:.././hal/sam3u1c/inc/pll.h **** 	pll_enable_config_defaults(0); \endcode
 113:.././hal/sam3u1c/inc/pll.h ****  *
 114:.././hal/sam3u1c/inc/pll.h ****  * To configure, enable PLL0 using the default parameters and to disable
 115:.././hal/sam3u1c/inc/pll.h ****  * a specific feature like Wide Bandwidth Mode (a UC3A3-specific
 116:.././hal/sam3u1c/inc/pll.h ****  * PLL option.), you can use this initialization process.
 117:.././hal/sam3u1c/inc/pll.h ****  * \code
 118:.././hal/sam3u1c/inc/pll.h **** 	struct pll_config pllcfg;
 119:.././hal/sam3u1c/inc/pll.h **** 	if (pll_is_locked(pll_id)) {
 120:.././hal/sam3u1c/inc/pll.h **** 		return; // Pll already running
 121:.././hal/sam3u1c/inc/pll.h **** 	}
 122:.././hal/sam3u1c/inc/pll.h **** 	pll_enable_source(CONFIG_PLL0_SOURCE);
 123:.././hal/sam3u1c/inc/pll.h **** 	pll_config_defaults(&pllcfg, 0);
 124:.././hal/sam3u1c/inc/pll.h **** 	pll_config_set_option(&pllcfg, PLL_OPT_WBM_DISABLE);
 125:.././hal/sam3u1c/inc/pll.h **** 	pll_enable(&pllcfg, 0);
 126:.././hal/sam3u1c/inc/pll.h **** 	pll_wait_for_lock(0); \endcode
 127:.././hal/sam3u1c/inc/pll.h ****  *
 128:.././hal/sam3u1c/inc/pll.h ****  * When the last function call returns, PLL0 is ready to be used as the
 129:.././hal/sam3u1c/inc/pll.h ****  * main system clock source.
 130:.././hal/sam3u1c/inc/pll.h ****  *
 131:.././hal/sam3u1c/inc/pll.h ****  * \section pll_group_config Configuration Symbols
 132:.././hal/sam3u1c/inc/pll.h ****  *
 133:.././hal/sam3u1c/inc/pll.h ****  * Each PLL has a set of default parameters determined by the following
 134:.././hal/sam3u1c/inc/pll.h ****  * configuration symbols in the application's configuration file:
 135:.././hal/sam3u1c/inc/pll.h ****  *   - \b CONFIG_PLLn_SOURCE: The default clock source connected to the
 136:.././hal/sam3u1c/inc/pll.h ****  *     input of PLL \a n. Must be one of the values defined by the
 137:.././hal/sam3u1c/inc/pll.h ****  *     #pll_source enum.
 138:.././hal/sam3u1c/inc/pll.h ****  *   - \b CONFIG_PLLn_MUL: The default multiplier (loop divider) of PLL
 139:.././hal/sam3u1c/inc/pll.h ****  *     \a n.
 140:.././hal/sam3u1c/inc/pll.h ****  *   - \b CONFIG_PLLn_DIV: The default input divider of PLL \a n.
 141:.././hal/sam3u1c/inc/pll.h ****  *
 142:.././hal/sam3u1c/inc/pll.h ****  * These configuration symbols determine the result of calling
 143:.././hal/sam3u1c/inc/pll.h ****  * pll_config_defaults() and pll_get_default_rate().
 144:.././hal/sam3u1c/inc/pll.h ****  *
 145:.././hal/sam3u1c/inc/pll.h ****  * @{
 146:.././hal/sam3u1c/inc/pll.h ****  */
 147:.././hal/sam3u1c/inc/pll.h **** 
 148:.././hal/sam3u1c/inc/pll.h **** //! \name Chip-specific PLL characteristics
 149:.././hal/sam3u1c/inc/pll.h **** //@{
 150:.././hal/sam3u1c/inc/pll.h **** /**
 151:.././hal/sam3u1c/inc/pll.h ****  * \def PLL_MAX_STARTUP_CYCLES
 152:.././hal/sam3u1c/inc/pll.h ****  * \brief Maximum PLL startup time in number of slow clock cycles
 153:.././hal/sam3u1c/inc/pll.h ****  */
 154:.././hal/sam3u1c/inc/pll.h **** /**
 155:.././hal/sam3u1c/inc/pll.h ****  * \def NR_PLLS
 156:.././hal/sam3u1c/inc/pll.h ****  * \brief Number of on-chip PLLs
 157:.././hal/sam3u1c/inc/pll.h ****  */
 158:.././hal/sam3u1c/inc/pll.h **** 
 159:.././hal/sam3u1c/inc/pll.h **** /**
 160:.././hal/sam3u1c/inc/pll.h ****  * \def PLL_MIN_HZ
 161:.././hal/sam3u1c/inc/pll.h ****  * \brief Minimum frequency that the PLL can generate
 162:.././hal/sam3u1c/inc/pll.h ****  */
 163:.././hal/sam3u1c/inc/pll.h **** /**
 164:.././hal/sam3u1c/inc/pll.h ****  * \def PLL_MAX_HZ
 165:.././hal/sam3u1c/inc/pll.h ****  * \brief Maximum frequency that the PLL can generate
 166:.././hal/sam3u1c/inc/pll.h ****  */
 167:.././hal/sam3u1c/inc/pll.h **** /**
 168:.././hal/sam3u1c/inc/pll.h ****  * \def PLL_NR_OPTIONS
 169:.././hal/sam3u1c/inc/pll.h ****  * \brief Number of PLL option bits
 170:.././hal/sam3u1c/inc/pll.h ****  */
 171:.././hal/sam3u1c/inc/pll.h **** //@}
 172:.././hal/sam3u1c/inc/pll.h **** 
 173:.././hal/sam3u1c/inc/pll.h **** /**
 174:.././hal/sam3u1c/inc/pll.h ****  * \enum pll_source
 175:.././hal/sam3u1c/inc/pll.h ****  * \brief PLL clock source
 176:.././hal/sam3u1c/inc/pll.h ****  */
 177:.././hal/sam3u1c/inc/pll.h **** 
 178:.././hal/sam3u1c/inc/pll.h **** //! \name PLL configuration
 179:.././hal/sam3u1c/inc/pll.h **** //@{
 180:.././hal/sam3u1c/inc/pll.h **** 
 181:.././hal/sam3u1c/inc/pll.h **** /**
 182:.././hal/sam3u1c/inc/pll.h ****  * \struct pll_config
 183:.././hal/sam3u1c/inc/pll.h ****  * \brief Hardware-specific representation of PLL configuration.
 184:.././hal/sam3u1c/inc/pll.h ****  *
 185:.././hal/sam3u1c/inc/pll.h ****  * This structure contains one or more device-specific values
 186:.././hal/sam3u1c/inc/pll.h ****  * representing the current PLL configuration. The contents of this
 187:.././hal/sam3u1c/inc/pll.h ****  * structure is typically different from platform to platform, and the
 188:.././hal/sam3u1c/inc/pll.h ****  * user should not access any fields except through the PLL
 189:.././hal/sam3u1c/inc/pll.h ****  * configuration API.
 190:.././hal/sam3u1c/inc/pll.h ****  */
 191:.././hal/sam3u1c/inc/pll.h **** 
 192:.././hal/sam3u1c/inc/pll.h **** /**
 193:.././hal/sam3u1c/inc/pll.h ****  * \fn void pll_config_init(struct pll_config *cfg,
 194:.././hal/sam3u1c/inc/pll.h ****  *              enum pll_source src, unsigned int div, unsigned int mul)
 195:.././hal/sam3u1c/inc/pll.h ****  * \brief Initialize PLL configuration from standard parameters.
 196:.././hal/sam3u1c/inc/pll.h ****  *
 197:.././hal/sam3u1c/inc/pll.h ****  * \note This function may be defined inline because it is assumed to be
 198:.././hal/sam3u1c/inc/pll.h ****  * called very few times, and usually with constant parameters. Inlining
 199:.././hal/sam3u1c/inc/pll.h ****  * it will in such cases reduce the code size significantly.
 200:.././hal/sam3u1c/inc/pll.h ****  *
 201:.././hal/sam3u1c/inc/pll.h ****  * \param cfg The PLL configuration to be initialized.
 202:.././hal/sam3u1c/inc/pll.h ****  * \param src The oscillator to be used as input to the PLL.
 203:.././hal/sam3u1c/inc/pll.h ****  * \param div PLL input divider.
 204:.././hal/sam3u1c/inc/pll.h ****  * \param mul PLL loop divider (i.e. multiplier).
 205:.././hal/sam3u1c/inc/pll.h ****  *
 206:.././hal/sam3u1c/inc/pll.h ****  * \return A configuration which will make the PLL run at
 207:.././hal/sam3u1c/inc/pll.h ****  * (\a mul / \a div) times the frequency of \a src
 208:.././hal/sam3u1c/inc/pll.h ****  */
 209:.././hal/sam3u1c/inc/pll.h **** /**
 210:.././hal/sam3u1c/inc/pll.h ****  * \def pll_config_defaults(cfg, pll_id)
 211:.././hal/sam3u1c/inc/pll.h ****  * \brief Initialize PLL configuration using default parameters.
 212:.././hal/sam3u1c/inc/pll.h ****  *
 213:.././hal/sam3u1c/inc/pll.h ****  * After this function returns, \a cfg will contain a configuration
 214:.././hal/sam3u1c/inc/pll.h ****  * which will make the PLL run at (CONFIG_PLLx_MUL / CONFIG_PLLx_DIV)
 215:.././hal/sam3u1c/inc/pll.h ****  * times the frequency of CONFIG_PLLx_SOURCE.
 216:.././hal/sam3u1c/inc/pll.h ****  *
 217:.././hal/sam3u1c/inc/pll.h ****  * \param cfg The PLL configuration to be initialized.
 218:.././hal/sam3u1c/inc/pll.h ****  * \param pll_id Use defaults for this PLL.
 219:.././hal/sam3u1c/inc/pll.h ****  */
 220:.././hal/sam3u1c/inc/pll.h **** /**
 221:.././hal/sam3u1c/inc/pll.h ****  * \def pll_get_default_rate(pll_id)
 222:.././hal/sam3u1c/inc/pll.h ****  * \brief Get the default rate in Hz of \a pll_id
 223:.././hal/sam3u1c/inc/pll.h ****  */
 224:.././hal/sam3u1c/inc/pll.h **** /**
 225:.././hal/sam3u1c/inc/pll.h ****  * \fn void pll_config_set_option(struct pll_config *cfg,
 226:.././hal/sam3u1c/inc/pll.h ****  *              unsigned int option)
 227:.././hal/sam3u1c/inc/pll.h ****  * \brief Set the PLL option bit \a option in the configuration \a cfg.
 228:.././hal/sam3u1c/inc/pll.h ****  *
 229:.././hal/sam3u1c/inc/pll.h ****  * \param cfg The PLL configuration to be changed.
 230:.././hal/sam3u1c/inc/pll.h ****  * \param option The PLL option bit to be set.
 231:.././hal/sam3u1c/inc/pll.h ****  */
 232:.././hal/sam3u1c/inc/pll.h **** /**
 233:.././hal/sam3u1c/inc/pll.h ****  * \fn void pll_config_clear_option(struct pll_config *cfg,
 234:.././hal/sam3u1c/inc/pll.h ****  *              unsigned int option)
 235:.././hal/sam3u1c/inc/pll.h ****  * \brief Clear the PLL option bit \a option in the configuration \a cfg.
 236:.././hal/sam3u1c/inc/pll.h ****  *
 237:.././hal/sam3u1c/inc/pll.h ****  * \param cfg The PLL configuration to be changed.
 238:.././hal/sam3u1c/inc/pll.h ****  * \param option The PLL option bit to be cleared.
 239:.././hal/sam3u1c/inc/pll.h ****  */
 240:.././hal/sam3u1c/inc/pll.h **** /**
 241:.././hal/sam3u1c/inc/pll.h ****  * \fn void pll_config_read(struct pll_config *cfg, unsigned int pll_id)
 242:.././hal/sam3u1c/inc/pll.h ****  * \brief Read the currently active configuration of \a pll_id.
 243:.././hal/sam3u1c/inc/pll.h ****  *
 244:.././hal/sam3u1c/inc/pll.h ****  * \param cfg The configuration object into which to store the currently
 245:.././hal/sam3u1c/inc/pll.h ****  * active configuration.
 246:.././hal/sam3u1c/inc/pll.h ****  * \param pll_id The ID of the PLL to be accessed.
 247:.././hal/sam3u1c/inc/pll.h ****  */
 248:.././hal/sam3u1c/inc/pll.h **** /**
 249:.././hal/sam3u1c/inc/pll.h ****  * \fn void pll_config_write(const struct pll_config *cfg,
 250:.././hal/sam3u1c/inc/pll.h ****  *              unsigned int pll_id)
 251:.././hal/sam3u1c/inc/pll.h ****  * \brief Activate the configuration \a cfg on \a pll_id
 252:.././hal/sam3u1c/inc/pll.h ****  *
 253:.././hal/sam3u1c/inc/pll.h ****  * \param cfg The configuration object representing the PLL
 254:.././hal/sam3u1c/inc/pll.h ****  * configuration to be activated.
 255:.././hal/sam3u1c/inc/pll.h ****  * \param pll_id The ID of the PLL to be updated.
 256:.././hal/sam3u1c/inc/pll.h ****  */
 257:.././hal/sam3u1c/inc/pll.h **** 
 258:.././hal/sam3u1c/inc/pll.h **** //@}
 259:.././hal/sam3u1c/inc/pll.h **** 
 260:.././hal/sam3u1c/inc/pll.h **** //! \name Interaction with the PLL hardware
 261:.././hal/sam3u1c/inc/pll.h **** //@{
 262:.././hal/sam3u1c/inc/pll.h **** /**
 263:.././hal/sam3u1c/inc/pll.h ****  * \fn void pll_enable(const struct pll_config *cfg,
 264:.././hal/sam3u1c/inc/pll.h ****  *              unsigned int pll_id)
 265:.././hal/sam3u1c/inc/pll.h ****  * \brief Activate the configuration \a cfg and enable PLL \a pll_id.
 266:.././hal/sam3u1c/inc/pll.h ****  *
 267:.././hal/sam3u1c/inc/pll.h ****  * \param cfg The PLL configuration to be activated.
 268:.././hal/sam3u1c/inc/pll.h ****  * \param pll_id The ID of the PLL to be enabled.
 269:.././hal/sam3u1c/inc/pll.h ****  */
 270:.././hal/sam3u1c/inc/pll.h **** /**
 271:.././hal/sam3u1c/inc/pll.h ****  * \fn void pll_disable(unsigned int pll_id)
 272:.././hal/sam3u1c/inc/pll.h ****  * \brief Disable the PLL identified by \a pll_id.
 273:.././hal/sam3u1c/inc/pll.h ****  *
 274:.././hal/sam3u1c/inc/pll.h ****  * After this function is called, the PLL identified by \a pll_id will
 275:.././hal/sam3u1c/inc/pll.h ****  * be disabled. The PLL configuration stored in hardware may be affected
 276:.././hal/sam3u1c/inc/pll.h ****  * by this, so if the caller needs to restore the same configuration
 277:.././hal/sam3u1c/inc/pll.h ****  * later, it should either do a pll_config_read() before disabling the
 278:.././hal/sam3u1c/inc/pll.h ****  * PLL, or remember the last configuration written to the PLL.
 279:.././hal/sam3u1c/inc/pll.h ****  *
 280:.././hal/sam3u1c/inc/pll.h ****  * \param pll_id The ID of the PLL to be disabled.
 281:.././hal/sam3u1c/inc/pll.h ****  */
 282:.././hal/sam3u1c/inc/pll.h **** /**
 283:.././hal/sam3u1c/inc/pll.h ****  * \fn bool pll_is_locked(unsigned int pll_id)
 284:.././hal/sam3u1c/inc/pll.h ****  * \brief Determine whether the PLL is locked or not.
 285:.././hal/sam3u1c/inc/pll.h ****  *
 286:.././hal/sam3u1c/inc/pll.h ****  * \param pll_id The ID of the PLL to check.
 287:.././hal/sam3u1c/inc/pll.h ****  *
 288:.././hal/sam3u1c/inc/pll.h ****  * \retval true The PLL is locked and ready to use as a clock source
 289:.././hal/sam3u1c/inc/pll.h ****  * \retval false The PLL is not yet locked, or has not been enabled.
 290:.././hal/sam3u1c/inc/pll.h ****  */
 291:.././hal/sam3u1c/inc/pll.h **** /**
 292:.././hal/sam3u1c/inc/pll.h ****  * \fn void pll_enable_source(enum pll_source src)
 293:.././hal/sam3u1c/inc/pll.h ****  * \brief Enable the source of the pll.
 294:.././hal/sam3u1c/inc/pll.h ****  * The source is enabled, if the source is not already running.
 295:.././hal/sam3u1c/inc/pll.h ****  *
 296:.././hal/sam3u1c/inc/pll.h ****  * \param src The ID of the PLL source to enable.
 297:.././hal/sam3u1c/inc/pll.h ****  */
 298:.././hal/sam3u1c/inc/pll.h **** /**
 299:.././hal/sam3u1c/inc/pll.h ****  * \fn void pll_enable_config_defaults(unsigned int pll_id)
 300:.././hal/sam3u1c/inc/pll.h ****  * \brief Enable the pll with the default configuration.
 301:.././hal/sam3u1c/inc/pll.h ****  * PLL is enabled, if the PLL is not already locked.
 302:.././hal/sam3u1c/inc/pll.h ****  *
 303:.././hal/sam3u1c/inc/pll.h ****  * \param pll_id The ID of the PLL to enable.
 304:.././hal/sam3u1c/inc/pll.h ****  */
 305:.././hal/sam3u1c/inc/pll.h **** 
 306:.././hal/sam3u1c/inc/pll.h **** /**
 307:.././hal/sam3u1c/inc/pll.h ****  * \brief Wait for PLL \a pll_id to become locked
 308:.././hal/sam3u1c/inc/pll.h ****  *
 309:.././hal/sam3u1c/inc/pll.h ****  * \todo Use a timeout to avoid waiting forever and hanging the system
 310:.././hal/sam3u1c/inc/pll.h ****  *
 311:.././hal/sam3u1c/inc/pll.h ****  * \param pll_id The ID of the PLL to wait for.
 312:.././hal/sam3u1c/inc/pll.h ****  *
 313:.././hal/sam3u1c/inc/pll.h ****  * \retval STATUS_OK The PLL is now locked.
 314:.././hal/sam3u1c/inc/pll.h ****  * \retval ERR_TIMEOUT Timed out waiting for PLL to become locked.
 315:.././hal/sam3u1c/inc/pll.h ****  */
 316:.././hal/sam3u1c/inc/pll.h **** static inline int pll_wait_for_lock(unsigned int pll_id)
 317:.././hal/sam3u1c/inc/pll.h **** {
 773              	 .loc 4 317 0
 774              	 .cfi_startproc
 775              	 
 776              	 
 777 0000 80B5     	 push {r7,lr}
 778              	.LCFI46:
 779              	 .cfi_def_cfa_offset 8
 780              	 .cfi_offset 7,-8
 781              	 .cfi_offset 14,-4
 782 0002 82B0     	 sub sp,sp,#8
 783              	.LCFI47:
 784              	 .cfi_def_cfa_offset 16
 785 0004 00AF     	 add r7,sp,#0
 786              	.LCFI48:
 787              	 .cfi_def_cfa_register 7
 788 0006 7860     	 str r0,[r7,#4]
 318:.././hal/sam3u1c/inc/pll.h **** 	Assert(pll_id < NR_PLLS);
 319:.././hal/sam3u1c/inc/pll.h **** 
 320:.././hal/sam3u1c/inc/pll.h **** 	while (!pll_is_locked(pll_id)) {
 789              	 .loc 4 320 0
 790 0008 00BF     	 nop
 791              	.L74:
 792              	 .loc 4 320 0 is_stmt 0 discriminator 1
 793 000a 7868     	 ldr r0,[r7,#4]
 794 000c 044B     	 ldr r3,.L76
 795 000e 9847     	 blx r3
 796              	.LVL18:
 797 0010 0346     	 mov r3,r0
 798 0012 002B     	 cmp r3,#0
 799 0014 F9D0     	 beq .L74
 321:.././hal/sam3u1c/inc/pll.h **** 		/* Do nothing */
 322:.././hal/sam3u1c/inc/pll.h **** 	}
 323:.././hal/sam3u1c/inc/pll.h **** 
 324:.././hal/sam3u1c/inc/pll.h **** 	return 0;
 800              	 .loc 4 324 0 is_stmt 1
 801 0016 0023     	 movs r3,#0
 325:.././hal/sam3u1c/inc/pll.h **** }
 802              	 .loc 4 325 0
 803 0018 1846     	 mov r0,r3
 804 001a 0837     	 adds r7,r7,#8
 805              	.LCFI49:
 806              	 .cfi_def_cfa_offset 8
 807 001c BD46     	 mov sp,r7
 808              	.LCFI50:
 809              	 .cfi_def_cfa_register 13
 810              	 
 811 001e 80BD     	 pop {r7,pc}
 812              	.L77:
 813              	 .align 2
 814              	.L76:
 815 0020 00000000 	 .word pll_is_locked
 816              	 .cfi_endproc
 817              	.LFE82:
 819              	 .section .text.sysclk_get_main_hz,"ax",%progbits
 820              	 .align 1
 821              	 .syntax unified
 822              	 .thumb
 823              	 .thumb_func
 824              	 .fpu softvfp
 826              	sysclk_get_main_hz:
 827              	.LFB83:
 828              	 .file 5 ".././hal/sam3u1c/inc/sam3u/sysclk.h"
   1:.././hal/sam3u1c/inc/sam3u/sysclk.h **** /**
   2:.././hal/sam3u1c/inc/sam3u/sysclk.h ****  * \file
   3:.././hal/sam3u1c/inc/sam3u/sysclk.h ****  *
   4:.././hal/sam3u1c/inc/sam3u/sysclk.h ****  * \brief Chip-specific system clock management functions.
   5:.././hal/sam3u1c/inc/sam3u/sysclk.h ****  *
   6:.././hal/sam3u1c/inc/sam3u/sysclk.h ****  * Copyright (c) 2011 - 2014 Atmel Corporation. All rights reserved.
   7:.././hal/sam3u1c/inc/sam3u/sysclk.h ****  *
   8:.././hal/sam3u1c/inc/sam3u/sysclk.h ****  * \asf_license_start
   9:.././hal/sam3u1c/inc/sam3u/sysclk.h ****  *
  10:.././hal/sam3u1c/inc/sam3u/sysclk.h ****  * \page License
  11:.././hal/sam3u1c/inc/sam3u/sysclk.h ****  *
  12:.././hal/sam3u1c/inc/sam3u/sysclk.h ****  * Redistribution and use in source and binary forms, with or without
  13:.././hal/sam3u1c/inc/sam3u/sysclk.h ****  * modification, are permitted provided that the following conditions are met:
  14:.././hal/sam3u1c/inc/sam3u/sysclk.h ****  *
  15:.././hal/sam3u1c/inc/sam3u/sysclk.h ****  * 1. Redistributions of source code must retain the above copyright notice,
  16:.././hal/sam3u1c/inc/sam3u/sysclk.h ****  *    this list of conditions and the following disclaimer.
  17:.././hal/sam3u1c/inc/sam3u/sysclk.h ****  *
  18:.././hal/sam3u1c/inc/sam3u/sysclk.h ****  * 2. Redistributions in binary form must reproduce the above copyright notice,
  19:.././hal/sam3u1c/inc/sam3u/sysclk.h ****  *    this list of conditions and the following disclaimer in the documentation
  20:.././hal/sam3u1c/inc/sam3u/sysclk.h ****  *    and/or other materials provided with the distribution.
  21:.././hal/sam3u1c/inc/sam3u/sysclk.h ****  *
  22:.././hal/sam3u1c/inc/sam3u/sysclk.h ****  * 3. The name of Atmel may not be used to endorse or promote products derived
  23:.././hal/sam3u1c/inc/sam3u/sysclk.h ****  *    from this software without specific prior written permission.
  24:.././hal/sam3u1c/inc/sam3u/sysclk.h ****  *
  25:.././hal/sam3u1c/inc/sam3u/sysclk.h ****  * 4. This software may only be redistributed and used in connection with an
  26:.././hal/sam3u1c/inc/sam3u/sysclk.h ****  *    Atmel microcontroller product.
  27:.././hal/sam3u1c/inc/sam3u/sysclk.h ****  *
  28:.././hal/sam3u1c/inc/sam3u/sysclk.h ****  * THIS SOFTWARE IS PROVIDED BY ATMEL "AS IS" AND ANY EXPRESS OR IMPLIED
  29:.././hal/sam3u1c/inc/sam3u/sysclk.h ****  * WARRANTIES, INCLUDING, BUT NOT LIMITED TO, THE IMPLIED WARRANTIES OF
  30:.././hal/sam3u1c/inc/sam3u/sysclk.h ****  * MERCHANTABILITY, FITNESS FOR A PARTICULAR PURPOSE AND NON-INFRINGEMENT ARE
  31:.././hal/sam3u1c/inc/sam3u/sysclk.h ****  * EXPRESSLY AND SPECIFICALLY DISCLAIMED. IN NO EVENT SHALL ATMEL BE LIABLE FOR
  32:.././hal/sam3u1c/inc/sam3u/sysclk.h ****  * ANY DIRECT, INDIRECT, INCIDENTAL, SPECIAL, EXEMPLARY, OR CONSEQUENTIAL
  33:.././hal/sam3u1c/inc/sam3u/sysclk.h ****  * DAMAGES (INCLUDING, BUT NOT LIMITED TO, PROCUREMENT OF SUBSTITUTE GOODS
  34:.././hal/sam3u1c/inc/sam3u/sysclk.h ****  * OR SERVICES; LOSS OF USE, DATA, OR PROFITS; OR BUSINESS INTERRUPTION)
  35:.././hal/sam3u1c/inc/sam3u/sysclk.h ****  * HOWEVER CAUSED AND ON ANY THEORY OF LIABILITY, WHETHER IN CONTRACT,
  36:.././hal/sam3u1c/inc/sam3u/sysclk.h ****  * STRICT LIABILITY, OR TORT (INCLUDING NEGLIGENCE OR OTHERWISE) ARISING IN
  37:.././hal/sam3u1c/inc/sam3u/sysclk.h ****  * ANY WAY OUT OF THE USE OF THIS SOFTWARE, EVEN IF ADVISED OF THE
  38:.././hal/sam3u1c/inc/sam3u/sysclk.h ****  * POSSIBILITY OF SUCH DAMAGE.
  39:.././hal/sam3u1c/inc/sam3u/sysclk.h ****  *
  40:.././hal/sam3u1c/inc/sam3u/sysclk.h ****  * \asf_license_stop
  41:.././hal/sam3u1c/inc/sam3u/sysclk.h ****  *
  42:.././hal/sam3u1c/inc/sam3u/sysclk.h ****  */
  43:.././hal/sam3u1c/inc/sam3u/sysclk.h **** 
  44:.././hal/sam3u1c/inc/sam3u/sysclk.h **** #ifndef CHIP_SYSCLK_H_INCLUDED
  45:.././hal/sam3u1c/inc/sam3u/sysclk.h **** #define CHIP_SYSCLK_H_INCLUDED
  46:.././hal/sam3u1c/inc/sam3u/sysclk.h **** 
  47:.././hal/sam3u1c/inc/sam3u/sysclk.h **** #include <osc.h>
  48:.././hal/sam3u1c/inc/sam3u/sysclk.h **** #include <pll.h>
  49:.././hal/sam3u1c/inc/sam3u/sysclk.h **** 
  50:.././hal/sam3u1c/inc/sam3u/sysclk.h **** /**
  51:.././hal/sam3u1c/inc/sam3u/sysclk.h ****  * \page sysclk_quickstart Quick Start Guide for the System Clock Management service (SAM3U)
  52:.././hal/sam3u1c/inc/sam3u/sysclk.h ****  *
  53:.././hal/sam3u1c/inc/sam3u/sysclk.h ****  * This is the quick start guide for the \ref sysclk_group "System Clock Management"
  54:.././hal/sam3u1c/inc/sam3u/sysclk.h ****  * service, with step-by-step instructions on how to configure and use the service for
  55:.././hal/sam3u1c/inc/sam3u/sysclk.h ****  * specific use cases.
  56:.././hal/sam3u1c/inc/sam3u/sysclk.h ****  *
  57:.././hal/sam3u1c/inc/sam3u/sysclk.h ****  * \section sysclk_quickstart_usecases System Clock Management use cases
  58:.././hal/sam3u1c/inc/sam3u/sysclk.h ****  * - \ref sysclk_quickstart_basic
  59:.././hal/sam3u1c/inc/sam3u/sysclk.h ****  *
  60:.././hal/sam3u1c/inc/sam3u/sysclk.h ****  * \section sysclk_quickstart_basic Basic usage of the System Clock Management service
  61:.././hal/sam3u1c/inc/sam3u/sysclk.h ****  * This section will present a basic use case for the System Clock Management service.
  62:.././hal/sam3u1c/inc/sam3u/sysclk.h ****  * This use case will configure the main system clock to 96MHz, using an internal PLL
  63:.././hal/sam3u1c/inc/sam3u/sysclk.h ****  * module to multiply the frequency of a crystal attached to the microcontroller.
  64:.././hal/sam3u1c/inc/sam3u/sysclk.h ****  *
  65:.././hal/sam3u1c/inc/sam3u/sysclk.h ****  * \subsection sysclk_quickstart_use_case_1_prereq Prerequisites
  66:.././hal/sam3u1c/inc/sam3u/sysclk.h ****  *  - None
  67:.././hal/sam3u1c/inc/sam3u/sysclk.h ****  *
  68:.././hal/sam3u1c/inc/sam3u/sysclk.h ****  * \subsection sysclk_quickstart_use_case_1_setup_steps Initialization code
  69:.././hal/sam3u1c/inc/sam3u/sysclk.h ****  * Add to the application initialization code:
  70:.././hal/sam3u1c/inc/sam3u/sysclk.h ****  * \code
  71:.././hal/sam3u1c/inc/sam3u/sysclk.h **** 	sysclk_init();
  72:.././hal/sam3u1c/inc/sam3u/sysclk.h **** \endcode
  73:.././hal/sam3u1c/inc/sam3u/sysclk.h ****  *
  74:.././hal/sam3u1c/inc/sam3u/sysclk.h ****  * \subsection sysclk_quickstart_use_case_1_setup_steps_workflow Workflow
  75:.././hal/sam3u1c/inc/sam3u/sysclk.h ****  * -# Configure the system clocks according to the settings in conf_clock.h:
  76:.././hal/sam3u1c/inc/sam3u/sysclk.h ****  *    \code sysclk_init(); \endcode
  77:.././hal/sam3u1c/inc/sam3u/sysclk.h ****  *
  78:.././hal/sam3u1c/inc/sam3u/sysclk.h ****  * \subsection sysclk_quickstart_use_case_1_example_code Example code
  79:.././hal/sam3u1c/inc/sam3u/sysclk.h ****  *   Add or uncomment the following in your conf_clock.h header file, commenting out all other
  80:.././hal/sam3u1c/inc/sam3u/sysclk.h ****  *   definitions of the same symbol(s):
  81:.././hal/sam3u1c/inc/sam3u/sysclk.h ****  *   \code
  82:.././hal/sam3u1c/inc/sam3u/sysclk.h **** 	   #define CONFIG_SYSCLK_SOURCE        SYSCLK_SRC_PLLACK
  83:.././hal/sam3u1c/inc/sam3u/sysclk.h **** 
  84:.././hal/sam3u1c/inc/sam3u/sysclk.h **** 	   // Fpll0 = (Fclk * PLL_mul) / PLL_div
  85:.././hal/sam3u1c/inc/sam3u/sysclk.h **** 	   #define CONFIG_PLL0_SOURCE          PLL_SRC_MAINCK_XTAL
  86:.././hal/sam3u1c/inc/sam3u/sysclk.h **** 	   #define CONFIG_PLL0_MUL             (96000000UL / BOARD_FREQ_MAINCK_XTAL)
  87:.././hal/sam3u1c/inc/sam3u/sysclk.h **** 	   #define CONFIG_PLL0_DIV             1
  88:.././hal/sam3u1c/inc/sam3u/sysclk.h **** 
  89:.././hal/sam3u1c/inc/sam3u/sysclk.h **** 	   // Fbus = Fsys / BUS_div
  90:.././hal/sam3u1c/inc/sam3u/sysclk.h **** 	   #define CONFIG_SYSCLK_PRES          SYSCLK_PRES_1
  91:.././hal/sam3u1c/inc/sam3u/sysclk.h **** \endcode
  92:.././hal/sam3u1c/inc/sam3u/sysclk.h ****  *
  93:.././hal/sam3u1c/inc/sam3u/sysclk.h ****  * \subsection sysclk_quickstart_use_case_1_example_workflow Workflow
  94:.././hal/sam3u1c/inc/sam3u/sysclk.h ****  *  -# Configure the main system clock to use the output of the PLL module as its source:
  95:.././hal/sam3u1c/inc/sam3u/sysclk.h ****  *   \code #define CONFIG_SYSCLK_SOURCE          SYSCLK_SRC_PLLACK \endcode
  96:.././hal/sam3u1c/inc/sam3u/sysclk.h ****  *  -# Configure the PLL module to use the fast external fast crystal oscillator as its source:
  97:.././hal/sam3u1c/inc/sam3u/sysclk.h ****  *   \code #define CONFIG_PLL0_SOURCE            PLL_SRC_MAINCK_XTAL \endcode
  98:.././hal/sam3u1c/inc/sam3u/sysclk.h ****  *  -# Configure the PLL module to multiply the external fast crystal oscillator frequency up to 96
  99:.././hal/sam3u1c/inc/sam3u/sysclk.h ****  *   \code
 100:.././hal/sam3u1c/inc/sam3u/sysclk.h **** 	#define CONFIG_PLL0_MUL             (96000000UL / BOARD_FREQ_MAINCK_XTAL)
 101:.././hal/sam3u1c/inc/sam3u/sysclk.h **** 	#define CONFIG_PLL0_DIV             1
 102:.././hal/sam3u1c/inc/sam3u/sysclk.h **** \endcode
 103:.././hal/sam3u1c/inc/sam3u/sysclk.h ****  *   \note For user boards, \c BOARD_FREQ_MAINCK_XTAL should be defined in the board \c conf_board.
 104:.././hal/sam3u1c/inc/sam3u/sysclk.h ****  *         file as the frequency of the fast crystal attached to the microcontroller.
 105:.././hal/sam3u1c/inc/sam3u/sysclk.h ****  *  -# Configure the main clock to run at the full 96MHz, disable scaling of the main system clock 
 106:.././hal/sam3u1c/inc/sam3u/sysclk.h ****  *    \code
 107:.././hal/sam3u1c/inc/sam3u/sysclk.h **** 	#define CONFIG_SYSCLK_PRES         SYSCLK_PRES_1
 108:.././hal/sam3u1c/inc/sam3u/sysclk.h **** \endcode
 109:.././hal/sam3u1c/inc/sam3u/sysclk.h ****  *    \note Some dividers are powers of two, while others are integer division factors. Refer to th
 110:.././hal/sam3u1c/inc/sam3u/sysclk.h ****  *          formulas in the conf_clock.h template commented above each division define.
 111:.././hal/sam3u1c/inc/sam3u/sysclk.h ****  */
 112:.././hal/sam3u1c/inc/sam3u/sysclk.h **** 
 113:.././hal/sam3u1c/inc/sam3u/sysclk.h **** /// @cond 0
 114:.././hal/sam3u1c/inc/sam3u/sysclk.h **** /**INDENT-OFF**/
 115:.././hal/sam3u1c/inc/sam3u/sysclk.h **** #ifdef __cplusplus
 116:.././hal/sam3u1c/inc/sam3u/sysclk.h **** extern "C" {
 117:.././hal/sam3u1c/inc/sam3u/sysclk.h **** #endif
 118:.././hal/sam3u1c/inc/sam3u/sysclk.h **** /**INDENT-ON**/
 119:.././hal/sam3u1c/inc/sam3u/sysclk.h **** /// @endcond
 120:.././hal/sam3u1c/inc/sam3u/sysclk.h **** 
 121:.././hal/sam3u1c/inc/sam3u/sysclk.h **** /**
 122:.././hal/sam3u1c/inc/sam3u/sysclk.h ****  * \weakgroup sysclk_group
 123:.././hal/sam3u1c/inc/sam3u/sysclk.h ****  * @{
 124:.././hal/sam3u1c/inc/sam3u/sysclk.h ****  */
 125:.././hal/sam3u1c/inc/sam3u/sysclk.h **** 
 126:.././hal/sam3u1c/inc/sam3u/sysclk.h **** //! \name Configuration Symbols
 127:.././hal/sam3u1c/inc/sam3u/sysclk.h **** //@{
 128:.././hal/sam3u1c/inc/sam3u/sysclk.h **** /**
 129:.././hal/sam3u1c/inc/sam3u/sysclk.h ****  * \def CONFIG_SYSCLK_SOURCE
 130:.././hal/sam3u1c/inc/sam3u/sysclk.h ****  * \brief Initial/static main system clock source
 131:.././hal/sam3u1c/inc/sam3u/sysclk.h ****  *
 132:.././hal/sam3u1c/inc/sam3u/sysclk.h ****  * The main system clock will be configured to use this clock during
 133:.././hal/sam3u1c/inc/sam3u/sysclk.h ****  * initialization.
 134:.././hal/sam3u1c/inc/sam3u/sysclk.h ****  */
 135:.././hal/sam3u1c/inc/sam3u/sysclk.h **** #ifndef CONFIG_SYSCLK_SOURCE
 136:.././hal/sam3u1c/inc/sam3u/sysclk.h **** # define CONFIG_SYSCLK_SOURCE   SYSCLK_SRC_MAINCK_4M_RC
 137:.././hal/sam3u1c/inc/sam3u/sysclk.h **** #endif
 138:.././hal/sam3u1c/inc/sam3u/sysclk.h **** /**
 139:.././hal/sam3u1c/inc/sam3u/sysclk.h ****  * \def CONFIG_SYSCLK_PRES
 140:.././hal/sam3u1c/inc/sam3u/sysclk.h ****  * \brief Initial CPU clock divider (mck)
 141:.././hal/sam3u1c/inc/sam3u/sysclk.h ****  *
 142:.././hal/sam3u1c/inc/sam3u/sysclk.h ****  * The MCK will run at
 143:.././hal/sam3u1c/inc/sam3u/sysclk.h ****  * \f[
 144:.././hal/sam3u1c/inc/sam3u/sysclk.h ****  *   f_{MCK} = \frac{f_{sys}}{\mathrm{CONFIG\_SYSCLK\_PRES}}\,\mbox{Hz}
 145:.././hal/sam3u1c/inc/sam3u/sysclk.h ****  * \f]
 146:.././hal/sam3u1c/inc/sam3u/sysclk.h ****  * after initialization.
 147:.././hal/sam3u1c/inc/sam3u/sysclk.h ****  */
 148:.././hal/sam3u1c/inc/sam3u/sysclk.h **** #ifndef CONFIG_SYSCLK_PRES
 149:.././hal/sam3u1c/inc/sam3u/sysclk.h **** # define CONFIG_SYSCLK_PRES  0
 150:.././hal/sam3u1c/inc/sam3u/sysclk.h **** #endif
 151:.././hal/sam3u1c/inc/sam3u/sysclk.h **** 
 152:.././hal/sam3u1c/inc/sam3u/sysclk.h **** //@}
 153:.././hal/sam3u1c/inc/sam3u/sysclk.h **** 
 154:.././hal/sam3u1c/inc/sam3u/sysclk.h **** //! \name Master Clock Sources (MCK)
 155:.././hal/sam3u1c/inc/sam3u/sysclk.h **** //@{
 156:.././hal/sam3u1c/inc/sam3u/sysclk.h **** #define SYSCLK_SRC_SLCK_RC              0       //!< Internal 32kHz RC oscillator as master source 
 157:.././hal/sam3u1c/inc/sam3u/sysclk.h **** #define SYSCLK_SRC_SLCK_XTAL            1       //!< External 32kHz crystal oscillator as master so
 158:.././hal/sam3u1c/inc/sam3u/sysclk.h **** #define SYSCLK_SRC_SLCK_BYPASS          2       //!< External 32kHz bypass oscillator as master sou
 159:.././hal/sam3u1c/inc/sam3u/sysclk.h **** #define SYSCLK_SRC_MAINCK_4M_RC         3       //!< Internal 4MHz RC oscillator as master source c
 160:.././hal/sam3u1c/inc/sam3u/sysclk.h **** #define SYSCLK_SRC_MAINCK_8M_RC         4       //!< Internal 8MHz RC oscillator as master source c
 161:.././hal/sam3u1c/inc/sam3u/sysclk.h **** #define SYSCLK_SRC_MAINCK_12M_RC        5       //!< Internal 12MHz RC oscillator as master source 
 162:.././hal/sam3u1c/inc/sam3u/sysclk.h **** #define SYSCLK_SRC_MAINCK_XTAL          6       //!< External crystal oscillator as master source c
 163:.././hal/sam3u1c/inc/sam3u/sysclk.h **** #define SYSCLK_SRC_MAINCK_BYPASS        7       //!< External bypass oscillator as master source cl
 164:.././hal/sam3u1c/inc/sam3u/sysclk.h **** #define SYSCLK_SRC_PLLACK               8       //!< Use PLLACK as master source clock
 165:.././hal/sam3u1c/inc/sam3u/sysclk.h **** #define SYSCLK_SRC_UPLLCK               9       //!< Use UPLLCK as master source clock
 166:.././hal/sam3u1c/inc/sam3u/sysclk.h **** //@}
 167:.././hal/sam3u1c/inc/sam3u/sysclk.h **** 
 168:.././hal/sam3u1c/inc/sam3u/sysclk.h **** //! \name Master Clock Prescalers (MCK)
 169:.././hal/sam3u1c/inc/sam3u/sysclk.h **** //@{
 170:.././hal/sam3u1c/inc/sam3u/sysclk.h **** #define SYSCLK_PRES_1           PMC_MCKR_PRES_CLK_1     //!< Set master clock prescaler to 1
 171:.././hal/sam3u1c/inc/sam3u/sysclk.h **** #define SYSCLK_PRES_2           PMC_MCKR_PRES_CLK_2     //!< Set master clock prescaler to 2
 172:.././hal/sam3u1c/inc/sam3u/sysclk.h **** #define SYSCLK_PRES_4           PMC_MCKR_PRES_CLK_4     //!< Set master clock prescaler to 4
 173:.././hal/sam3u1c/inc/sam3u/sysclk.h **** #define SYSCLK_PRES_8           PMC_MCKR_PRES_CLK_8     //!< Set master clock prescaler to 8
 174:.././hal/sam3u1c/inc/sam3u/sysclk.h **** #define SYSCLK_PRES_16          PMC_MCKR_PRES_CLK_16    //!< Set master clock prescaler to 16
 175:.././hal/sam3u1c/inc/sam3u/sysclk.h **** #define SYSCLK_PRES_32          PMC_MCKR_PRES_CLK_32    //!< Set master clock prescaler to 32
 176:.././hal/sam3u1c/inc/sam3u/sysclk.h **** #define SYSCLK_PRES_64          PMC_MCKR_PRES_CLK_64    //!< Set master clock prescaler to 64
 177:.././hal/sam3u1c/inc/sam3u/sysclk.h **** #define SYSCLK_PRES_3           PMC_MCKR_PRES_CLK_3     //!< Set master clock prescaler to 3
 178:.././hal/sam3u1c/inc/sam3u/sysclk.h **** //@}
 179:.././hal/sam3u1c/inc/sam3u/sysclk.h **** 
 180:.././hal/sam3u1c/inc/sam3u/sysclk.h **** /**
 181:.././hal/sam3u1c/inc/sam3u/sysclk.h ****  * \def CONFIG_USBCLK_SOURCE
 182:.././hal/sam3u1c/inc/sam3u/sysclk.h ****  * \brief Configuration symbol for the USB generic clock source
 183:.././hal/sam3u1c/inc/sam3u/sysclk.h ****  *
 184:.././hal/sam3u1c/inc/sam3u/sysclk.h ****  * Sets the clock source to use for the USB. The source must also be properly
 185:.././hal/sam3u1c/inc/sam3u/sysclk.h ****  * configured.
 186:.././hal/sam3u1c/inc/sam3u/sysclk.h ****  *
 187:.././hal/sam3u1c/inc/sam3u/sysclk.h ****  * Define this to one of the \c USBCLK_SRC_xxx settings. Leave it undefined if
 188:.././hal/sam3u1c/inc/sam3u/sysclk.h ****  * USB is not required.
 189:.././hal/sam3u1c/inc/sam3u/sysclk.h ****  */
 190:.././hal/sam3u1c/inc/sam3u/sysclk.h **** #ifdef __DOXYGEN__
 191:.././hal/sam3u1c/inc/sam3u/sysclk.h **** # define CONFIG_USBCLK_SOURCE
 192:.././hal/sam3u1c/inc/sam3u/sysclk.h **** #endif
 193:.././hal/sam3u1c/inc/sam3u/sysclk.h **** 
 194:.././hal/sam3u1c/inc/sam3u/sysclk.h **** /**
 195:.././hal/sam3u1c/inc/sam3u/sysclk.h ****  * \def CONFIG_USBCLK_DIV
 196:.././hal/sam3u1c/inc/sam3u/sysclk.h ****  * \brief Configuration symbol for the USB generic clock divider setting
 197:.././hal/sam3u1c/inc/sam3u/sysclk.h ****  *
 198:.././hal/sam3u1c/inc/sam3u/sysclk.h ****  * Sets the clock division for the USB generic clock. If a USB clock source is
 199:.././hal/sam3u1c/inc/sam3u/sysclk.h ****  * selected with CONFIG_USBCLK_SOURCE, this configuration symbol must also be
 200:.././hal/sam3u1c/inc/sam3u/sysclk.h ****  * defined.
 201:.././hal/sam3u1c/inc/sam3u/sysclk.h ****  */
 202:.././hal/sam3u1c/inc/sam3u/sysclk.h **** #ifdef __DOXYGEN__
 203:.././hal/sam3u1c/inc/sam3u/sysclk.h **** # define CONFIG_USBCLK_DIV
 204:.././hal/sam3u1c/inc/sam3u/sysclk.h **** #endif
 205:.././hal/sam3u1c/inc/sam3u/sysclk.h **** 
 206:.././hal/sam3u1c/inc/sam3u/sysclk.h **** /**
 207:.././hal/sam3u1c/inc/sam3u/sysclk.h ****  * \name Querying the system clock
 208:.././hal/sam3u1c/inc/sam3u/sysclk.h ****  *
 209:.././hal/sam3u1c/inc/sam3u/sysclk.h ****  * The following functions may be used to query the current frequency of
 210:.././hal/sam3u1c/inc/sam3u/sysclk.h ****  * the system clock and the CPU and bus clocks derived from it.
 211:.././hal/sam3u1c/inc/sam3u/sysclk.h ****  * sysclk_get_main_hz() and sysclk_get_cpu_hz() can be assumed to be
 212:.././hal/sam3u1c/inc/sam3u/sysclk.h ****  * available on all platforms, although some platforms may define
 213:.././hal/sam3u1c/inc/sam3u/sysclk.h ****  * additional accessors for various chip-internal bus clocks. These are
 214:.././hal/sam3u1c/inc/sam3u/sysclk.h ****  * usually not intended to be queried directly by generic code.
 215:.././hal/sam3u1c/inc/sam3u/sysclk.h ****  */
 216:.././hal/sam3u1c/inc/sam3u/sysclk.h **** //@{
 217:.././hal/sam3u1c/inc/sam3u/sysclk.h **** 
 218:.././hal/sam3u1c/inc/sam3u/sysclk.h **** /**
 219:.././hal/sam3u1c/inc/sam3u/sysclk.h ****  * \brief Return the current rate in Hz of the main system clock
 220:.././hal/sam3u1c/inc/sam3u/sysclk.h ****  *
 221:.././hal/sam3u1c/inc/sam3u/sysclk.h ****  * \todo This function assumes that the main clock source never changes
 222:.././hal/sam3u1c/inc/sam3u/sysclk.h ****  * once it's been set up, and that PLL0 always runs at the compile-time
 223:.././hal/sam3u1c/inc/sam3u/sysclk.h ****  * configured default rate. While this is probably the most common
 224:.././hal/sam3u1c/inc/sam3u/sysclk.h ****  * configuration, which we want to support as a special case for
 225:.././hal/sam3u1c/inc/sam3u/sysclk.h ****  * performance reasons, we will at some point need to support more
 226:.././hal/sam3u1c/inc/sam3u/sysclk.h ****  * dynamic setups as well.
 227:.././hal/sam3u1c/inc/sam3u/sysclk.h ****  */
 228:.././hal/sam3u1c/inc/sam3u/sysclk.h **** #if (defined CONFIG_SYSCLK_DEFAULT_RETURNS_SLOW_OSC)
 229:.././hal/sam3u1c/inc/sam3u/sysclk.h **** extern uint32_t sysclk_initialized;
 230:.././hal/sam3u1c/inc/sam3u/sysclk.h **** #endif
 231:.././hal/sam3u1c/inc/sam3u/sysclk.h **** static inline uint32_t sysclk_get_main_hz(void)
 232:.././hal/sam3u1c/inc/sam3u/sysclk.h **** {
 829              	 .loc 5 232 0
 830              	 .cfi_startproc
 831              	 
 832              	 
 833 0000 80B5     	 push {r7,lr}
 834              	.LCFI51:
 835              	 .cfi_def_cfa_offset 8
 836              	 .cfi_offset 7,-8
 837              	 .cfi_offset 14,-4
 838 0002 00AF     	 add r7,sp,#0
 839              	.LCFI52:
 840              	 .cfi_def_cfa_register 7
 233:.././hal/sam3u1c/inc/sam3u/sysclk.h **** #if (defined CONFIG_SYSCLK_DEFAULT_RETURNS_SLOW_OSC)
 234:.././hal/sam3u1c/inc/sam3u/sysclk.h **** 	if (!sysclk_initialized ) {
 235:.././hal/sam3u1c/inc/sam3u/sysclk.h **** 		return OSC_MAINCK_4M_RC_HZ;
 236:.././hal/sam3u1c/inc/sam3u/sysclk.h **** 	}
 237:.././hal/sam3u1c/inc/sam3u/sysclk.h **** #endif
 238:.././hal/sam3u1c/inc/sam3u/sysclk.h **** 
 239:.././hal/sam3u1c/inc/sam3u/sysclk.h **** 	/* Config system clock setting */
 240:.././hal/sam3u1c/inc/sam3u/sysclk.h **** 	if (CONFIG_SYSCLK_SOURCE == SYSCLK_SRC_SLCK_RC) {
 241:.././hal/sam3u1c/inc/sam3u/sysclk.h **** 		return OSC_SLCK_32K_RC_HZ;
 242:.././hal/sam3u1c/inc/sam3u/sysclk.h **** 	} else if (CONFIG_SYSCLK_SOURCE == SYSCLK_SRC_SLCK_XTAL) {
 243:.././hal/sam3u1c/inc/sam3u/sysclk.h **** 		return OSC_SLCK_32K_XTAL_HZ;
 244:.././hal/sam3u1c/inc/sam3u/sysclk.h **** 	} else if (CONFIG_SYSCLK_SOURCE == SYSCLK_SRC_SLCK_BYPASS) {
 245:.././hal/sam3u1c/inc/sam3u/sysclk.h **** 		return OSC_SLCK_32K_BYPASS_HZ;
 246:.././hal/sam3u1c/inc/sam3u/sysclk.h **** 	} else if (CONFIG_SYSCLK_SOURCE == SYSCLK_SRC_MAINCK_4M_RC) {
 247:.././hal/sam3u1c/inc/sam3u/sysclk.h **** 		return OSC_MAINCK_4M_RC_HZ;
 248:.././hal/sam3u1c/inc/sam3u/sysclk.h **** 	} else if (CONFIG_SYSCLK_SOURCE == SYSCLK_SRC_MAINCK_8M_RC) {
 249:.././hal/sam3u1c/inc/sam3u/sysclk.h **** 		return OSC_MAINCK_8M_RC_HZ;
 250:.././hal/sam3u1c/inc/sam3u/sysclk.h **** 	} else if (CONFIG_SYSCLK_SOURCE == SYSCLK_SRC_MAINCK_12M_RC) {
 251:.././hal/sam3u1c/inc/sam3u/sysclk.h **** 		return OSC_MAINCK_12M_RC_HZ;
 252:.././hal/sam3u1c/inc/sam3u/sysclk.h **** 	} else if (CONFIG_SYSCLK_SOURCE == SYSCLK_SRC_MAINCK_XTAL) {
 253:.././hal/sam3u1c/inc/sam3u/sysclk.h **** 		return OSC_MAINCK_XTAL_HZ;
 254:.././hal/sam3u1c/inc/sam3u/sysclk.h **** 	} else if (CONFIG_SYSCLK_SOURCE == SYSCLK_SRC_MAINCK_BYPASS) {
 255:.././hal/sam3u1c/inc/sam3u/sysclk.h **** 		return OSC_MAINCK_BYPASS_HZ;
 256:.././hal/sam3u1c/inc/sam3u/sysclk.h **** 	}
 257:.././hal/sam3u1c/inc/sam3u/sysclk.h **** #ifdef CONFIG_PLL0_SOURCE
 258:.././hal/sam3u1c/inc/sam3u/sysclk.h **** 	else if (CONFIG_SYSCLK_SOURCE == SYSCLK_SRC_PLLACK) {
 259:.././hal/sam3u1c/inc/sam3u/sysclk.h **** 		return pll_get_default_rate(0);
 841              	 .loc 5 259 0
 842 0004 0620     	 movs r0,#6
 843 0006 034B     	 ldr r3,.L80
 844 0008 9847     	 blx r3
 845              	.LVL19:
 846 000a 0346     	 mov r3,r0
 847 000c 1B01     	 lsls r3,r3,#4
 260:.././hal/sam3u1c/inc/sam3u/sysclk.h **** 	}
 261:.././hal/sam3u1c/inc/sam3u/sysclk.h **** #endif
 262:.././hal/sam3u1c/inc/sam3u/sysclk.h **** 
 263:.././hal/sam3u1c/inc/sam3u/sysclk.h **** #ifdef CONFIG_PLL1_SOURCE
 264:.././hal/sam3u1c/inc/sam3u/sysclk.h **** 	else if (CONFIG_SYSCLK_SOURCE == SYSCLK_SRC_UPLLCK) {
 265:.././hal/sam3u1c/inc/sam3u/sysclk.h **** 		return PLL_UPLL_HZ;
 266:.././hal/sam3u1c/inc/sam3u/sysclk.h **** 	}
 267:.././hal/sam3u1c/inc/sam3u/sysclk.h **** #endif
 268:.././hal/sam3u1c/inc/sam3u/sysclk.h **** 	else {
 269:.././hal/sam3u1c/inc/sam3u/sysclk.h **** 		/* unhandled_case(CONFIG_SYSCLK_SOURCE); */
 270:.././hal/sam3u1c/inc/sam3u/sysclk.h **** 		return 0;
 271:.././hal/sam3u1c/inc/sam3u/sysclk.h **** 	}
 272:.././hal/sam3u1c/inc/sam3u/sysclk.h **** }
 848              	 .loc 5 272 0
 849 000e 1846     	 mov r0,r3
 850 0010 80BD     	 pop {r7,pc}
 851              	.L81:
 852 0012 00BF     	 .align 2
 853              	.L80:
 854 0014 00000000 	 .word osc_get_rate
 855              	 .cfi_endproc
 856              	.LFE83:
 858              	 .section .text.sysclk_get_cpu_hz,"ax",%progbits
 859              	 .align 1
 860              	 .syntax unified
 861              	 .thumb
 862              	 .thumb_func
 863              	 .fpu softvfp
 865              	sysclk_get_cpu_hz:
 866              	.LFB84:
 273:.././hal/sam3u1c/inc/sam3u/sysclk.h **** 
 274:.././hal/sam3u1c/inc/sam3u/sysclk.h **** /**
 275:.././hal/sam3u1c/inc/sam3u/sysclk.h ****  * \brief Return the current rate in Hz of the CPU clock
 276:.././hal/sam3u1c/inc/sam3u/sysclk.h ****  *
 277:.././hal/sam3u1c/inc/sam3u/sysclk.h ****  * \todo This function assumes that the CPU always runs at the system
 278:.././hal/sam3u1c/inc/sam3u/sysclk.h ****  * clock frequency. We want to support at least two more scenarios:
 279:.././hal/sam3u1c/inc/sam3u/sysclk.h ****  * Fixed CPU/bus clock dividers (config symbols) and dynamic CPU/bus
 280:.././hal/sam3u1c/inc/sam3u/sysclk.h ****  * clock dividers (which may change at run time). Ditto for all the bus
 281:.././hal/sam3u1c/inc/sam3u/sysclk.h ****  * clocks.
 282:.././hal/sam3u1c/inc/sam3u/sysclk.h ****  *
 283:.././hal/sam3u1c/inc/sam3u/sysclk.h ****  * \return Frequency of the CPU clock, in Hz.
 284:.././hal/sam3u1c/inc/sam3u/sysclk.h ****  */
 285:.././hal/sam3u1c/inc/sam3u/sysclk.h **** static inline uint32_t sysclk_get_cpu_hz(void)
 286:.././hal/sam3u1c/inc/sam3u/sysclk.h **** {
 867              	 .loc 5 286 0
 868              	 .cfi_startproc
 869              	 
 870              	 
 871 0000 80B5     	 push {r7,lr}
 872              	.LCFI53:
 873              	 .cfi_def_cfa_offset 8
 874              	 .cfi_offset 7,-8
 875              	 .cfi_offset 14,-4
 876 0002 00AF     	 add r7,sp,#0
 877              	.LCFI54:
 878              	 .cfi_def_cfa_register 7
 287:.././hal/sam3u1c/inc/sam3u/sysclk.h **** 	/* CONFIG_SYSCLK_PRES is the register value for setting the expected */
 288:.././hal/sam3u1c/inc/sam3u/sysclk.h **** 	/* prescaler, not an immediate value. */
 289:.././hal/sam3u1c/inc/sam3u/sysclk.h **** 	return sysclk_get_main_hz() /
 879              	 .loc 5 289 0
 880 0004 024B     	 ldr r3,.L84
 881 0006 9847     	 blx r3
 882              	.LVL20:
 883 0008 0346     	 mov r3,r0
 884 000a 5B08     	 lsrs r3,r3,#1
 290:.././hal/sam3u1c/inc/sam3u/sysclk.h **** 		((CONFIG_SYSCLK_PRES == SYSCLK_PRES_3) ? 3 :
 291:.././hal/sam3u1c/inc/sam3u/sysclk.h **** 			(1 << (CONFIG_SYSCLK_PRES >> PMC_MCKR_PRES_Pos)));
 292:.././hal/sam3u1c/inc/sam3u/sysclk.h **** }
 885              	 .loc 5 292 0
 886 000c 1846     	 mov r0,r3
 887 000e 80BD     	 pop {r7,pc}
 888              	.L85:
 889              	 .align 2
 890              	.L84:
 891 0010 00000000 	 .word sysclk_get_main_hz
 892              	 .cfi_endproc
 893              	.LFE84:
 895              	 .section .text.sysclk_set_prescalers,"ax",%progbits
 896              	 .align 1
 897              	 .global sysclk_set_prescalers
 898              	 .syntax unified
 899              	 .thumb
 900              	 .thumb_func
 901              	 .fpu softvfp
 903              	sysclk_set_prescalers:
 904              	.LFB89:
 905              	 .file 6 ".././hal/sam3u1c/sysclk.c"
   1:.././hal/sam3u1c/sysclk.c **** /**
   2:.././hal/sam3u1c/sysclk.c ****  * \file
   3:.././hal/sam3u1c/sysclk.c ****  *
   4:.././hal/sam3u1c/sysclk.c ****  * \brief Chip-specific system clock management functions.
   5:.././hal/sam3u1c/sysclk.c ****  *
   6:.././hal/sam3u1c/sysclk.c ****  * Copyright (c) 2011 - 2014 Atmel Corporation. All rights reserved.
   7:.././hal/sam3u1c/sysclk.c ****  *
   8:.././hal/sam3u1c/sysclk.c ****  * \asf_license_start
   9:.././hal/sam3u1c/sysclk.c ****  *
  10:.././hal/sam3u1c/sysclk.c ****  * \page License
  11:.././hal/sam3u1c/sysclk.c ****  *
  12:.././hal/sam3u1c/sysclk.c ****  * Redistribution and use in source and binary forms, with or without
  13:.././hal/sam3u1c/sysclk.c ****  * modification, are permitted provided that the following conditions are met:
  14:.././hal/sam3u1c/sysclk.c ****  *
  15:.././hal/sam3u1c/sysclk.c ****  * 1. Redistributions of source code must retain the above copyright notice,
  16:.././hal/sam3u1c/sysclk.c ****  *    this list of conditions and the following disclaimer.
  17:.././hal/sam3u1c/sysclk.c ****  *
  18:.././hal/sam3u1c/sysclk.c ****  * 2. Redistributions in binary form must reproduce the above copyright notice,
  19:.././hal/sam3u1c/sysclk.c ****  *    this list of conditions and the following disclaimer in the documentation
  20:.././hal/sam3u1c/sysclk.c ****  *    and/or other materials provided with the distribution.
  21:.././hal/sam3u1c/sysclk.c ****  *
  22:.././hal/sam3u1c/sysclk.c ****  * 3. The name of Atmel may not be used to endorse or promote products derived
  23:.././hal/sam3u1c/sysclk.c ****  *    from this software without specific prior written permission.
  24:.././hal/sam3u1c/sysclk.c ****  *
  25:.././hal/sam3u1c/sysclk.c ****  * 4. This software may only be redistributed and used in connection with an
  26:.././hal/sam3u1c/sysclk.c ****  *    Atmel microcontroller product.
  27:.././hal/sam3u1c/sysclk.c ****  *
  28:.././hal/sam3u1c/sysclk.c ****  * THIS SOFTWARE IS PROVIDED BY ATMEL "AS IS" AND ANY EXPRESS OR IMPLIED
  29:.././hal/sam3u1c/sysclk.c ****  * WARRANTIES, INCLUDING, BUT NOT LIMITED TO, THE IMPLIED WARRANTIES OF
  30:.././hal/sam3u1c/sysclk.c ****  * MERCHANTABILITY, FITNESS FOR A PARTICULAR PURPOSE AND NON-INFRINGEMENT ARE
  31:.././hal/sam3u1c/sysclk.c ****  * EXPRESSLY AND SPECIFICALLY DISCLAIMED. IN NO EVENT SHALL ATMEL BE LIABLE FOR
  32:.././hal/sam3u1c/sysclk.c ****  * ANY DIRECT, INDIRECT, INCIDENTAL, SPECIAL, EXEMPLARY, OR CONSEQUENTIAL
  33:.././hal/sam3u1c/sysclk.c ****  * DAMAGES (INCLUDING, BUT NOT LIMITED TO, PROCUREMENT OF SUBSTITUTE GOODS
  34:.././hal/sam3u1c/sysclk.c ****  * OR SERVICES; LOSS OF USE, DATA, OR PROFITS; OR BUSINESS INTERRUPTION)
  35:.././hal/sam3u1c/sysclk.c ****  * HOWEVER CAUSED AND ON ANY THEORY OF LIABILITY, WHETHER IN CONTRACT,
  36:.././hal/sam3u1c/sysclk.c ****  * STRICT LIABILITY, OR TORT (INCLUDING NEGLIGENCE OR OTHERWISE) ARISING IN
  37:.././hal/sam3u1c/sysclk.c ****  * ANY WAY OUT OF THE USE OF THIS SOFTWARE, EVEN IF ADVISED OF THE
  38:.././hal/sam3u1c/sysclk.c ****  * POSSIBILITY OF SUCH DAMAGE.
  39:.././hal/sam3u1c/sysclk.c ****  *
  40:.././hal/sam3u1c/sysclk.c ****  * \asf_license_stop
  41:.././hal/sam3u1c/sysclk.c ****  *
  42:.././hal/sam3u1c/sysclk.c ****  */
  43:.././hal/sam3u1c/sysclk.c **** 
  44:.././hal/sam3u1c/sysclk.c **** #include <sysclk.h>
  45:.././hal/sam3u1c/sysclk.c **** 
  46:.././hal/sam3u1c/sysclk.c **** /// @cond 0
  47:.././hal/sam3u1c/sysclk.c **** /**INDENT-OFF**/
  48:.././hal/sam3u1c/sysclk.c **** #ifdef __cplusplus
  49:.././hal/sam3u1c/sysclk.c **** extern "C" {
  50:.././hal/sam3u1c/sysclk.c **** #endif
  51:.././hal/sam3u1c/sysclk.c **** /**INDENT-ON**/
  52:.././hal/sam3u1c/sysclk.c **** /// @endcond
  53:.././hal/sam3u1c/sysclk.c **** 
  54:.././hal/sam3u1c/sysclk.c **** /**
  55:.././hal/sam3u1c/sysclk.c ****  * \weakgroup sysclk_group
  56:.././hal/sam3u1c/sysclk.c ****  * @{
  57:.././hal/sam3u1c/sysclk.c ****  */
  58:.././hal/sam3u1c/sysclk.c **** 
  59:.././hal/sam3u1c/sysclk.c **** #if defined(CONFIG_SYSCLK_DEFAULT_RETURNS_SLOW_OSC)
  60:.././hal/sam3u1c/sysclk.c **** /**
  61:.././hal/sam3u1c/sysclk.c ****  * \brief boolean signalling that the sysclk_init is done.
  62:.././hal/sam3u1c/sysclk.c ****  */
  63:.././hal/sam3u1c/sysclk.c **** uint32_t sysclk_initialized = 0;
  64:.././hal/sam3u1c/sysclk.c **** #endif
  65:.././hal/sam3u1c/sysclk.c **** 
  66:.././hal/sam3u1c/sysclk.c **** /**
  67:.././hal/sam3u1c/sysclk.c ****  * \brief Set system clock prescaler configuration
  68:.././hal/sam3u1c/sysclk.c ****  *
  69:.././hal/sam3u1c/sysclk.c ****  * This function will change the system clock prescaler configuration to
  70:.././hal/sam3u1c/sysclk.c ****  * match the parameters.
  71:.././hal/sam3u1c/sysclk.c ****  *
  72:.././hal/sam3u1c/sysclk.c ****  * \note The parameters to this function are device-specific.
  73:.././hal/sam3u1c/sysclk.c ****  *
  74:.././hal/sam3u1c/sysclk.c ****  * \param cpu_shift The CPU clock will be divided by \f$2^{mck\_pres}\f$
  75:.././hal/sam3u1c/sysclk.c ****  */
  76:.././hal/sam3u1c/sysclk.c **** void sysclk_set_prescalers(uint32_t ul_pres)
  77:.././hal/sam3u1c/sysclk.c **** {
 906              	 .loc 6 77 0
 907              	 .cfi_startproc
 908              	 
 909              	 
 910 0000 80B5     	 push {r7,lr}
 911              	.LCFI55:
 912              	 .cfi_def_cfa_offset 8
 913              	 .cfi_offset 7,-8
 914              	 .cfi_offset 14,-4
 915 0002 82B0     	 sub sp,sp,#8
 916              	.LCFI56:
 917              	 .cfi_def_cfa_offset 16
 918 0004 00AF     	 add r7,sp,#0
 919              	.LCFI57:
 920              	 .cfi_def_cfa_register 7
 921 0006 7860     	 str r0,[r7,#4]
  78:.././hal/sam3u1c/sysclk.c **** 	pmc_mck_set_prescaler(ul_pres);
 922              	 .loc 6 78 0
 923 0008 7868     	 ldr r0,[r7,#4]
 924 000a 044B     	 ldr r3,.L87
 925 000c 9847     	 blx r3
 926              	.LVL21:
  79:.././hal/sam3u1c/sysclk.c **** 	SystemCoreClockUpdate();
 927              	 .loc 6 79 0
 928 000e 044B     	 ldr r3,.L87+4
 929 0010 9847     	 blx r3
 930              	.LVL22:
  80:.././hal/sam3u1c/sysclk.c **** }
 931              	 .loc 6 80 0
 932 0012 00BF     	 nop
 933 0014 0837     	 adds r7,r7,#8
 934              	.LCFI58:
 935              	 .cfi_def_cfa_offset 8
 936 0016 BD46     	 mov sp,r7
 937              	.LCFI59:
 938              	 .cfi_def_cfa_register 13
 939              	 
 940 0018 80BD     	 pop {r7,pc}
 941              	.L88:
 942 001a 00BF     	 .align 2
 943              	.L87:
 944 001c 00000000 	 .word pmc_mck_set_prescaler
 945 0020 00000000 	 .word SystemCoreClockUpdate
 946              	 .cfi_endproc
 947              	.LFE89:
 949              	 .section .text.sysclk_set_source,"ax",%progbits
 950              	 .align 1
 951              	 .global sysclk_set_source
 952              	 .syntax unified
 953              	 .thumb
 954              	 .thumb_func
 955              	 .fpu softvfp
 957              	sysclk_set_source:
 958              	.LFB90:
  81:.././hal/sam3u1c/sysclk.c **** 
  82:.././hal/sam3u1c/sysclk.c **** /**
  83:.././hal/sam3u1c/sysclk.c ****  * \brief Change the source of the main system clock.
  84:.././hal/sam3u1c/sysclk.c ****  *
  85:.././hal/sam3u1c/sysclk.c ****  * \param src The new system clock source. Must be one of the constants
  86:.././hal/sam3u1c/sysclk.c ****  * from the <em>System Clock Sources</em> section.
  87:.././hal/sam3u1c/sysclk.c ****  */
  88:.././hal/sam3u1c/sysclk.c **** void sysclk_set_source(uint32_t ul_src)
  89:.././hal/sam3u1c/sysclk.c **** {
 959              	 .loc 6 89 0
 960              	 .cfi_startproc
 961              	 
 962              	 
 963 0000 80B5     	 push {r7,lr}
 964              	.LCFI60:
 965              	 .cfi_def_cfa_offset 8
 966              	 .cfi_offset 7,-8
 967              	 .cfi_offset 14,-4
 968 0002 82B0     	 sub sp,sp,#8
 969              	.LCFI61:
 970              	 .cfi_def_cfa_offset 16
 971 0004 00AF     	 add r7,sp,#0
 972              	.LCFI62:
 973              	 .cfi_def_cfa_register 7
 974 0006 7860     	 str r0,[r7,#4]
  90:.././hal/sam3u1c/sysclk.c **** 	switch (ul_src) {
 975              	 .loc 6 90 0
 976 0008 7B68     	 ldr r3,[r7,#4]
 977 000a 092B     	 cmp r3,#9
 978 000c 26D8     	 bhi .L90
 979 000e 01A2     	 adr r2,.L92
 980 0010 52F823F0 	 ldr pc,[r2,r3,lsl#2]
 981              	 .p2align 2
 982              	.L92:
 983 0014 3D000000 	 .word .L91+1
 984 0018 3D000000 	 .word .L91+1
 985 001c 3D000000 	 .word .L91+1
 986 0020 45000000 	 .word .L93+1
 987 0024 45000000 	 .word .L93+1
 988 0028 45000000 	 .word .L93+1
 989 002c 45000000 	 .word .L93+1
 990 0030 45000000 	 .word .L93+1
 991 0034 4D000000 	 .word .L94+1
 992 0038 55000000 	 .word .L95+1
 993              	 .p2align 1
 994              	.L91:
  91:.././hal/sam3u1c/sysclk.c **** 	case SYSCLK_SRC_SLCK_RC:
  92:.././hal/sam3u1c/sysclk.c **** 	case SYSCLK_SRC_SLCK_XTAL:
  93:.././hal/sam3u1c/sysclk.c **** 	case SYSCLK_SRC_SLCK_BYPASS:
  94:.././hal/sam3u1c/sysclk.c **** 		pmc_mck_set_source(PMC_MCKR_CSS_SLOW_CLK);
 995              	 .loc 6 94 0
 996 003c 0020     	 movs r0,#0
 997 003e 0A4B     	 ldr r3,.L96
 998 0040 9847     	 blx r3
 999              	.LVL23:
  95:.././hal/sam3u1c/sysclk.c **** 		break;
 1000              	 .loc 6 95 0
 1001 0042 0BE0     	 b .L90
 1002              	.L93:
  96:.././hal/sam3u1c/sysclk.c **** 
  97:.././hal/sam3u1c/sysclk.c **** 	case SYSCLK_SRC_MAINCK_4M_RC:
  98:.././hal/sam3u1c/sysclk.c **** 	case SYSCLK_SRC_MAINCK_8M_RC:
  99:.././hal/sam3u1c/sysclk.c **** 	case SYSCLK_SRC_MAINCK_12M_RC:
 100:.././hal/sam3u1c/sysclk.c **** 	case SYSCLK_SRC_MAINCK_XTAL:
 101:.././hal/sam3u1c/sysclk.c **** 	case SYSCLK_SRC_MAINCK_BYPASS:
 102:.././hal/sam3u1c/sysclk.c **** 		pmc_mck_set_source(PMC_MCKR_CSS_MAIN_CLK);
 1003              	 .loc 6 102 0
 1004 0044 0120     	 movs r0,#1
 1005 0046 084B     	 ldr r3,.L96
 1006 0048 9847     	 blx r3
 1007              	.LVL24:
 103:.././hal/sam3u1c/sysclk.c **** 		break;
 1008              	 .loc 6 103 0
 1009 004a 07E0     	 b .L90
 1010              	.L94:
 104:.././hal/sam3u1c/sysclk.c **** 
 105:.././hal/sam3u1c/sysclk.c **** 	case SYSCLK_SRC_PLLACK:
 106:.././hal/sam3u1c/sysclk.c **** 		pmc_mck_set_source(PMC_MCKR_CSS_PLLA_CLK);
 1011              	 .loc 6 106 0
 1012 004c 0220     	 movs r0,#2
 1013 004e 064B     	 ldr r3,.L96
 1014 0050 9847     	 blx r3
 1015              	.LVL25:
 107:.././hal/sam3u1c/sysclk.c **** 		break;
 1016              	 .loc 6 107 0
 1017 0052 03E0     	 b .L90
 1018              	.L95:
 108:.././hal/sam3u1c/sysclk.c **** 
 109:.././hal/sam3u1c/sysclk.c **** 	case SYSCLK_SRC_UPLLCK:
 110:.././hal/sam3u1c/sysclk.c **** 		pmc_mck_set_source(PMC_MCKR_CSS_UPLL_CLK);
 1019              	 .loc 6 110 0
 1020 0054 0320     	 movs r0,#3
 1021 0056 044B     	 ldr r3,.L96
 1022 0058 9847     	 blx r3
 1023              	.LVL26:
 111:.././hal/sam3u1c/sysclk.c **** 		break;
 1024              	 .loc 6 111 0
 1025 005a 00BF     	 nop
 1026              	.L90:
 112:.././hal/sam3u1c/sysclk.c **** 	}
 113:.././hal/sam3u1c/sysclk.c **** 
 114:.././hal/sam3u1c/sysclk.c **** 	SystemCoreClockUpdate();
 1027              	 .loc 6 114 0
 1028 005c 034B     	 ldr r3,.L96+4
 1029 005e 9847     	 blx r3
 1030              	.LVL27:
 115:.././hal/sam3u1c/sysclk.c **** }
 1031              	 .loc 6 115 0
 1032 0060 00BF     	 nop
 1033 0062 0837     	 adds r7,r7,#8
 1034              	.LCFI63:
 1035              	 .cfi_def_cfa_offset 8
 1036 0064 BD46     	 mov sp,r7
 1037              	.LCFI64:
 1038              	 .cfi_def_cfa_register 13
 1039              	 
 1040 0066 80BD     	 pop {r7,pc}
 1041              	.L97:
 1042              	 .align 2
 1043              	.L96:
 1044 0068 00000000 	 .word pmc_mck_set_source
 1045 006c 00000000 	 .word SystemCoreClockUpdate
 1046              	 .cfi_endproc
 1047              	.LFE90:
 1049              	 .section .text.sysclk_enable_usb,"ax",%progbits
 1050              	 .align 1
 1051              	 .global sysclk_enable_usb
 1052              	 .syntax unified
 1053              	 .thumb
 1054              	 .thumb_func
 1055              	 .fpu softvfp
 1057              	sysclk_enable_usb:
 1058              	.LFB91:
 116:.././hal/sam3u1c/sysclk.c **** 
 117:.././hal/sam3u1c/sysclk.c **** /**
 118:.././hal/sam3u1c/sysclk.c ****  * \brief Enable USB clock.
 119:.././hal/sam3u1c/sysclk.c ****  *
 120:.././hal/sam3u1c/sysclk.c ****  * \note The SAM3U UDP hardware interprets div as div+1. For readability the
 121:.././hal/sam3u1c/sysclk.c ****  *       hardware div+1 is hidden in this implementation. Use div as div
 122:.././hal/sam3u1c/sysclk.c ****  *       effective value.
 123:.././hal/sam3u1c/sysclk.c ****  *
 124:.././hal/sam3u1c/sysclk.c ****  * \param pll_id Source of the USB clock.
 125:.././hal/sam3u1c/sysclk.c ****  * \param div Actual clock divisor. Must be superior to 0.
 126:.././hal/sam3u1c/sysclk.c ****  */
 127:.././hal/sam3u1c/sysclk.c **** void sysclk_enable_usb(void)
 128:.././hal/sam3u1c/sysclk.c **** {
 1059              	 .loc 6 128 0
 1060              	 .cfi_startproc
 1061              	 
 1062              	 
 1063 0000 90B5     	 push {r4,r7,lr}
 1064              	.LCFI65:
 1065              	 .cfi_def_cfa_offset 12
 1066              	 .cfi_offset 4,-12
 1067              	 .cfi_offset 7,-8
 1068              	 .cfi_offset 14,-4
 1069 0002 83B0     	 sub sp,sp,#12
 1070              	.LCFI66:
 1071              	 .cfi_def_cfa_offset 24
 1072 0004 00AF     	 add r7,sp,#0
 1073              	.LCFI67:
 1074              	 .cfi_def_cfa_register 7
 129:.././hal/sam3u1c/sysclk.c **** 	struct pll_config pllcfg;
 130:.././hal/sam3u1c/sysclk.c **** 
 131:.././hal/sam3u1c/sysclk.c **** 	pll_enable_source(CONFIG_PLL1_SOURCE);
 1075              	 .loc 6 131 0
 1076 0006 0620     	 movs r0,#6
 1077 0008 094B     	 ldr r3,.L99
 1078 000a 9847     	 blx r3
 1079              	.LVL28:
 132:.././hal/sam3u1c/sysclk.c **** 	pll_config_defaults(&pllcfg, 1);
 1080              	 .loc 6 132 0
 1081 000c 381D     	 adds r0,r7,#4
 1082 000e 0023     	 movs r3,#0
 1083 0010 0022     	 movs r2,#0
 1084 0012 0621     	 movs r1,#6
 1085 0014 074C     	 ldr r4,.L99+4
 1086 0016 A047     	 blx r4
 1087              	.LVL29:
 133:.././hal/sam3u1c/sysclk.c **** 	pll_enable(&pllcfg, 1);
 1088              	 .loc 6 133 0
 1089 0018 3B1D     	 adds r3,r7,#4
 1090 001a 0121     	 movs r1,#1
 1091 001c 1846     	 mov r0,r3
 1092 001e 064B     	 ldr r3,.L99+8
 1093 0020 9847     	 blx r3
 1094              	.LVL30:
 134:.././hal/sam3u1c/sysclk.c **** 	pll_wait_for_lock(1);
 1095              	 .loc 6 134 0
 1096 0022 0120     	 movs r0,#1
 1097 0024 054B     	 ldr r3,.L99+12
 1098 0026 9847     	 blx r3
 1099              	.LVL31:
 135:.././hal/sam3u1c/sysclk.c **** }
 1100              	 .loc 6 135 0
 1101 0028 00BF     	 nop
 1102 002a 0C37     	 adds r7,r7,#12
 1103              	.LCFI68:
 1104              	 .cfi_def_cfa_offset 12
 1105 002c BD46     	 mov sp,r7
 1106              	.LCFI69:
 1107              	 .cfi_def_cfa_register 13
 1108              	 
 1109 002e 90BD     	 pop {r4,r7,pc}
 1110              	.L100:
 1111              	 .align 2
 1112              	.L99:
 1113 0030 00000000 	 .word pll_enable_source
 1114 0034 00000000 	 .word pll_config_init
 1115 0038 00000000 	 .word pll_enable
 1116 003c 00000000 	 .word pll_wait_for_lock
 1117              	 .cfi_endproc
 1118              	.LFE91:
 1120              	 .section .text.sysclk_disable_usb,"ax",%progbits
 1121              	 .align 1
 1122              	 .global sysclk_disable_usb
 1123              	 .syntax unified
 1124              	 .thumb
 1125              	 .thumb_func
 1126              	 .fpu softvfp
 1128              	sysclk_disable_usb:
 1129              	.LFB92:
 136:.././hal/sam3u1c/sysclk.c **** 
 137:.././hal/sam3u1c/sysclk.c **** /**
 138:.././hal/sam3u1c/sysclk.c ****  * \brief Disable the USB clock.
 139:.././hal/sam3u1c/sysclk.c ****  *
 140:.././hal/sam3u1c/sysclk.c ****  * \note This implementation does not switch off the PLL, it just turns off the
 141:.././hal/sam3u1c/sysclk.c ****  *       USB clock.
 142:.././hal/sam3u1c/sysclk.c ****  */
 143:.././hal/sam3u1c/sysclk.c **** void sysclk_disable_usb(void)
 144:.././hal/sam3u1c/sysclk.c **** {
 1130              	 .loc 6 144 0
 1131              	 .cfi_startproc
 1132              	 
 1133              	 
 1134 0000 80B5     	 push {r7,lr}
 1135              	.LCFI70:
 1136              	 .cfi_def_cfa_offset 8
 1137              	 .cfi_offset 7,-8
 1138              	 .cfi_offset 14,-4
 1139 0002 00AF     	 add r7,sp,#0
 1140              	.LCFI71:
 1141              	 .cfi_def_cfa_register 7
 145:.././hal/sam3u1c/sysclk.c **** 	if (CONFIG_SYSCLK_SOURCE != SYSCLK_SRC_UPLLCK) {
 146:.././hal/sam3u1c/sysclk.c **** 		pll_disable(1);
 1142              	 .loc 6 146 0
 1143 0004 0120     	 movs r0,#1
 1144 0006 024B     	 ldr r3,.L102
 1145 0008 9847     	 blx r3
 1146              	.LVL32:
 147:.././hal/sam3u1c/sysclk.c **** 	}
 148:.././hal/sam3u1c/sysclk.c **** }
 1147              	 .loc 6 148 0
 1148 000a 00BF     	 nop
 1149 000c 80BD     	 pop {r7,pc}
 1150              	.L103:
 1151 000e 00BF     	 .align 2
 1152              	.L102:
 1153 0010 00000000 	 .word pll_disable
 1154              	 .cfi_endproc
 1155              	.LFE92:
 1157              	 .section .text.sysclk_init,"ax",%progbits
 1158              	 .align 1
 1159              	 .global sysclk_init
 1160              	 .syntax unified
 1161              	 .thumb
 1162              	 .thumb_func
 1163              	 .fpu softvfp
 1165              	sysclk_init:
 1166              	.LFB93:
 149:.././hal/sam3u1c/sysclk.c **** 
 150:.././hal/sam3u1c/sysclk.c **** void sysclk_init(void)
 151:.././hal/sam3u1c/sysclk.c **** {
 1167              	 .loc 6 151 0
 1168              	 .cfi_startproc
 1169              	 
 1170              	 
 1171 0000 90B5     	 push {r4,r7,lr}
 1172              	.LCFI72:
 1173              	 .cfi_def_cfa_offset 12
 1174              	 .cfi_offset 4,-12
 1175              	 .cfi_offset 7,-8
 1176              	 .cfi_offset 14,-4
 1177 0002 83B0     	 sub sp,sp,#12
 1178              	.LCFI73:
 1179              	 .cfi_def_cfa_offset 24
 1180 0004 00AF     	 add r7,sp,#0
 1181              	.LCFI74:
 1182              	 .cfi_def_cfa_register 7
 152:.././hal/sam3u1c/sysclk.c **** 	struct pll_config pllcfg;
 153:.././hal/sam3u1c/sysclk.c **** 
 154:.././hal/sam3u1c/sysclk.c **** 	/* Set flash wait state to max in case the below clock switching. */
 155:.././hal/sam3u1c/sysclk.c **** 	system_init_flash(CHIP_FREQ_CPU_MAX);
 1183              	 .loc 6 155 0
 1184 0006 1648     	 ldr r0,.L106
 1185 0008 164B     	 ldr r3,.L106+4
 1186 000a 9847     	 blx r3
 1187              	.LVL33:
 156:.././hal/sam3u1c/sysclk.c **** 
 157:.././hal/sam3u1c/sysclk.c **** 	/* Config system clock setting */
 158:.././hal/sam3u1c/sysclk.c **** 	if (CONFIG_SYSCLK_SOURCE == SYSCLK_SRC_SLCK_RC) {
 159:.././hal/sam3u1c/sysclk.c **** 		osc_enable(OSC_SLCK_32K_RC);
 160:.././hal/sam3u1c/sysclk.c **** 		osc_wait_ready(OSC_SLCK_32K_RC);
 161:.././hal/sam3u1c/sysclk.c **** 		pmc_switch_mck_to_sclk(CONFIG_SYSCLK_PRES);
 162:.././hal/sam3u1c/sysclk.c **** 	}
 163:.././hal/sam3u1c/sysclk.c **** 
 164:.././hal/sam3u1c/sysclk.c **** 	else if (CONFIG_SYSCLK_SOURCE == SYSCLK_SRC_SLCK_XTAL) {
 165:.././hal/sam3u1c/sysclk.c **** 		osc_enable(OSC_SLCK_32K_XTAL);
 166:.././hal/sam3u1c/sysclk.c **** 		osc_wait_ready(OSC_SLCK_32K_XTAL);
 167:.././hal/sam3u1c/sysclk.c **** 		pmc_switch_mck_to_sclk(CONFIG_SYSCLK_PRES);
 168:.././hal/sam3u1c/sysclk.c **** 	}
 169:.././hal/sam3u1c/sysclk.c **** 
 170:.././hal/sam3u1c/sysclk.c **** 	else if (CONFIG_SYSCLK_SOURCE == SYSCLK_SRC_SLCK_BYPASS) {
 171:.././hal/sam3u1c/sysclk.c **** 		osc_enable(OSC_SLCK_32K_BYPASS);
 172:.././hal/sam3u1c/sysclk.c **** 		osc_wait_ready(OSC_SLCK_32K_BYPASS);
 173:.././hal/sam3u1c/sysclk.c **** 		pmc_switch_mck_to_sclk(CONFIG_SYSCLK_PRES);
 174:.././hal/sam3u1c/sysclk.c **** 	}
 175:.././hal/sam3u1c/sysclk.c **** 
 176:.././hal/sam3u1c/sysclk.c **** 	else if (CONFIG_SYSCLK_SOURCE == SYSCLK_SRC_MAINCK_4M_RC) {
 177:.././hal/sam3u1c/sysclk.c **** 		/* Already running from SYSCLK_SRC_MAINCK_4M_RC */
 178:.././hal/sam3u1c/sysclk.c **** 	}
 179:.././hal/sam3u1c/sysclk.c **** 
 180:.././hal/sam3u1c/sysclk.c **** 	else if (CONFIG_SYSCLK_SOURCE == SYSCLK_SRC_MAINCK_8M_RC) {
 181:.././hal/sam3u1c/sysclk.c **** 		osc_enable(OSC_MAINCK_8M_RC);
 182:.././hal/sam3u1c/sysclk.c **** 		osc_wait_ready(OSC_MAINCK_8M_RC);
 183:.././hal/sam3u1c/sysclk.c **** 		pmc_switch_mck_to_mainck(CONFIG_SYSCLK_PRES);
 184:.././hal/sam3u1c/sysclk.c **** 	}
 185:.././hal/sam3u1c/sysclk.c **** 
 186:.././hal/sam3u1c/sysclk.c **** 	else if (CONFIG_SYSCLK_SOURCE == SYSCLK_SRC_MAINCK_12M_RC) {
 187:.././hal/sam3u1c/sysclk.c **** 		osc_enable(OSC_MAINCK_12M_RC);
 188:.././hal/sam3u1c/sysclk.c **** 		osc_wait_ready(OSC_MAINCK_12M_RC);
 189:.././hal/sam3u1c/sysclk.c **** 		pmc_switch_mck_to_mainck(CONFIG_SYSCLK_PRES);
 190:.././hal/sam3u1c/sysclk.c **** 	}
 191:.././hal/sam3u1c/sysclk.c **** 
 192:.././hal/sam3u1c/sysclk.c **** 	else if (CONFIG_SYSCLK_SOURCE == SYSCLK_SRC_MAINCK_XTAL) {
 193:.././hal/sam3u1c/sysclk.c **** 		osc_enable(OSC_MAINCK_XTAL);
 194:.././hal/sam3u1c/sysclk.c **** 		osc_wait_ready(OSC_MAINCK_XTAL);
 195:.././hal/sam3u1c/sysclk.c **** 		pmc_switch_mck_to_mainck(CONFIG_SYSCLK_PRES);
 196:.././hal/sam3u1c/sysclk.c **** 	}
 197:.././hal/sam3u1c/sysclk.c **** 
 198:.././hal/sam3u1c/sysclk.c **** 	else if (CONFIG_SYSCLK_SOURCE == SYSCLK_SRC_MAINCK_BYPASS) {
 199:.././hal/sam3u1c/sysclk.c **** 		osc_enable(OSC_MAINCK_BYPASS);
 200:.././hal/sam3u1c/sysclk.c **** 		osc_wait_ready(OSC_MAINCK_BYPASS);
 201:.././hal/sam3u1c/sysclk.c **** 		pmc_switch_mck_to_mainck(CONFIG_SYSCLK_PRES);
 202:.././hal/sam3u1c/sysclk.c **** 	}
 203:.././hal/sam3u1c/sysclk.c **** 
 204:.././hal/sam3u1c/sysclk.c **** #ifdef CONFIG_PLL0_SOURCE
 205:.././hal/sam3u1c/sysclk.c **** 	else if (CONFIG_SYSCLK_SOURCE == SYSCLK_SRC_PLLACK) {
 206:.././hal/sam3u1c/sysclk.c **** 		pll_enable_source(CONFIG_PLL0_SOURCE);
 1188              	 .loc 6 206 0
 1189 000c 0620     	 movs r0,#6
 1190 000e 164B     	 ldr r3,.L106+8
 1191 0010 9847     	 blx r3
 1192              	.LVL34:
 207:.././hal/sam3u1c/sysclk.c **** 		// Source is mainck, select source for mainck
 208:.././hal/sam3u1c/sysclk.c **** 		if (CONFIG_PLL0_SOURCE == PLL_SRC_MAINCK_4M_RC ||
 209:.././hal/sam3u1c/sysclk.c **** 				CONFIG_PLL0_SOURCE == PLL_SRC_MAINCK_8M_RC ||
 210:.././hal/sam3u1c/sysclk.c **** 				CONFIG_PLL0_SOURCE == PLL_SRC_MAINCK_12M_RC) {
 211:.././hal/sam3u1c/sysclk.c **** 			pmc_mainck_osc_select(0);
 212:.././hal/sam3u1c/sysclk.c **** 			while(!pmc_osc_is_ready_mainck());
 213:.././hal/sam3u1c/sysclk.c **** #  ifndef CONFIG_PLL1_SOURCE
 214:.././hal/sam3u1c/sysclk.c **** 			pmc_osc_disable_main_xtal();
 215:.././hal/sam3u1c/sysclk.c **** #  endif
 216:.././hal/sam3u1c/sysclk.c **** 		} else if (CONFIG_PLL0_SOURCE == PLL_SRC_MAINCK_XTAL ||
 217:.././hal/sam3u1c/sysclk.c **** 				CONFIG_PLL0_SOURCE == PLL_SRC_MAINCK_BYPASS) {
 218:.././hal/sam3u1c/sysclk.c **** 			pmc_mainck_osc_select(CKGR_MOR_MOSCSEL);
 1193              	 .loc 6 218 0
 1194 0012 4FF08070 	 mov r0,#16777216
 1195 0016 154B     	 ldr r3,.L106+12
 1196 0018 9847     	 blx r3
 1197              	.LVL35:
 219:.././hal/sam3u1c/sysclk.c **** 			while(!pmc_osc_is_ready_mainck());
 1198              	 .loc 6 219 0
 1199 001a 00BF     	 nop
 1200              	.L105:
 1201              	 .loc 6 219 0 is_stmt 0 discriminator 1
 1202 001c 144B     	 ldr r3,.L106+16
 1203 001e 9847     	 blx r3
 1204              	.LVL36:
 1205 0020 0346     	 mov r3,r0
 1206 0022 002B     	 cmp r3,#0
 1207 0024 FAD0     	 beq .L105
 220:.././hal/sam3u1c/sysclk.c **** 		}
 221:.././hal/sam3u1c/sysclk.c **** 		pll_config_defaults(&pllcfg, 0);
 1208              	 .loc 6 221 0 is_stmt 1
 1209 0026 381D     	 adds r0,r7,#4
 1210 0028 1023     	 movs r3,#16
 1211 002a 0122     	 movs r2,#1
 1212 002c 0621     	 movs r1,#6
 1213 002e 114C     	 ldr r4,.L106+20
 1214 0030 A047     	 blx r4
 1215              	.LVL37:
 222:.././hal/sam3u1c/sysclk.c **** 		pll_enable(&pllcfg, 0);
 1216              	 .loc 6 222 0
 1217 0032 3B1D     	 adds r3,r7,#4
 1218 0034 0021     	 movs r1,#0
 1219 0036 1846     	 mov r0,r3
 1220 0038 0F4B     	 ldr r3,.L106+24
 1221 003a 9847     	 blx r3
 1222              	.LVL38:
 223:.././hal/sam3u1c/sysclk.c **** 		pll_wait_for_lock(0);
 1223              	 .loc 6 223 0
 1224 003c 0020     	 movs r0,#0
 1225 003e 0F4B     	 ldr r3,.L106+28
 1226 0040 9847     	 blx r3
 1227              	.LVL39:
 224:.././hal/sam3u1c/sysclk.c **** 		pmc_switch_mck_to_pllack(CONFIG_SYSCLK_PRES);
 1228              	 .loc 6 224 0
 1229 0042 1020     	 movs r0,#16
 1230 0044 0E4B     	 ldr r3,.L106+32
 1231 0046 9847     	 blx r3
 1232              	.LVL40:
 225:.././hal/sam3u1c/sysclk.c **** 	}
 226:.././hal/sam3u1c/sysclk.c **** #endif
 227:.././hal/sam3u1c/sysclk.c **** 
 228:.././hal/sam3u1c/sysclk.c **** 	else if (CONFIG_SYSCLK_SOURCE == SYSCLK_SRC_UPLLCK) {
 229:.././hal/sam3u1c/sysclk.c **** 		pll_enable_source(CONFIG_PLL1_SOURCE);
 230:.././hal/sam3u1c/sysclk.c **** 		pll_config_defaults(&pllcfg, 1);
 231:.././hal/sam3u1c/sysclk.c **** 		pll_enable(&pllcfg, 1);
 232:.././hal/sam3u1c/sysclk.c **** 		pll_wait_for_lock(1);
 233:.././hal/sam3u1c/sysclk.c **** 		pmc_switch_mck_to_upllck(CONFIG_SYSCLK_PRES);
 234:.././hal/sam3u1c/sysclk.c **** 	}
 235:.././hal/sam3u1c/sysclk.c **** 
 236:.././hal/sam3u1c/sysclk.c **** 	/* Update the SystemFrequency variable */
 237:.././hal/sam3u1c/sysclk.c **** 	SystemCoreClockUpdate();
 1233              	 .loc 6 237 0
 1234 0048 0E4B     	 ldr r3,.L106+36
 1235 004a 9847     	 blx r3
 1236              	.LVL41:
 238:.././hal/sam3u1c/sysclk.c **** 
 239:.././hal/sam3u1c/sysclk.c **** 	/* Set a flash wait state depending on the new cpu frequency */
 240:.././hal/sam3u1c/sysclk.c **** 	system_init_flash(sysclk_get_cpu_hz());
 1237              	 .loc 6 240 0
 1238 004c 0E4B     	 ldr r3,.L106+40
 1239 004e 9847     	 blx r3
 1240              	.LVL42:
 1241 0050 0346     	 mov r3,r0
 1242 0052 1846     	 mov r0,r3
 1243 0054 034B     	 ldr r3,.L106+4
 1244 0056 9847     	 blx r3
 1245              	.LVL43:
 241:.././hal/sam3u1c/sysclk.c **** 
 242:.././hal/sam3u1c/sysclk.c **** #if (defined CONFIG_SYSCLK_DEFAULT_RETURNS_SLOW_OSC)
 243:.././hal/sam3u1c/sysclk.c **** 	/* Signal that the internal frequencies are setup */
 244:.././hal/sam3u1c/sysclk.c **** 	sysclk_initialized = 1;
 245:.././hal/sam3u1c/sysclk.c **** #endif
 246:.././hal/sam3u1c/sysclk.c **** }
 1246              	 .loc 6 246 0
 1247 0058 00BF     	 nop
 1248 005a 0C37     	 adds r7,r7,#12
 1249              	.LCFI75:
 1250              	 .cfi_def_cfa_offset 12
 1251 005c BD46     	 mov sp,r7
 1252              	.LCFI76:
 1253              	 .cfi_def_cfa_register 13
 1254              	 
 1255 005e 90BD     	 pop {r4,r7,pc}
 1256              	.L107:
 1257              	 .align 2
 1258              	.L106:
 1259 0060 00D8B805 	 .word 96000000
 1260 0064 00000000 	 .word system_init_flash
 1261 0068 00000000 	 .word pll_enable_source
 1262 006c 00000000 	 .word pmc_mainck_osc_select
 1263 0070 00000000 	 .word pmc_osc_is_ready_mainck
 1264 0074 00000000 	 .word pll_config_init
 1265 0078 00000000 	 .word pll_enable
 1266 007c 00000000 	 .word pll_wait_for_lock
 1267 0080 00000000 	 .word pmc_switch_mck_to_pllack
 1268 0084 00000000 	 .word SystemCoreClockUpdate
 1269 0088 00000000 	 .word sysclk_get_cpu_hz
 1270              	 .cfi_endproc
 1271              	.LFE93:
 1273              	 .text
 1274              	.Letext0:
 1275              	 .file 7 "c:\\program files (x86)\\gnu tools arm embedded\\7 2018-q2-update\\arm-none-eabi\\include\\machine\\_default_types.h"
 1276              	 .file 8 "c:\\program files (x86)\\gnu tools arm embedded\\7 2018-q2-update\\arm-none-eabi\\include\\sys\\_stdint.h"
 1277              	 .file 9 ".././hal/sam3u1c/inc/sam3u1c.h"
 1278              	 .file 10 ".././hal/sam3u1c/inc/core_cm3.h"
 1279              	 .file 11 ".././hal/sam3u1c/inc/system_sam3u.h"
 1280              	 .file 12 ".././hal/sam3u1c/inc/component/component_pmc.h"
 1281              	 .file 13 "c:\\program files (x86)\\gnu tools arm embedded\\7 2018-q2-update\\arm-none-eabi\\include\\sys\\lock.h"
 1282              	 .file 14 "c:\\program files (x86)\\gnu tools arm embedded\\7 2018-q2-update\\arm-none-eabi\\include\\sys\\_types.h"
 1283              	 .file 15 "c:\\program files (x86)\\gnu tools arm embedded\\7 2018-q2-update\\lib\\gcc\\arm-none-eabi\\7.3.1\\include\\stddef.h"
 1284              	 .file 16 "c:\\program files (x86)\\gnu tools arm embedded\\7 2018-q2-update\\arm-none-eabi\\include\\sys\\reent.h"
 1285              	 .file 17 "c:\\program files (x86)\\gnu tools arm embedded\\7 2018-q2-update\\arm-none-eabi\\include\\stdlib.h"
 1286              	 .file 18 ".././hal/sam3u1c/inc/interrupt/interrupt_sam_nvic.h"
 1287              	 .file 19 ".././hal/sam3u1c/inc/pmc.h"