   1              	 .cpu cortex-m3
   2              	 .eabi_attribute 20,1
   3              	 .eabi_attribute 21,1
   4              	 .eabi_attribute 23,3
   5              	 .eabi_attribute 24,1
   6              	 .eabi_attribute 25,1
   7              	 .eabi_attribute 26,1
   8              	 .eabi_attribute 30,6
   9              	 .eabi_attribute 34,1
  10              	 .eabi_attribute 18,4
  11              	 .file "udi_vendor.c"
  12              	 .text
  13              	.Ltext0:
  14              	 .cfi_sections .debug_frame
  15              	 .section .bss.cpu_irq_critical_section_counter,"aw",%nobits
  16              	 .align 2
  19              	cpu_irq_critical_section_counter:
  20 0000 00000000 	 .space 4
  21              	 .section .bss.cpu_irq_prev_interrupt_state,"aw",%nobits
  24              	cpu_irq_prev_interrupt_state:
  25 0000 00       	 .space 1
  26              	 .global udi_api_vendor
  27              	 .section .data.udi_api_vendor,"aw",%progbits
  28              	 .align 2
  31              	udi_api_vendor:
  32 0000 00000000 	 .word udi_vendor_enable
  33 0004 00000000 	 .word udi_vendor_disable
  34 0008 00000000 	 .word udi_vendor_setup
  35 000c 00000000 	 .word udi_vendor_getsetting
  36 0010 00000000 	 .word 0
  37              	 .section .bss.udi_vendor_alternate_setting,"aw",%nobits
  40              	udi_vendor_alternate_setting:
  41 0000 00       	 .space 1
  42              	 .section .text.udi_vendor_enable,"ax",%progbits
  43              	 .align 1
  44              	 .global udi_vendor_enable
  45              	 .syntax unified
  46              	 .thumb
  47              	 .thumb_func
  48              	 .fpu softvfp
  50              	udi_vendor_enable:
  51              	.LFB71:
  52              	 .file 1 ".././hal/sam3u1c/udi_vendor.c"
   1:.././hal/sam3u1c/udi_vendor.c **** /**
   2:.././hal/sam3u1c/udi_vendor.c ****  * \file
   3:.././hal/sam3u1c/udi_vendor.c ****  *
   4:.././hal/sam3u1c/udi_vendor.c ****  * \brief USB Vendor class interface.
   5:.././hal/sam3u1c/udi_vendor.c ****  *
   6:.././hal/sam3u1c/udi_vendor.c ****  * Copyright (c) 2011 - 2012 Atmel Corporation. All rights reserved.
   7:.././hal/sam3u1c/udi_vendor.c ****  *
   8:.././hal/sam3u1c/udi_vendor.c ****  * \asf_license_start
   9:.././hal/sam3u1c/udi_vendor.c ****  *
  10:.././hal/sam3u1c/udi_vendor.c ****  * \page License
  11:.././hal/sam3u1c/udi_vendor.c ****  *
  12:.././hal/sam3u1c/udi_vendor.c ****  * Redistribution and use in source and binary forms, with or without
  13:.././hal/sam3u1c/udi_vendor.c ****  * modification, are permitted provided that the following conditions are met:
  14:.././hal/sam3u1c/udi_vendor.c ****  *
  15:.././hal/sam3u1c/udi_vendor.c ****  * 1. Redistributions of source code must retain the above copyright notice,
  16:.././hal/sam3u1c/udi_vendor.c ****  *    this list of conditions and the following disclaimer.
  17:.././hal/sam3u1c/udi_vendor.c ****  *
  18:.././hal/sam3u1c/udi_vendor.c ****  * 2. Redistributions in binary form must reproduce the above copyright notice,
  19:.././hal/sam3u1c/udi_vendor.c ****  *    this list of conditions and the following disclaimer in the documentation
  20:.././hal/sam3u1c/udi_vendor.c ****  *    and/or other materials provided with the distribution.
  21:.././hal/sam3u1c/udi_vendor.c ****  *
  22:.././hal/sam3u1c/udi_vendor.c ****  * 3. The name of Atmel may not be used to endorse or promote products derived
  23:.././hal/sam3u1c/udi_vendor.c ****  *    from this software without specific prior written permission.
  24:.././hal/sam3u1c/udi_vendor.c ****  *
  25:.././hal/sam3u1c/udi_vendor.c ****  * 4. This software may only be redistributed and used in connection with an
  26:.././hal/sam3u1c/udi_vendor.c ****  *    Atmel microcontroller product.
  27:.././hal/sam3u1c/udi_vendor.c ****  *
  28:.././hal/sam3u1c/udi_vendor.c ****  * THIS SOFTWARE IS PROVIDED BY ATMEL "AS IS" AND ANY EXPRESS OR IMPLIED
  29:.././hal/sam3u1c/udi_vendor.c ****  * WARRANTIES, INCLUDING, BUT NOT LIMITED TO, THE IMPLIED WARRANTIES OF
  30:.././hal/sam3u1c/udi_vendor.c ****  * MERCHANTABILITY, FITNESS FOR A PARTICULAR PURPOSE AND NON-INFRINGEMENT ARE
  31:.././hal/sam3u1c/udi_vendor.c ****  * EXPRESSLY AND SPECIFICALLY DISCLAIMED. IN NO EVENT SHALL ATMEL BE LIABLE FOR
  32:.././hal/sam3u1c/udi_vendor.c ****  * ANY DIRECT, INDIRECT, INCIDENTAL, SPECIAL, EXEMPLARY, OR CONSEQUENTIAL
  33:.././hal/sam3u1c/udi_vendor.c ****  * DAMAGES (INCLUDING, BUT NOT LIMITED TO, PROCUREMENT OF SUBSTITUTE GOODS
  34:.././hal/sam3u1c/udi_vendor.c ****  * OR SERVICES; LOSS OF USE, DATA, OR PROFITS; OR BUSINESS INTERRUPTION)
  35:.././hal/sam3u1c/udi_vendor.c ****  * HOWEVER CAUSED AND ON ANY THEORY OF LIABILITY, WHETHER IN CONTRACT,
  36:.././hal/sam3u1c/udi_vendor.c ****  * STRICT LIABILITY, OR TORT (INCLUDING NEGLIGENCE OR OTHERWISE) ARISING IN
  37:.././hal/sam3u1c/udi_vendor.c ****  * ANY WAY OUT OF THE USE OF THIS SOFTWARE, EVEN IF ADVISED OF THE
  38:.././hal/sam3u1c/udi_vendor.c ****  * POSSIBILITY OF SUCH DAMAGE.
  39:.././hal/sam3u1c/udi_vendor.c ****  *
  40:.././hal/sam3u1c/udi_vendor.c ****  * \asf_license_stop
  41:.././hal/sam3u1c/udi_vendor.c ****  *
  42:.././hal/sam3u1c/udi_vendor.c ****  */
  43:.././hal/sam3u1c/udi_vendor.c **** 
  44:.././hal/sam3u1c/udi_vendor.c **** #include "conf_usb.h"
  45:.././hal/sam3u1c/udi_vendor.c **** #include "usb_protocol.h"
  46:.././hal/sam3u1c/udi_vendor.c **** #include "usb_protocol_vendor.h"
  47:.././hal/sam3u1c/udi_vendor.c **** #include "udd.h"
  48:.././hal/sam3u1c/udi_vendor.c **** #include "udc.h"
  49:.././hal/sam3u1c/udi_vendor.c **** #include "udi_vendor.h"
  50:.././hal/sam3u1c/udi_vendor.c **** #include <string.h>
  51:.././hal/sam3u1c/udi_vendor.c **** 
  52:.././hal/sam3u1c/udi_vendor.c **** // Configuration check
  53:.././hal/sam3u1c/udi_vendor.c **** #ifndef UDI_VENDOR_ENABLE_EXT
  54:.././hal/sam3u1c/udi_vendor.c **** # error UDI_VENDOR_ENABLE_EXT must be defined in conf_usb.h file.
  55:.././hal/sam3u1c/udi_vendor.c **** #endif
  56:.././hal/sam3u1c/udi_vendor.c **** #ifndef UDI_VENDOR_DISABLE_EXT
  57:.././hal/sam3u1c/udi_vendor.c **** # error UDI_VENDOR_DISABLE_EXT must be defined in conf_usb.h file.
  58:.././hal/sam3u1c/udi_vendor.c **** #endif
  59:.././hal/sam3u1c/udi_vendor.c **** 
  60:.././hal/sam3u1c/udi_vendor.c **** /**
  61:.././hal/sam3u1c/udi_vendor.c ****  * \ingroup udi_vendor_group
  62:.././hal/sam3u1c/udi_vendor.c ****  * \defgroup udi_vendor_group_udc Interface with USB Device Core (UDC)
  63:.././hal/sam3u1c/udi_vendor.c ****  *
  64:.././hal/sam3u1c/udi_vendor.c ****  * Structures and functions required by UDC.
  65:.././hal/sam3u1c/udi_vendor.c ****  *
  66:.././hal/sam3u1c/udi_vendor.c ****  * @{
  67:.././hal/sam3u1c/udi_vendor.c ****  */
  68:.././hal/sam3u1c/udi_vendor.c **** bool udi_vendor_enable(void);
  69:.././hal/sam3u1c/udi_vendor.c **** void udi_vendor_disable(void);
  70:.././hal/sam3u1c/udi_vendor.c **** bool udi_vendor_setup(void);
  71:.././hal/sam3u1c/udi_vendor.c **** uint8_t udi_vendor_getsetting(void);
  72:.././hal/sam3u1c/udi_vendor.c **** 
  73:.././hal/sam3u1c/udi_vendor.c **** //! Global structure which contains standard UDI API for UDC
  74:.././hal/sam3u1c/udi_vendor.c **** UDC_DESC_STORAGE udi_api_t udi_api_vendor = {
  75:.././hal/sam3u1c/udi_vendor.c **** 	.enable = udi_vendor_enable,
  76:.././hal/sam3u1c/udi_vendor.c **** 	.disable = udi_vendor_disable,
  77:.././hal/sam3u1c/udi_vendor.c **** 	.setup = udi_vendor_setup,
  78:.././hal/sam3u1c/udi_vendor.c **** 	.getsetting = udi_vendor_getsetting,
  79:.././hal/sam3u1c/udi_vendor.c **** 	.sof_notify = NULL,
  80:.././hal/sam3u1c/udi_vendor.c **** };
  81:.././hal/sam3u1c/udi_vendor.c **** //@}
  82:.././hal/sam3u1c/udi_vendor.c **** 
  83:.././hal/sam3u1c/udi_vendor.c **** 
  84:.././hal/sam3u1c/udi_vendor.c **** /**
  85:.././hal/sam3u1c/udi_vendor.c ****  * \ingroup udi_vendor_group
  86:.././hal/sam3u1c/udi_vendor.c ****  * \defgroup udi_vendor_group_internal Implementation of UDI Vendor Class
  87:.././hal/sam3u1c/udi_vendor.c ****  *
  88:.././hal/sam3u1c/udi_vendor.c ****  * Class internal implementation
  89:.././hal/sam3u1c/udi_vendor.c ****  * @{
  90:.././hal/sam3u1c/udi_vendor.c ****  */
  91:.././hal/sam3u1c/udi_vendor.c **** 
  92:.././hal/sam3u1c/udi_vendor.c **** //! USB descriptor alternate setting used
  93:.././hal/sam3u1c/udi_vendor.c **** static uint8_t udi_vendor_alternate_setting = 0;
  94:.././hal/sam3u1c/udi_vendor.c **** 
  95:.././hal/sam3u1c/udi_vendor.c **** /**
  96:.././hal/sam3u1c/udi_vendor.c ****  * \name Internal routines
  97:.././hal/sam3u1c/udi_vendor.c ****  */
  98:.././hal/sam3u1c/udi_vendor.c **** //@{
  99:.././hal/sam3u1c/udi_vendor.c **** bool udi_vendor_enable(void)
 100:.././hal/sam3u1c/udi_vendor.c **** {
  53              	 .loc 1 100 0
  54              	 .cfi_startproc
  55              	 
  56              	 
  57 0000 80B5     	 push {r7,lr}
  58              	.LCFI0:
  59              	 .cfi_def_cfa_offset 8
  60              	 .cfi_offset 7,-8
  61              	 .cfi_offset 14,-4
  62 0002 00AF     	 add r7,sp,#0
  63              	.LCFI1:
  64              	 .cfi_def_cfa_register 7
 101:.././hal/sam3u1c/udi_vendor.c **** 	udi_vendor_alternate_setting = udc_get_interface_desc()->bAlternateSetting;
  65              	 .loc 1 101 0
  66 0004 0B4B     	 ldr r3,.L4
  67 0006 9847     	 blx r3
  68              	.LVL0:
  69 0008 0346     	 mov r3,r0
  70 000a DA78     	 ldrb r2,[r3,#3]
  71 000c 0A4B     	 ldr r3,.L4+4
  72 000e 1A70     	 strb r2,[r3]
 102:.././hal/sam3u1c/udi_vendor.c **** 	if (0 == udi_vendor_alternate_setting) {
  73              	 .loc 1 102 0
  74 0010 094B     	 ldr r3,.L4+4
  75 0012 1B78     	 ldrb r3,[r3]
  76 0014 002B     	 cmp r3,#0
  77 0016 09D1     	 bne .L2
 103:.././hal/sam3u1c/udi_vendor.c **** 		// Call application callback
 104:.././hal/sam3u1c/udi_vendor.c **** 		// to notify that interface is enabled
 105:.././hal/sam3u1c/udi_vendor.c **** 		if (!UDI_VENDOR_ENABLE_EXT()) {
  78              	 .loc 1 105 0
  79 0018 084B     	 ldr r3,.L4+8
  80 001a 9847     	 blx r3
  81              	.LVL1:
  82 001c 0346     	 mov r3,r0
  83 001e 83F00103 	 eor r3,r3,#1
  84 0022 DBB2     	 uxtb r3,r3
  85 0024 002B     	 cmp r3,#0
  86 0026 01D0     	 beq .L2
 106:.././hal/sam3u1c/udi_vendor.c **** 			return false;
  87              	 .loc 1 106 0
  88 0028 0023     	 movs r3,#0
  89 002a 00E0     	 b .L3
  90              	.L2:
 107:.././hal/sam3u1c/udi_vendor.c **** 		}
 108:.././hal/sam3u1c/udi_vendor.c **** 	}
 109:.././hal/sam3u1c/udi_vendor.c **** 	return true;
  91              	 .loc 1 109 0
  92 002c 0123     	 movs r3,#1
  93              	.L3:
 110:.././hal/sam3u1c/udi_vendor.c **** }
  94              	 .loc 1 110 0
  95 002e 1846     	 mov r0,r3
  96 0030 80BD     	 pop {r7,pc}
  97              	.L5:
  98 0032 00BF     	 .align 2
  99              	.L4:
 100 0034 00000000 	 .word udc_get_interface_desc
 101 0038 00000000 	 .word udi_vendor_alternate_setting
 102 003c 00000000 	 .word main_vendor_enable
 103              	 .cfi_endproc
 104              	.LFE71:
 106              	 .section .text.udi_vendor_disable,"ax",%progbits
 107              	 .align 1
 108              	 .global udi_vendor_disable
 109              	 .syntax unified
 110              	 .thumb
 111              	 .thumb_func
 112              	 .fpu softvfp
 114              	udi_vendor_disable:
 115              	.LFB72:
 111:.././hal/sam3u1c/udi_vendor.c **** 
 112:.././hal/sam3u1c/udi_vendor.c **** 
 113:.././hal/sam3u1c/udi_vendor.c **** void udi_vendor_disable(void)
 114:.././hal/sam3u1c/udi_vendor.c **** {
 116              	 .loc 1 114 0
 117              	 .cfi_startproc
 118              	 
 119              	 
 120 0000 80B5     	 push {r7,lr}
 121              	.LCFI2:
 122              	 .cfi_def_cfa_offset 8
 123              	 .cfi_offset 7,-8
 124              	 .cfi_offset 14,-4
 125 0002 00AF     	 add r7,sp,#0
 126              	.LCFI3:
 127              	 .cfi_def_cfa_register 7
 115:.././hal/sam3u1c/udi_vendor.c **** 	if (0 == udi_vendor_alternate_setting) {
 128              	 .loc 1 115 0
 129 0004 034B     	 ldr r3,.L9
 130 0006 1B78     	 ldrb r3,[r3]
 131 0008 002B     	 cmp r3,#0
 132 000a 01D1     	 bne .L8
 116:.././hal/sam3u1c/udi_vendor.c **** 		UDI_VENDOR_DISABLE_EXT();
 133              	 .loc 1 116 0
 134 000c 024B     	 ldr r3,.L9+4
 135 000e 9847     	 blx r3
 136              	.LVL2:
 137              	.L8:
 117:.././hal/sam3u1c/udi_vendor.c **** 	}
 118:.././hal/sam3u1c/udi_vendor.c **** }
 138              	 .loc 1 118 0
 139 0010 00BF     	 nop
 140 0012 80BD     	 pop {r7,pc}
 141              	.L10:
 142              	 .align 2
 143              	.L9:
 144 0014 00000000 	 .word udi_vendor_alternate_setting
 145 0018 00000000 	 .word main_vendor_disable
 146              	 .cfi_endproc
 147              	.LFE72:
 149              	 .section .text.udi_vendor_setup,"ax",%progbits
 150              	 .align 1
 151              	 .global udi_vendor_setup
 152              	 .syntax unified
 153              	 .thumb
 154              	 .thumb_func
 155              	 .fpu softvfp
 157              	udi_vendor_setup:
 158              	.LFB73:
 119:.././hal/sam3u1c/udi_vendor.c **** 
 120:.././hal/sam3u1c/udi_vendor.c **** bool udi_vendor_setup(void)
 121:.././hal/sam3u1c/udi_vendor.c **** {
 159              	 .loc 1 121 0
 160              	 .cfi_startproc
 161              	 
 162              	 
 163 0000 80B5     	 push {r7,lr}
 164              	.LCFI4:
 165              	 .cfi_def_cfa_offset 8
 166              	 .cfi_offset 7,-8
 167              	 .cfi_offset 14,-4
 168 0002 00AF     	 add r7,sp,#0
 169              	.LCFI5:
 170              	 .cfi_def_cfa_register 7
 122:.././hal/sam3u1c/udi_vendor.c **** 	if (Udd_setup_is_in()) {
 171              	 .loc 1 122 0
 172 0004 104B     	 ldr r3,.L15
 173 0006 1B78     	 ldrb r3,[r3]
 174 0008 5BB2     	 sxtb r3,r3
 175 000a 002B     	 cmp r3,#0
 176 000c 09DA     	 bge .L12
 123:.././hal/sam3u1c/udi_vendor.c **** 		if (Udd_setup_type() == USB_REQ_TYPE_VENDOR) {
 177              	 .loc 1 123 0
 178 000e 0E4B     	 ldr r3,.L15
 179 0010 1B78     	 ldrb r3,[r3]
 180 0012 03F06003 	 and r3,r3,#96
 181 0016 402B     	 cmp r3,#64
 182 0018 03D1     	 bne .L12
 124:.././hal/sam3u1c/udi_vendor.c **** 			return UDI_VENDOR_SETUP_IN_RECEIVED();
 183              	 .loc 1 124 0
 184 001a 0C4B     	 ldr r3,.L15+4
 185 001c 9847     	 blx r3
 186              	.LVL3:
 187 001e 0346     	 mov r3,r0
 188 0020 0FE0     	 b .L13
 189              	.L12:
 125:.././hal/sam3u1c/udi_vendor.c **** 		}
 126:.././hal/sam3u1c/udi_vendor.c **** 	}
 127:.././hal/sam3u1c/udi_vendor.c **** 	if (Udd_setup_is_out()) {
 190              	 .loc 1 127 0
 191 0022 094B     	 ldr r3,.L15
 192 0024 1B78     	 ldrb r3,[r3]
 193 0026 5BB2     	 sxtb r3,r3
 194 0028 002B     	 cmp r3,#0
 195 002a 09DB     	 blt .L14
 128:.././hal/sam3u1c/udi_vendor.c **** 		if (Udd_setup_type() == USB_REQ_TYPE_VENDOR) {
 196              	 .loc 1 128 0
 197 002c 064B     	 ldr r3,.L15
 198 002e 1B78     	 ldrb r3,[r3]
 199 0030 03F06003 	 and r3,r3,#96
 200 0034 402B     	 cmp r3,#64
 201 0036 03D1     	 bne .L14
 129:.././hal/sam3u1c/udi_vendor.c **** 			return UDI_VENDOR_SETUP_OUT_RECEIVED();
 202              	 .loc 1 129 0
 203 0038 054B     	 ldr r3,.L15+8
 204 003a 9847     	 blx r3
 205              	.LVL4:
 206 003c 0346     	 mov r3,r0
 207 003e 00E0     	 b .L13
 208              	.L14:
 130:.././hal/sam3u1c/udi_vendor.c **** 		}
 131:.././hal/sam3u1c/udi_vendor.c **** 	}
 132:.././hal/sam3u1c/udi_vendor.c **** 	return false; // Not supported request
 209              	 .loc 1 132 0
 210 0040 0023     	 movs r3,#0
 211              	.L13:
 133:.././hal/sam3u1c/udi_vendor.c **** }
 212              	 .loc 1 133 0
 213 0042 1846     	 mov r0,r3
 214 0044 80BD     	 pop {r7,pc}
 215              	.L16:
 216 0046 00BF     	 .align 2
 217              	.L15:
 218 0048 00000000 	 .word udd_g_ctrlreq
 219 004c 00000000 	 .word main_setup_in_received
 220 0050 00000000 	 .word main_setup_out_received
 221              	 .cfi_endproc
 222              	.LFE73:
 224              	 .section .text.udi_vendor_getsetting,"ax",%progbits
 225              	 .align 1
 226              	 .global udi_vendor_getsetting
 227              	 .syntax unified
 228              	 .thumb
 229              	 .thumb_func
 230              	 .fpu softvfp
 232              	udi_vendor_getsetting:
 233              	.LFB74:
 134:.././hal/sam3u1c/udi_vendor.c **** 
 135:.././hal/sam3u1c/udi_vendor.c **** uint8_t udi_vendor_getsetting(void)
 136:.././hal/sam3u1c/udi_vendor.c **** {
 234              	 .loc 1 136 0
 235              	 .cfi_startproc
 236              	 
 237              	 
 238              	 
 239 0000 80B4     	 push {r7}
 240              	.LCFI6:
 241              	 .cfi_def_cfa_offset 4
 242              	 .cfi_offset 7,-4
 243 0002 00AF     	 add r7,sp,#0
 244              	.LCFI7:
 245              	 .cfi_def_cfa_register 7
 137:.././hal/sam3u1c/udi_vendor.c **** 	return udi_vendor_alternate_setting;
 246              	 .loc 1 137 0
 247 0004 024B     	 ldr r3,.L19
 248 0006 1B78     	 ldrb r3,[r3]
 138:.././hal/sam3u1c/udi_vendor.c **** }
 249              	 .loc 1 138 0
 250 0008 1846     	 mov r0,r3
 251 000a BD46     	 mov sp,r7
 252              	.LCFI8:
 253              	 .cfi_def_cfa_register 13
 254              	 
 255 000c 80BC     	 pop {r7}
 256              	.LCFI9:
 257              	 .cfi_restore 7
 258              	 .cfi_def_cfa_offset 0
 259 000e 7047     	 bx lr
 260              	.L20:
 261              	 .align 2
 262              	.L19:
 263 0010 00000000 	 .word udi_vendor_alternate_setting
 264              	 .cfi_endproc
 265              	.LFE74:
 267              	 .section .text.udi_vendor_bulk_in_run,"ax",%progbits
 268              	 .align 1
 269              	 .global udi_vendor_bulk_in_run
 270              	 .syntax unified
 271              	 .thumb
 272              	 .thumb_func
 273              	 .fpu softvfp
 275              	udi_vendor_bulk_in_run:
 276              	.LFB75:
 139:.././hal/sam3u1c/udi_vendor.c **** //@}
 140:.././hal/sam3u1c/udi_vendor.c **** 
 141:.././hal/sam3u1c/udi_vendor.c **** #if UDI_VENDOR_EPS_SIZE_INT_FS
 142:.././hal/sam3u1c/udi_vendor.c **** /**
 143:.././hal/sam3u1c/udi_vendor.c ****  * \brief Start a transfer on interrupt IN
 144:.././hal/sam3u1c/udi_vendor.c ****  *
 145:.././hal/sam3u1c/udi_vendor.c ****  * When the transfer is finished or aborted (stall, reset, ...), the \a callback is called.
 146:.././hal/sam3u1c/udi_vendor.c ****  * The \a callback returns the transfer status and eventually the number of byte transfered.
 147:.././hal/sam3u1c/udi_vendor.c ****  *
 148:.././hal/sam3u1c/udi_vendor.c ****  * \param buf           Buffer on Internal RAM to send or fill.
 149:.././hal/sam3u1c/udi_vendor.c ****  *                      It must be align, then use COMPILER_WORD_ALIGNED.
 150:.././hal/sam3u1c/udi_vendor.c ****  * \param buf_size      Buffer size to send or fill
 151:.././hal/sam3u1c/udi_vendor.c ****  * \param callback      NULL or function to call at the end of transfer
 152:.././hal/sam3u1c/udi_vendor.c ****  *
 153:.././hal/sam3u1c/udi_vendor.c ****  * \return \c 1 if function was successfully done, otherwise \c 0.
 154:.././hal/sam3u1c/udi_vendor.c ****  */
 155:.././hal/sam3u1c/udi_vendor.c **** bool udi_vendor_interrupt_in_run(uint8_t * buf, iram_size_t buf_size,
 156:.././hal/sam3u1c/udi_vendor.c **** 		udd_callback_trans_t callback)
 157:.././hal/sam3u1c/udi_vendor.c **** {
 158:.././hal/sam3u1c/udi_vendor.c **** 	return udd_ep_run(UDI_VENDOR_EP_INTERRUPT_IN,
 159:.././hal/sam3u1c/udi_vendor.c **** 			false,
 160:.././hal/sam3u1c/udi_vendor.c **** 			buf,
 161:.././hal/sam3u1c/udi_vendor.c **** 			buf_size,
 162:.././hal/sam3u1c/udi_vendor.c **** 			callback);
 163:.././hal/sam3u1c/udi_vendor.c **** }
 164:.././hal/sam3u1c/udi_vendor.c **** 
 165:.././hal/sam3u1c/udi_vendor.c **** 
 166:.././hal/sam3u1c/udi_vendor.c **** /**
 167:.././hal/sam3u1c/udi_vendor.c ****  * \brief Start a transfer on interrupt OUT
 168:.././hal/sam3u1c/udi_vendor.c ****  *
 169:.././hal/sam3u1c/udi_vendor.c ****  * When the transfer is finished or aborted (stall, reset, ...), the \a callback is called.
 170:.././hal/sam3u1c/udi_vendor.c ****  * The \a callback returns the transfer status and eventually the number of byte transfered.
 171:.././hal/sam3u1c/udi_vendor.c ****  *
 172:.././hal/sam3u1c/udi_vendor.c ****  * \param buf           Buffer on Internal RAM to send or fill.
 173:.././hal/sam3u1c/udi_vendor.c ****  *                      It must be align, then use COMPILER_WORD_ALIGNED.
 174:.././hal/sam3u1c/udi_vendor.c ****  * \param buf_size      Buffer size to send or fill
 175:.././hal/sam3u1c/udi_vendor.c ****  * \param callback      NULL or function to call at the end of transfer
 176:.././hal/sam3u1c/udi_vendor.c ****  *
 177:.././hal/sam3u1c/udi_vendor.c ****  * \return \c 1 if function was successfully done, otherwise \c 0.
 178:.././hal/sam3u1c/udi_vendor.c ****  */
 179:.././hal/sam3u1c/udi_vendor.c **** bool udi_vendor_interrupt_out_run(uint8_t * buf, iram_size_t buf_size,
 180:.././hal/sam3u1c/udi_vendor.c **** 		udd_callback_trans_t callback)
 181:.././hal/sam3u1c/udi_vendor.c **** {
 182:.././hal/sam3u1c/udi_vendor.c **** 	return udd_ep_run(UDI_VENDOR_EP_INTERRUPT_OUT,
 183:.././hal/sam3u1c/udi_vendor.c **** 			false,
 184:.././hal/sam3u1c/udi_vendor.c **** 			buf,
 185:.././hal/sam3u1c/udi_vendor.c **** 			buf_size,
 186:.././hal/sam3u1c/udi_vendor.c **** 			callback);
 187:.././hal/sam3u1c/udi_vendor.c **** }
 188:.././hal/sam3u1c/udi_vendor.c **** #endif
 189:.././hal/sam3u1c/udi_vendor.c **** 
 190:.././hal/sam3u1c/udi_vendor.c **** #if UDI_VENDOR_EPS_SIZE_BULK_FS
 191:.././hal/sam3u1c/udi_vendor.c **** /**
 192:.././hal/sam3u1c/udi_vendor.c ****  * \brief Start a transfer on bulk IN
 193:.././hal/sam3u1c/udi_vendor.c ****  *
 194:.././hal/sam3u1c/udi_vendor.c ****  * When the transfer is finished or aborted (stall, reset, ...), the \a callback is called.
 195:.././hal/sam3u1c/udi_vendor.c ****  * The \a callback returns the transfer status and eventually the number of byte transfered.
 196:.././hal/sam3u1c/udi_vendor.c ****  *
 197:.././hal/sam3u1c/udi_vendor.c ****  * \param buf           Buffer on Internal RAM to send or fill.
 198:.././hal/sam3u1c/udi_vendor.c ****  *                      It must be align, then use COMPILER_WORD_ALIGNED.
 199:.././hal/sam3u1c/udi_vendor.c ****  * \param buf_size      Buffer size to send or fill
 200:.././hal/sam3u1c/udi_vendor.c ****  * \param callback      NULL or function to call at the end of transfer
 201:.././hal/sam3u1c/udi_vendor.c ****  *
 202:.././hal/sam3u1c/udi_vendor.c ****  * \return \c 1 if function was successfully done, otherwise \c 0.
 203:.././hal/sam3u1c/udi_vendor.c ****  */
 204:.././hal/sam3u1c/udi_vendor.c **** bool udi_vendor_bulk_in_run(uint8_t * buf, iram_size_t buf_size,
 205:.././hal/sam3u1c/udi_vendor.c **** 		udd_callback_trans_t callback)
 206:.././hal/sam3u1c/udi_vendor.c **** {
 277              	 .loc 1 206 0
 278              	 .cfi_startproc
 279              	 
 280              	 
 281 0000 90B5     	 push {r4,r7,lr}
 282              	.LCFI10:
 283              	 .cfi_def_cfa_offset 12
 284              	 .cfi_offset 4,-12
 285              	 .cfi_offset 7,-8
 286              	 .cfi_offset 14,-4
 287 0002 87B0     	 sub sp,sp,#28
 288              	.LCFI11:
 289              	 .cfi_def_cfa_offset 40
 290 0004 02AF     	 add r7,sp,#8
 291              	.LCFI12:
 292              	 .cfi_def_cfa 7,32
 293 0006 F860     	 str r0,[r7,#12]
 294 0008 B960     	 str r1,[r7,#8]
 295 000a 7A60     	 str r2,[r7,#4]
 207:.././hal/sam3u1c/udi_vendor.c **** 	return udd_ep_run(UDI_VENDOR_EP_BULK_IN,
 296              	 .loc 1 207 0
 297 000c 7B68     	 ldr r3,[r7,#4]
 298 000e 0093     	 str r3,[sp]
 299 0010 BB68     	 ldr r3,[r7,#8]
 300 0012 FA68     	 ldr r2,[r7,#12]
 301 0014 0021     	 movs r1,#0
 302 0016 8120     	 movs r0,#129
 303 0018 034C     	 ldr r4,.L23
 304 001a A047     	 blx r4
 305              	.LVL5:
 306 001c 0346     	 mov r3,r0
 208:.././hal/sam3u1c/udi_vendor.c **** 			false,
 209:.././hal/sam3u1c/udi_vendor.c **** 			buf,
 210:.././hal/sam3u1c/udi_vendor.c **** 			buf_size,
 211:.././hal/sam3u1c/udi_vendor.c **** 			callback);
 212:.././hal/sam3u1c/udi_vendor.c **** }
 307              	 .loc 1 212 0
 308 001e 1846     	 mov r0,r3
 309 0020 1437     	 adds r7,r7,#20
 310              	.LCFI13:
 311              	 .cfi_def_cfa_offset 12
 312 0022 BD46     	 mov sp,r7
 313              	.LCFI14:
 314              	 .cfi_def_cfa_register 13
 315              	 
 316 0024 90BD     	 pop {r4,r7,pc}
 317              	.L24:
 318 0026 00BF     	 .align 2
 319              	.L23:
 320 0028 00000000 	 .word udd_ep_run
 321              	 .cfi_endproc
 322              	.LFE75:
 324              	 .section .text.udi_vendor_bulk_out_run,"ax",%progbits
 325              	 .align 1
 326              	 .global udi_vendor_bulk_out_run
 327              	 .syntax unified
 328              	 .thumb
 329              	 .thumb_func
 330              	 .fpu softvfp
 332              	udi_vendor_bulk_out_run:
 333              	.LFB76:
 213:.././hal/sam3u1c/udi_vendor.c **** 
 214:.././hal/sam3u1c/udi_vendor.c **** 
 215:.././hal/sam3u1c/udi_vendor.c **** /**
 216:.././hal/sam3u1c/udi_vendor.c ****  * \brief Start a transfer on bulk OUT
 217:.././hal/sam3u1c/udi_vendor.c ****  *
 218:.././hal/sam3u1c/udi_vendor.c ****  * When the transfer is finished or aborted (stall, reset, ...), the \a callback is called.
 219:.././hal/sam3u1c/udi_vendor.c ****  * The \a callback returns the transfer status and eventually the number of byte transfered.
 220:.././hal/sam3u1c/udi_vendor.c ****  *
 221:.././hal/sam3u1c/udi_vendor.c ****  * \param buf           Buffer on Internal RAM to send or fill.
 222:.././hal/sam3u1c/udi_vendor.c ****  *                      It must be align, then use COMPILER_WORD_ALIGNED.
 223:.././hal/sam3u1c/udi_vendor.c ****  * \param buf_size      Buffer size to send or fill
 224:.././hal/sam3u1c/udi_vendor.c ****  * \param callback      NULL or function to call at the end of transfer
 225:.././hal/sam3u1c/udi_vendor.c ****  *
 226:.././hal/sam3u1c/udi_vendor.c ****  * \return \c 1 if function was successfully done, otherwise \c 0.
 227:.././hal/sam3u1c/udi_vendor.c ****  */
 228:.././hal/sam3u1c/udi_vendor.c **** bool udi_vendor_bulk_out_run(uint8_t * buf, iram_size_t buf_size,
 229:.././hal/sam3u1c/udi_vendor.c **** 		udd_callback_trans_t callback)
 230:.././hal/sam3u1c/udi_vendor.c **** {
 334              	 .loc 1 230 0
 335              	 .cfi_startproc
 336              	 
 337              	 
 338 0000 90B5     	 push {r4,r7,lr}
 339              	.LCFI15:
 340              	 .cfi_def_cfa_offset 12
 341              	 .cfi_offset 4,-12
 342              	 .cfi_offset 7,-8
 343              	 .cfi_offset 14,-4
 344 0002 87B0     	 sub sp,sp,#28
 345              	.LCFI16:
 346              	 .cfi_def_cfa_offset 40
 347 0004 02AF     	 add r7,sp,#8
 348              	.LCFI17:
 349              	 .cfi_def_cfa 7,32
 350 0006 F860     	 str r0,[r7,#12]
 351 0008 B960     	 str r1,[r7,#8]
 352 000a 7A60     	 str r2,[r7,#4]
 231:.././hal/sam3u1c/udi_vendor.c **** 	return udd_ep_run(UDI_VENDOR_EP_BULK_OUT,
 353              	 .loc 1 231 0
 354 000c 7B68     	 ldr r3,[r7,#4]
 355 000e 0093     	 str r3,[sp]
 356 0010 BB68     	 ldr r3,[r7,#8]
 357 0012 FA68     	 ldr r2,[r7,#12]
 358 0014 0021     	 movs r1,#0
 359 0016 0220     	 movs r0,#2
 360 0018 034C     	 ldr r4,.L27
 361 001a A047     	 blx r4
 362              	.LVL6:
 363 001c 0346     	 mov r3,r0
 232:.././hal/sam3u1c/udi_vendor.c **** 			false,
 233:.././hal/sam3u1c/udi_vendor.c **** 			buf,
 234:.././hal/sam3u1c/udi_vendor.c **** 			buf_size,
 235:.././hal/sam3u1c/udi_vendor.c **** 			callback);
 236:.././hal/sam3u1c/udi_vendor.c **** }
 364              	 .loc 1 236 0
 365 001e 1846     	 mov r0,r3
 366 0020 1437     	 adds r7,r7,#20
 367              	.LCFI18:
 368              	 .cfi_def_cfa_offset 12
 369 0022 BD46     	 mov sp,r7
 370              	.LCFI19:
 371              	 .cfi_def_cfa_register 13
 372              	 
 373 0024 90BD     	 pop {r4,r7,pc}
 374              	.L28:
 375 0026 00BF     	 .align 2
 376              	.L27:
 377 0028 00000000 	 .word udd_ep_run
 378              	 .cfi_endproc
 379              	.LFE76:
 381              	 .text
 382              	.Letext0:
 383              	 .file 2 "c:\\program files (x86)\\atmel\\studio\\7.0\\toolchain\\arm\\arm-gnu-toolchain\\arm-none-eabi\\include\\machine\\_default_types.h"
 384              	 .file 3 "c:\\program files (x86)\\atmel\\studio\\7.0\\toolchain\\arm\\arm-gnu-toolchain\\arm-none-eabi\\include\\sys\\_stdint.h"
 385              	 .file 4 ".././hal/sam3u1c/inc/core_cm3.h"
 386              	 .file 5 ".././hal/sam3u1c/inc/system_sam3u.h"
 387              	 .file 6 "c:\\program files (x86)\\atmel\\studio\\7.0\\toolchain\\arm\\arm-gnu-toolchain\\arm-none-eabi\\include\\sys\\lock.h"
 388              	 .file 7 "c:\\program files (x86)\\atmel\\studio\\7.0\\toolchain\\arm\\arm-gnu-toolchain\\arm-none-eabi\\include\\sys\\_types.h"
 389              	 .file 8 "c:\\program files (x86)\\atmel\\studio\\7.0\\toolchain\\arm\\arm-gnu-toolchain\\lib\\gcc\\arm-none-eabi\\6.3.1\\include\\stddef.h"
 390              	 .file 9 "c:\\program files (x86)\\atmel\\studio\\7.0\\toolchain\\arm\\arm-gnu-toolchain\\arm-none-eabi\\include\\sys\\reent.h"
 391              	 .file 10 "c:\\program files (x86)\\atmel\\studio\\7.0\\toolchain\\arm\\arm-gnu-toolchain\\arm-none-eabi\\include\\stdlib.h"
 392              	 .file 11 ".././hal/sam3u1c/inc/interrupt/interrupt_sam_nvic.h"
 393              	 .file 12 ".././hal/sam3u1c/inc/compiler.h"
 394              	 .file 13 "./conf_usb.h"
 395              	 .file 14 ".././hal/sam3u1c/inc/usb_protocol.h"
 396              	 .file 15 ".././hal/sam3u1c/inc/udi.h"
 397              	 .file 16 ".././hal/sam3u1c/inc/udc_desc.h"
 398              	 .file 17 ".././hal/sam3u1c/inc/udd.h"
 399              	 .file 18 ".././hal/sam3u1c/inc/udi_vendor.h"
 400              	 .file 19 ".././hal/sam3u1c/inc/main.h"
 401              	 .file 20 ".././hal/sam3u1c/inc/udc.h"