   1              	 .cpu cortex-m3
   2              	 .eabi_attribute 20,1
   3              	 .eabi_attribute 21,1
   4              	 .eabi_attribute 23,3
   5              	 .eabi_attribute 24,1
   6              	 .eabi_attribute 25,1
   7              	 .eabi_attribute 26,1
   8              	 .eabi_attribute 30,6
   9              	 .eabi_attribute 34,1
  10              	 .eabi_attribute 18,4
  11              	 .file "usb.c"
  12              	 .text
  13              	.Ltext0:
  14              	 .cfi_sections .debug_frame
  15              	 .section .bss.cpu_irq_critical_section_counter,"aw",%nobits
  16              	 .align 2
  19              	cpu_irq_critical_section_counter:
  20 0000 00000000 	 .space 4
  21              	 .section .bss.cpu_irq_prev_interrupt_state,"aw",%nobits
  24              	cpu_irq_prev_interrupt_state:
  25 0000 00       	 .space 1
  26              	 .section .text.osc_enable,"ax",%progbits
  27              	 .align 1
  28              	 .syntax unified
  29              	 .thumb
  30              	 .thumb_func
  31              	 .fpu softvfp
  33              	osc_enable:
  34              	.LFB69:
  35              	 .file 1 ".././hal/sam3u1c/inc/sam3u/osc.h"
   1:.././hal/sam3u1c/inc/sam3u/osc.h **** /**
   2:.././hal/sam3u1c/inc/sam3u/osc.h ****  * \file
   3:.././hal/sam3u1c/inc/sam3u/osc.h ****  *
   4:.././hal/sam3u1c/inc/sam3u/osc.h ****  * \brief Chip-specific oscillator management functions.
   5:.././hal/sam3u1c/inc/sam3u/osc.h ****  *
   6:.././hal/sam3u1c/inc/sam3u/osc.h ****  * Copyright (c) 2011 - 2013 Atmel Corporation. All rights reserved.
   7:.././hal/sam3u1c/inc/sam3u/osc.h ****  *
   8:.././hal/sam3u1c/inc/sam3u/osc.h ****  * \asf_license_start
   9:.././hal/sam3u1c/inc/sam3u/osc.h ****  *
  10:.././hal/sam3u1c/inc/sam3u/osc.h ****  * \page License
  11:.././hal/sam3u1c/inc/sam3u/osc.h ****  *
  12:.././hal/sam3u1c/inc/sam3u/osc.h ****  * Redistribution and use in source and binary forms, with or without
  13:.././hal/sam3u1c/inc/sam3u/osc.h ****  * modification, are permitted provided that the following conditions are met:
  14:.././hal/sam3u1c/inc/sam3u/osc.h ****  *
  15:.././hal/sam3u1c/inc/sam3u/osc.h ****  * 1. Redistributions of source code must retain the above copyright notice,
  16:.././hal/sam3u1c/inc/sam3u/osc.h ****  *    this list of conditions and the following disclaimer.
  17:.././hal/sam3u1c/inc/sam3u/osc.h ****  *
  18:.././hal/sam3u1c/inc/sam3u/osc.h ****  * 2. Redistributions in binary form must reproduce the above copyright notice,
  19:.././hal/sam3u1c/inc/sam3u/osc.h ****  *    this list of conditions and the following disclaimer in the documentation
  20:.././hal/sam3u1c/inc/sam3u/osc.h ****  *    and/or other materials provided with the distribution.
  21:.././hal/sam3u1c/inc/sam3u/osc.h ****  *
  22:.././hal/sam3u1c/inc/sam3u/osc.h ****  * 3. The name of Atmel may not be used to endorse or promote products derived
  23:.././hal/sam3u1c/inc/sam3u/osc.h ****  *    from this software without specific prior written permission.
  24:.././hal/sam3u1c/inc/sam3u/osc.h ****  *
  25:.././hal/sam3u1c/inc/sam3u/osc.h ****  * 4. This software may only be redistributed and used in connection with an
  26:.././hal/sam3u1c/inc/sam3u/osc.h ****  *    Atmel microcontroller product.
  27:.././hal/sam3u1c/inc/sam3u/osc.h ****  *
  28:.././hal/sam3u1c/inc/sam3u/osc.h ****  * THIS SOFTWARE IS PROVIDED BY ATMEL "AS IS" AND ANY EXPRESS OR IMPLIED
  29:.././hal/sam3u1c/inc/sam3u/osc.h ****  * WARRANTIES, INCLUDING, BUT NOT LIMITED TO, THE IMPLIED WARRANTIES OF
  30:.././hal/sam3u1c/inc/sam3u/osc.h ****  * MERCHANTABILITY, FITNESS FOR A PARTICULAR PURPOSE AND NON-INFRINGEMENT ARE
  31:.././hal/sam3u1c/inc/sam3u/osc.h ****  * EXPRESSLY AND SPECIFICALLY DISCLAIMED. IN NO EVENT SHALL ATMEL BE LIABLE FOR
  32:.././hal/sam3u1c/inc/sam3u/osc.h ****  * ANY DIRECT, INDIRECT, INCIDENTAL, SPECIAL, EXEMPLARY, OR CONSEQUENTIAL
  33:.././hal/sam3u1c/inc/sam3u/osc.h ****  * DAMAGES (INCLUDING, BUT NOT LIMITED TO, PROCUREMENT OF SUBSTITUTE GOODS
  34:.././hal/sam3u1c/inc/sam3u/osc.h ****  * OR SERVICES; LOSS OF USE, DATA, OR PROFITS; OR BUSINESS INTERRUPTION)
  35:.././hal/sam3u1c/inc/sam3u/osc.h ****  * HOWEVER CAUSED AND ON ANY THEORY OF LIABILITY, WHETHER IN CONTRACT,
  36:.././hal/sam3u1c/inc/sam3u/osc.h ****  * STRICT LIABILITY, OR TORT (INCLUDING NEGLIGENCE OR OTHERWISE) ARISING IN
  37:.././hal/sam3u1c/inc/sam3u/osc.h ****  * ANY WAY OUT OF THE USE OF THIS SOFTWARE, EVEN IF ADVISED OF THE
  38:.././hal/sam3u1c/inc/sam3u/osc.h ****  * POSSIBILITY OF SUCH DAMAGE.
  39:.././hal/sam3u1c/inc/sam3u/osc.h ****  *
  40:.././hal/sam3u1c/inc/sam3u/osc.h ****  * \asf_license_stop
  41:.././hal/sam3u1c/inc/sam3u/osc.h ****  *
  42:.././hal/sam3u1c/inc/sam3u/osc.h ****  */
  43:.././hal/sam3u1c/inc/sam3u/osc.h **** 
  44:.././hal/sam3u1c/inc/sam3u/osc.h **** #ifndef CHIP_OSC_H_INCLUDED
  45:.././hal/sam3u1c/inc/sam3u/osc.h **** #define CHIP_OSC_H_INCLUDED
  46:.././hal/sam3u1c/inc/sam3u/osc.h **** 
  47:.././hal/sam3u1c/inc/sam3u/osc.h **** #include "board.h"
  48:.././hal/sam3u1c/inc/sam3u/osc.h **** #include "pmc.h"
  49:.././hal/sam3u1c/inc/sam3u/osc.h **** 
  50:.././hal/sam3u1c/inc/sam3u/osc.h **** /// @cond 0
  51:.././hal/sam3u1c/inc/sam3u/osc.h **** /**INDENT-OFF**/
  52:.././hal/sam3u1c/inc/sam3u/osc.h **** #ifdef __cplusplus
  53:.././hal/sam3u1c/inc/sam3u/osc.h **** extern "C" {
  54:.././hal/sam3u1c/inc/sam3u/osc.h **** #endif
  55:.././hal/sam3u1c/inc/sam3u/osc.h **** /**INDENT-ON**/
  56:.././hal/sam3u1c/inc/sam3u/osc.h **** /// @endcond
  57:.././hal/sam3u1c/inc/sam3u/osc.h **** 
  58:.././hal/sam3u1c/inc/sam3u/osc.h **** /*
  59:.././hal/sam3u1c/inc/sam3u/osc.h ****  * Below BOARD_XXX macros are related to the specific board, and
  60:.././hal/sam3u1c/inc/sam3u/osc.h ****  * should be defined by the board code, otherwise default value are used.
  61:.././hal/sam3u1c/inc/sam3u/osc.h ****  */
  62:.././hal/sam3u1c/inc/sam3u/osc.h **** #if !defined(BOARD_FREQ_SLCK_XTAL)
  63:.././hal/sam3u1c/inc/sam3u/osc.h **** #  warning The board slow clock xtal frequency has not been defined.
  64:.././hal/sam3u1c/inc/sam3u/osc.h **** #  define BOARD_FREQ_SLCK_XTAL      (32768UL)
  65:.././hal/sam3u1c/inc/sam3u/osc.h **** #endif
  66:.././hal/sam3u1c/inc/sam3u/osc.h **** 
  67:.././hal/sam3u1c/inc/sam3u/osc.h **** #if !defined(BOARD_FREQ_SLCK_BYPASS)
  68:.././hal/sam3u1c/inc/sam3u/osc.h **** #  warning The board slow clock bypass frequency has not been defined.
  69:.././hal/sam3u1c/inc/sam3u/osc.h **** #  define BOARD_FREQ_SLCK_BYPASS    (32768UL)
  70:.././hal/sam3u1c/inc/sam3u/osc.h **** #endif
  71:.././hal/sam3u1c/inc/sam3u/osc.h **** 
  72:.././hal/sam3u1c/inc/sam3u/osc.h **** #if !defined(BOARD_FREQ_MAINCK_XTAL)
  73:.././hal/sam3u1c/inc/sam3u/osc.h **** #  warning The board main clock xtal frequency has not been defined.
  74:.././hal/sam3u1c/inc/sam3u/osc.h **** #  define BOARD_FREQ_MAINCK_XTAL    (12000000UL)
  75:.././hal/sam3u1c/inc/sam3u/osc.h **** #endif
  76:.././hal/sam3u1c/inc/sam3u/osc.h **** 
  77:.././hal/sam3u1c/inc/sam3u/osc.h **** #if !defined(BOARD_FREQ_MAINCK_BYPASS)
  78:.././hal/sam3u1c/inc/sam3u/osc.h **** #  warning The board main clock bypass frequency has not been defined.
  79:.././hal/sam3u1c/inc/sam3u/osc.h **** #  define BOARD_FREQ_MAINCK_BYPASS  (12000000UL)
  80:.././hal/sam3u1c/inc/sam3u/osc.h **** #endif
  81:.././hal/sam3u1c/inc/sam3u/osc.h **** 
  82:.././hal/sam3u1c/inc/sam3u/osc.h **** #if !defined(BOARD_OSC_STARTUP_US)
  83:.././hal/sam3u1c/inc/sam3u/osc.h **** #  warning The board main clock xtal startup time has not been defined.
  84:.././hal/sam3u1c/inc/sam3u/osc.h **** #  define BOARD_OSC_STARTUP_US      (15625UL)
  85:.././hal/sam3u1c/inc/sam3u/osc.h **** #endif
  86:.././hal/sam3u1c/inc/sam3u/osc.h **** 
  87:.././hal/sam3u1c/inc/sam3u/osc.h **** /**
  88:.././hal/sam3u1c/inc/sam3u/osc.h ****  * \weakgroup osc_group
  89:.././hal/sam3u1c/inc/sam3u/osc.h ****  * @{
  90:.././hal/sam3u1c/inc/sam3u/osc.h ****  */
  91:.././hal/sam3u1c/inc/sam3u/osc.h **** 
  92:.././hal/sam3u1c/inc/sam3u/osc.h **** //! \name Oscillator identifiers
  93:.././hal/sam3u1c/inc/sam3u/osc.h **** //@{
  94:.././hal/sam3u1c/inc/sam3u/osc.h **** #define OSC_SLCK_32K_RC             0    //!< Internal 32kHz RC oscillator.
  95:.././hal/sam3u1c/inc/sam3u/osc.h **** #define OSC_SLCK_32K_XTAL           1    //!< External 32kHz crystal oscillator.
  96:.././hal/sam3u1c/inc/sam3u/osc.h **** #define OSC_SLCK_32K_BYPASS         2    //!< External 32kHz bypass oscillator.
  97:.././hal/sam3u1c/inc/sam3u/osc.h **** #define OSC_MAINCK_4M_RC            3    //!< Internal 4MHz RC oscillator.
  98:.././hal/sam3u1c/inc/sam3u/osc.h **** #define OSC_MAINCK_8M_RC            4    //!< Internal 8MHz RC oscillator.
  99:.././hal/sam3u1c/inc/sam3u/osc.h **** #define OSC_MAINCK_12M_RC           5    //!< Internal 12MHz RC oscillator.
 100:.././hal/sam3u1c/inc/sam3u/osc.h **** #define OSC_MAINCK_XTAL             6    //!< External crystal oscillator.
 101:.././hal/sam3u1c/inc/sam3u/osc.h **** #define OSC_MAINCK_BYPASS           7    //!< External bypass oscillator.
 102:.././hal/sam3u1c/inc/sam3u/osc.h **** //@}
 103:.././hal/sam3u1c/inc/sam3u/osc.h **** 
 104:.././hal/sam3u1c/inc/sam3u/osc.h **** //! \name Oscillator clock speed in hertz
 105:.././hal/sam3u1c/inc/sam3u/osc.h **** //@{
 106:.././hal/sam3u1c/inc/sam3u/osc.h **** #define OSC_SLCK_32K_RC_HZ          CHIP_FREQ_SLCK_RC               //!< Internal 32kHz RC oscillat
 107:.././hal/sam3u1c/inc/sam3u/osc.h **** #define OSC_SLCK_32K_XTAL_HZ        BOARD_FREQ_SLCK_XTAL            //!< External 32kHz crystal osc
 108:.././hal/sam3u1c/inc/sam3u/osc.h **** #define OSC_SLCK_32K_BYPASS_HZ      BOARD_FREQ_SLCK_BYPASS          //!< External 32kHz bypass osci
 109:.././hal/sam3u1c/inc/sam3u/osc.h **** #define OSC_MAINCK_4M_RC_HZ         CHIP_FREQ_MAINCK_RC_4MHZ        //!< Internal 4MHz RC oscillato
 110:.././hal/sam3u1c/inc/sam3u/osc.h **** #define OSC_MAINCK_8M_RC_HZ         CHIP_FREQ_MAINCK_RC_8MHZ        //!< Internal 8MHz RC oscillato
 111:.././hal/sam3u1c/inc/sam3u/osc.h **** #define OSC_MAINCK_12M_RC_HZ        CHIP_FREQ_MAINCK_RC_12MHZ       //!< Internal 12MHz RC oscillat
 112:.././hal/sam3u1c/inc/sam3u/osc.h **** #define OSC_MAINCK_XTAL_HZ          BOARD_FREQ_MAINCK_XTAL          //!< External crystal oscillato
 113:.././hal/sam3u1c/inc/sam3u/osc.h **** #define OSC_MAINCK_BYPASS_HZ        BOARD_FREQ_MAINCK_BYPASS        //!< External bypass oscillator
 114:.././hal/sam3u1c/inc/sam3u/osc.h **** //@}
 115:.././hal/sam3u1c/inc/sam3u/osc.h **** 
 116:.././hal/sam3u1c/inc/sam3u/osc.h **** static inline void osc_enable(uint32_t ul_id)
 117:.././hal/sam3u1c/inc/sam3u/osc.h **** {
  36              	 .loc 1 117 0
  37              	 .cfi_startproc
  38              	 
  39              	 
  40 0000 80B5     	 push {r7,lr}
  41              	.LCFI0:
  42              	 .cfi_def_cfa_offset 8
  43              	 .cfi_offset 7,-8
  44              	 .cfi_offset 14,-4
  45 0002 82B0     	 sub sp,sp,#8
  46              	.LCFI1:
  47              	 .cfi_def_cfa_offset 16
  48 0004 00AF     	 add r7,sp,#0
  49              	.LCFI2:
  50              	 .cfi_def_cfa_register 7
  51 0006 7860     	 str r0,[r7,#4]
 118:.././hal/sam3u1c/inc/sam3u/osc.h **** 	switch (ul_id) {
  52              	 .loc 1 118 0
  53 0008 7B68     	 ldr r3,[r7,#4]
  54 000a 072B     	 cmp r3,#7
  55 000c 2ED8     	 bhi .L12
  56 000e 01A2     	 adr r2,.L4
  57 0010 52F823F0 	 ldr pc,[r2,r3,lsl#2]
  58              	 .p2align 2
  59              	.L4:
  60 0014 6B000000 	 .word .L13+1
  61 0018 35000000 	 .word .L5+1
  62 001c 3D000000 	 .word .L6+1
  63 0020 45000000 	 .word .L7+1
  64 0024 4D000000 	 .word .L8+1
  65 0028 55000000 	 .word .L9+1
  66 002c 5D000000 	 .word .L10+1
  67 0030 65000000 	 .word .L11+1
  68              	 .p2align 1
  69              	.L5:
 119:.././hal/sam3u1c/inc/sam3u/osc.h **** 	case OSC_SLCK_32K_RC:
 120:.././hal/sam3u1c/inc/sam3u/osc.h **** 		break;
 121:.././hal/sam3u1c/inc/sam3u/osc.h **** 
 122:.././hal/sam3u1c/inc/sam3u/osc.h **** 	case OSC_SLCK_32K_XTAL:
 123:.././hal/sam3u1c/inc/sam3u/osc.h **** 		pmc_switch_sclk_to_32kxtal(PMC_OSC_XTAL);
  70              	 .loc 1 123 0
  71 0034 0020     	 movs r0,#0
  72 0036 0F4B     	 ldr r3,.L14
  73 0038 9847     	 blx r3
  74              	.LVL0:
 124:.././hal/sam3u1c/inc/sam3u/osc.h **** 		break;
  75              	 .loc 1 124 0
  76 003a 17E0     	 b .L2
  77              	.L6:
 125:.././hal/sam3u1c/inc/sam3u/osc.h **** 
 126:.././hal/sam3u1c/inc/sam3u/osc.h **** 	case OSC_SLCK_32K_BYPASS:
 127:.././hal/sam3u1c/inc/sam3u/osc.h **** 		pmc_switch_sclk_to_32kxtal(PMC_OSC_BYPASS);
  78              	 .loc 1 127 0
  79 003c 0120     	 movs r0,#1
  80 003e 0D4B     	 ldr r3,.L14
  81 0040 9847     	 blx r3
  82              	.LVL1:
 128:.././hal/sam3u1c/inc/sam3u/osc.h **** 		break;
  83              	 .loc 1 128 0
  84 0042 13E0     	 b .L2
  85              	.L7:
 129:.././hal/sam3u1c/inc/sam3u/osc.h **** 
 130:.././hal/sam3u1c/inc/sam3u/osc.h **** 
 131:.././hal/sam3u1c/inc/sam3u/osc.h **** 	case OSC_MAINCK_4M_RC:
 132:.././hal/sam3u1c/inc/sam3u/osc.h **** 		pmc_osc_enable_fastrc(CKGR_MOR_MOSCRCF_4_MHz);
  86              	 .loc 1 132 0
  87 0044 0020     	 movs r0,#0
  88 0046 0C4B     	 ldr r3,.L14+4
  89 0048 9847     	 blx r3
  90              	.LVL2:
 133:.././hal/sam3u1c/inc/sam3u/osc.h **** 		break;
  91              	 .loc 1 133 0
  92 004a 0FE0     	 b .L2
  93              	.L8:
 134:.././hal/sam3u1c/inc/sam3u/osc.h **** 
 135:.././hal/sam3u1c/inc/sam3u/osc.h **** 	case OSC_MAINCK_8M_RC:
 136:.././hal/sam3u1c/inc/sam3u/osc.h **** 		pmc_osc_enable_fastrc(CKGR_MOR_MOSCRCF_8_MHz);
  94              	 .loc 1 136 0
  95 004c 1020     	 movs r0,#16
  96 004e 0A4B     	 ldr r3,.L14+4
  97 0050 9847     	 blx r3
  98              	.LVL3:
 137:.././hal/sam3u1c/inc/sam3u/osc.h **** 		break;
  99              	 .loc 1 137 0
 100 0052 0BE0     	 b .L2
 101              	.L9:
 138:.././hal/sam3u1c/inc/sam3u/osc.h **** 
 139:.././hal/sam3u1c/inc/sam3u/osc.h **** 	case OSC_MAINCK_12M_RC:
 140:.././hal/sam3u1c/inc/sam3u/osc.h **** 		pmc_osc_enable_fastrc(CKGR_MOR_MOSCRCF_12_MHz);
 102              	 .loc 1 140 0
 103 0054 2020     	 movs r0,#32
 104 0056 084B     	 ldr r3,.L14+4
 105 0058 9847     	 blx r3
 106              	.LVL4:
 141:.././hal/sam3u1c/inc/sam3u/osc.h **** 		break;
 107              	 .loc 1 141 0
 108 005a 07E0     	 b .L2
 109              	.L10:
 142:.././hal/sam3u1c/inc/sam3u/osc.h **** 
 143:.././hal/sam3u1c/inc/sam3u/osc.h **** 
 144:.././hal/sam3u1c/inc/sam3u/osc.h **** 	case OSC_MAINCK_XTAL:
 145:.././hal/sam3u1c/inc/sam3u/osc.h **** 		pmc_osc_enable_main_xtal(pmc_us_to_moscxtst(
 110              	 .loc 1 145 0
 111 005c 3E20     	 movs r0,#62
 112 005e 074B     	 ldr r3,.L14+8
 113 0060 9847     	 blx r3
 114              	.LVL5:
 146:.././hal/sam3u1c/inc/sam3u/osc.h **** 				BOARD_OSC_STARTUP_US, OSC_SLCK_32K_RC_HZ));
 147:.././hal/sam3u1c/inc/sam3u/osc.h **** 		break;
 115              	 .loc 1 147 0
 116 0062 03E0     	 b .L2
 117              	.L11:
 148:.././hal/sam3u1c/inc/sam3u/osc.h **** 
 149:.././hal/sam3u1c/inc/sam3u/osc.h **** 	case OSC_MAINCK_BYPASS:
 150:.././hal/sam3u1c/inc/sam3u/osc.h **** 		pmc_osc_bypass_main_xtal();
 118              	 .loc 1 150 0
 119 0064 064B     	 ldr r3,.L14+12
 120 0066 9847     	 blx r3
 121              	.LVL6:
 151:.././hal/sam3u1c/inc/sam3u/osc.h **** 		break;
 122              	 .loc 1 151 0
 123 0068 00E0     	 b .L2
 124              	.L13:
 120:.././hal/sam3u1c/inc/sam3u/osc.h **** 
 125              	 .loc 1 120 0
 126 006a 00BF     	 nop
 127              	.L2:
 128              	.L12:
 152:.././hal/sam3u1c/inc/sam3u/osc.h **** 	}
 153:.././hal/sam3u1c/inc/sam3u/osc.h **** }
 129              	 .loc 1 153 0
 130 006c 00BF     	 nop
 131 006e 0837     	 adds r7,r7,#8
 132              	.LCFI3:
 133              	 .cfi_def_cfa_offset 8
 134 0070 BD46     	 mov sp,r7
 135              	.LCFI4:
 136              	 .cfi_def_cfa_register 13
 137              	 
 138 0072 80BD     	 pop {r7,pc}
 139              	.L15:
 140              	 .align 2
 141              	.L14:
 142 0074 00000000 	 .word pmc_switch_sclk_to_32kxtal
 143 0078 00000000 	 .word pmc_osc_enable_fastrc
 144 007c 00000000 	 .word pmc_osc_enable_main_xtal
 145 0080 00000000 	 .word pmc_osc_bypass_main_xtal
 146              	 .cfi_endproc
 147              	.LFE69:
 149              	 .section .text.osc_is_ready,"ax",%progbits
 150              	 .align 1
 151              	 .syntax unified
 152              	 .thumb
 153              	 .thumb_func
 154              	 .fpu softvfp
 156              	osc_is_ready:
 157              	.LFB71:
 154:.././hal/sam3u1c/inc/sam3u/osc.h **** 
 155:.././hal/sam3u1c/inc/sam3u/osc.h **** static inline void osc_disable(uint32_t ul_id)
 156:.././hal/sam3u1c/inc/sam3u/osc.h **** {
 157:.././hal/sam3u1c/inc/sam3u/osc.h **** 	switch (ul_id) {
 158:.././hal/sam3u1c/inc/sam3u/osc.h **** 	case OSC_SLCK_32K_RC:
 159:.././hal/sam3u1c/inc/sam3u/osc.h **** 	case OSC_SLCK_32K_XTAL:
 160:.././hal/sam3u1c/inc/sam3u/osc.h **** 	case OSC_SLCK_32K_BYPASS:
 161:.././hal/sam3u1c/inc/sam3u/osc.h **** 		break;
 162:.././hal/sam3u1c/inc/sam3u/osc.h **** 
 163:.././hal/sam3u1c/inc/sam3u/osc.h **** 	case OSC_MAINCK_4M_RC:
 164:.././hal/sam3u1c/inc/sam3u/osc.h **** 	case OSC_MAINCK_8M_RC:
 165:.././hal/sam3u1c/inc/sam3u/osc.h **** 	case OSC_MAINCK_12M_RC:
 166:.././hal/sam3u1c/inc/sam3u/osc.h **** 		pmc_osc_disable_fastrc();
 167:.././hal/sam3u1c/inc/sam3u/osc.h **** 		break;
 168:.././hal/sam3u1c/inc/sam3u/osc.h **** 
 169:.././hal/sam3u1c/inc/sam3u/osc.h **** 	case OSC_MAINCK_XTAL:
 170:.././hal/sam3u1c/inc/sam3u/osc.h **** 		pmc_osc_disable_xtal(PMC_OSC_XTAL);
 171:.././hal/sam3u1c/inc/sam3u/osc.h **** 		break;
 172:.././hal/sam3u1c/inc/sam3u/osc.h **** 
 173:.././hal/sam3u1c/inc/sam3u/osc.h **** 	case OSC_MAINCK_BYPASS:
 174:.././hal/sam3u1c/inc/sam3u/osc.h **** 		pmc_osc_disable_xtal(PMC_OSC_BYPASS);
 175:.././hal/sam3u1c/inc/sam3u/osc.h **** 		break;
 176:.././hal/sam3u1c/inc/sam3u/osc.h **** 	}
 177:.././hal/sam3u1c/inc/sam3u/osc.h **** }
 178:.././hal/sam3u1c/inc/sam3u/osc.h **** 
 179:.././hal/sam3u1c/inc/sam3u/osc.h **** static inline bool osc_is_ready(uint32_t ul_id)
 180:.././hal/sam3u1c/inc/sam3u/osc.h **** {
 158              	 .loc 1 180 0
 159              	 .cfi_startproc
 160              	 
 161              	 
 162 0000 80B5     	 push {r7,lr}
 163              	.LCFI5:
 164              	 .cfi_def_cfa_offset 8
 165              	 .cfi_offset 7,-8
 166              	 .cfi_offset 14,-4
 167 0002 82B0     	 sub sp,sp,#8
 168              	.LCFI6:
 169              	 .cfi_def_cfa_offset 16
 170 0004 00AF     	 add r7,sp,#0
 171              	.LCFI7:
 172              	 .cfi_def_cfa_register 7
 173 0006 7860     	 str r0,[r7,#4]
 181:.././hal/sam3u1c/inc/sam3u/osc.h **** 	switch (ul_id) {
 174              	 .loc 1 181 0
 175 0008 7B68     	 ldr r3,[r7,#4]
 176 000a 072B     	 cmp r3,#7
 177 000c 2FD8     	 bhi .L17
 178 000e 01A2     	 adr r2,.L19
 179 0010 52F823F0 	 ldr pc,[r2,r3,lsl#2]
 180              	 .p2align 2
 181              	.L19:
 182 0014 35000000 	 .word .L18+1
 183 0018 39000000 	 .word .L20+1
 184 001c 39000000 	 .word .L20+1
 185 0020 4B000000 	 .word .L21+1
 186 0024 4B000000 	 .word .L21+1
 187 0028 4B000000 	 .word .L21+1
 188 002c 5D000000 	 .word .L22+1
 189 0030 5D000000 	 .word .L22+1
 190              	 .p2align 1
 191              	.L18:
 182:.././hal/sam3u1c/inc/sam3u/osc.h **** 	case OSC_SLCK_32K_RC:
 183:.././hal/sam3u1c/inc/sam3u/osc.h **** 		return 1;
 192              	 .loc 1 183 0
 193 0034 0123     	 movs r3,#1
 194 0036 1BE0     	 b .L23
 195              	.L20:
 184:.././hal/sam3u1c/inc/sam3u/osc.h **** 
 185:.././hal/sam3u1c/inc/sam3u/osc.h **** 	case OSC_SLCK_32K_XTAL:
 186:.././hal/sam3u1c/inc/sam3u/osc.h **** 	case OSC_SLCK_32K_BYPASS:
 187:.././hal/sam3u1c/inc/sam3u/osc.h **** 		return pmc_osc_is_ready_32kxtal();
 196              	 .loc 1 187 0
 197 0038 0F4B     	 ldr r3,.L24
 198 003a 9847     	 blx r3
 199              	.LVL7:
 200 003c 0346     	 mov r3,r0
 201 003e 002B     	 cmp r3,#0
 202 0040 14BF     	 ite ne
 203 0042 0123     	 movne r3,#1
 204 0044 0023     	 moveq r3,#0
 205 0046 DBB2     	 uxtb r3,r3
 206 0048 12E0     	 b .L23
 207              	.L21:
 188:.././hal/sam3u1c/inc/sam3u/osc.h **** 
 189:.././hal/sam3u1c/inc/sam3u/osc.h **** 	case OSC_MAINCK_4M_RC:
 190:.././hal/sam3u1c/inc/sam3u/osc.h **** 	case OSC_MAINCK_8M_RC:
 191:.././hal/sam3u1c/inc/sam3u/osc.h **** 	case OSC_MAINCK_12M_RC:
 192:.././hal/sam3u1c/inc/sam3u/osc.h **** 		return pmc_osc_is_ready_fastrc();
 208              	 .loc 1 192 0
 209 004a 0C4B     	 ldr r3,.L24+4
 210 004c 9847     	 blx r3
 211              	.LVL8:
 212 004e 0346     	 mov r3,r0
 213 0050 002B     	 cmp r3,#0
 214 0052 14BF     	 ite ne
 215 0054 0123     	 movne r3,#1
 216 0056 0023     	 moveq r3,#0
 217 0058 DBB2     	 uxtb r3,r3
 218 005a 09E0     	 b .L23
 219              	.L22:
 193:.././hal/sam3u1c/inc/sam3u/osc.h **** 
 194:.././hal/sam3u1c/inc/sam3u/osc.h **** 	case OSC_MAINCK_XTAL:
 195:.././hal/sam3u1c/inc/sam3u/osc.h **** 	case OSC_MAINCK_BYPASS:
 196:.././hal/sam3u1c/inc/sam3u/osc.h **** 		return pmc_osc_is_ready_main_xtal();
 220              	 .loc 1 196 0
 221 005c 084B     	 ldr r3,.L24+8
 222 005e 9847     	 blx r3
 223              	.LVL9:
 224 0060 0346     	 mov r3,r0
 225 0062 002B     	 cmp r3,#0
 226 0064 14BF     	 ite ne
 227 0066 0123     	 movne r3,#1
 228 0068 0023     	 moveq r3,#0
 229 006a DBB2     	 uxtb r3,r3
 230 006c 00E0     	 b .L23
 231              	.L17:
 197:.././hal/sam3u1c/inc/sam3u/osc.h **** 	}
 198:.././hal/sam3u1c/inc/sam3u/osc.h **** 
 199:.././hal/sam3u1c/inc/sam3u/osc.h **** 	return 0;
 232              	 .loc 1 199 0
 233 006e 0023     	 movs r3,#0
 234              	.L23:
 200:.././hal/sam3u1c/inc/sam3u/osc.h **** }
 235              	 .loc 1 200 0
 236 0070 1846     	 mov r0,r3
 237 0072 0837     	 adds r7,r7,#8
 238              	.LCFI8:
 239              	 .cfi_def_cfa_offset 8
 240 0074 BD46     	 mov sp,r7
 241              	.LCFI9:
 242              	 .cfi_def_cfa_register 13
 243              	 
 244 0076 80BD     	 pop {r7,pc}
 245              	.L25:
 246              	 .align 2
 247              	.L24:
 248 0078 00000000 	 .word pmc_osc_is_ready_32kxtal
 249 007c 00000000 	 .word pmc_osc_is_ready_fastrc
 250 0080 00000000 	 .word pmc_osc_is_ready_main_xtal
 251              	 .cfi_endproc
 252              	.LFE71:
 254              	 .section .text.osc_wait_ready,"ax",%progbits
 255              	 .align 1
 256              	 .syntax unified
 257              	 .thumb
 258              	 .thumb_func
 259              	 .fpu softvfp
 261              	osc_wait_ready:
 262              	.LFB73:
 263              	 .file 2 ".././hal/sam3u1c/inc/osc.h"
   1:.././hal/sam3u1c/inc/osc.h **** /**
   2:.././hal/sam3u1c/inc/osc.h ****  * \file
   3:.././hal/sam3u1c/inc/osc.h ****  *
   4:.././hal/sam3u1c/inc/osc.h ****  * \brief Oscillator management
   5:.././hal/sam3u1c/inc/osc.h ****  *
   6:.././hal/sam3u1c/inc/osc.h ****  * Copyright (c) 2010-2014 Atmel Corporation. All rights reserved.
   7:.././hal/sam3u1c/inc/osc.h ****  *
   8:.././hal/sam3u1c/inc/osc.h ****  * \asf_license_start
   9:.././hal/sam3u1c/inc/osc.h ****  *
  10:.././hal/sam3u1c/inc/osc.h ****  * \page License
  11:.././hal/sam3u1c/inc/osc.h ****  *
  12:.././hal/sam3u1c/inc/osc.h ****  * Redistribution and use in source and binary forms, with or without
  13:.././hal/sam3u1c/inc/osc.h ****  * modification, are permitted provided that the following conditions are met:
  14:.././hal/sam3u1c/inc/osc.h ****  *
  15:.././hal/sam3u1c/inc/osc.h ****  * 1. Redistributions of source code must retain the above copyright notice,
  16:.././hal/sam3u1c/inc/osc.h ****  *    this list of conditions and the following disclaimer.
  17:.././hal/sam3u1c/inc/osc.h ****  *
  18:.././hal/sam3u1c/inc/osc.h ****  * 2. Redistributions in binary form must reproduce the above copyright notice,
  19:.././hal/sam3u1c/inc/osc.h ****  *    this list of conditions and the following disclaimer in the documentation
  20:.././hal/sam3u1c/inc/osc.h ****  *    and/or other materials provided with the distribution.
  21:.././hal/sam3u1c/inc/osc.h ****  *
  22:.././hal/sam3u1c/inc/osc.h ****  * 3. The name of Atmel may not be used to endorse or promote products derived
  23:.././hal/sam3u1c/inc/osc.h ****  *    from this software without specific prior written permission.
  24:.././hal/sam3u1c/inc/osc.h ****  *
  25:.././hal/sam3u1c/inc/osc.h ****  * 4. This software may only be redistributed and used in connection with an
  26:.././hal/sam3u1c/inc/osc.h ****  *    Atmel microcontroller product.
  27:.././hal/sam3u1c/inc/osc.h ****  *
  28:.././hal/sam3u1c/inc/osc.h ****  * THIS SOFTWARE IS PROVIDED BY ATMEL "AS IS" AND ANY EXPRESS OR IMPLIED
  29:.././hal/sam3u1c/inc/osc.h ****  * WARRANTIES, INCLUDING, BUT NOT LIMITED TO, THE IMPLIED WARRANTIES OF
  30:.././hal/sam3u1c/inc/osc.h ****  * MERCHANTABILITY, FITNESS FOR A PARTICULAR PURPOSE AND NON-INFRINGEMENT ARE
  31:.././hal/sam3u1c/inc/osc.h ****  * EXPRESSLY AND SPECIFICALLY DISCLAIMED. IN NO EVENT SHALL ATMEL BE LIABLE FOR
  32:.././hal/sam3u1c/inc/osc.h ****  * ANY DIRECT, INDIRECT, INCIDENTAL, SPECIAL, EXEMPLARY, OR CONSEQUENTIAL
  33:.././hal/sam3u1c/inc/osc.h ****  * DAMAGES (INCLUDING, BUT NOT LIMITED TO, PROCUREMENT OF SUBSTITUTE GOODS
  34:.././hal/sam3u1c/inc/osc.h ****  * OR SERVICES; LOSS OF USE, DATA, OR PROFITS; OR BUSINESS INTERRUPTION)
  35:.././hal/sam3u1c/inc/osc.h ****  * HOWEVER CAUSED AND ON ANY THEORY OF LIABILITY, WHETHER IN CONTRACT,
  36:.././hal/sam3u1c/inc/osc.h ****  * STRICT LIABILITY, OR TORT (INCLUDING NEGLIGENCE OR OTHERWISE) ARISING IN
  37:.././hal/sam3u1c/inc/osc.h ****  * ANY WAY OUT OF THE USE OF THIS SOFTWARE, EVEN IF ADVISED OF THE
  38:.././hal/sam3u1c/inc/osc.h ****  * POSSIBILITY OF SUCH DAMAGE.
  39:.././hal/sam3u1c/inc/osc.h ****  *
  40:.././hal/sam3u1c/inc/osc.h ****  * \asf_license_stop
  41:.././hal/sam3u1c/inc/osc.h ****  *
  42:.././hal/sam3u1c/inc/osc.h ****  */
  43:.././hal/sam3u1c/inc/osc.h **** #ifndef OSC_H_INCLUDED
  44:.././hal/sam3u1c/inc/osc.h **** #define OSC_H_INCLUDED
  45:.././hal/sam3u1c/inc/osc.h **** 
  46:.././hal/sam3u1c/inc/osc.h **** #include "parts.h"
  47:.././hal/sam3u1c/inc/osc.h **** #include "conf_clock.h"
  48:.././hal/sam3u1c/inc/osc.h **** 
  49:.././hal/sam3u1c/inc/osc.h **** #if SAM3S
  50:.././hal/sam3u1c/inc/osc.h **** # include "sam3s/osc.h"
  51:.././hal/sam3u1c/inc/osc.h **** #elif SAM3XA
  52:.././hal/sam3u1c/inc/osc.h **** # include "sam3x/osc.h"
  53:.././hal/sam3u1c/inc/osc.h **** #elif SAM3U
  54:.././hal/sam3u1c/inc/osc.h **** # include "sam3u/osc.h"
  55:.././hal/sam3u1c/inc/osc.h **** #elif SAM3N
  56:.././hal/sam3u1c/inc/osc.h **** # include "sam3n/osc.h"
  57:.././hal/sam3u1c/inc/osc.h **** #elif SAM4S
  58:.././hal/sam3u1c/inc/osc.h **** # include "sam4s/osc.h"
  59:.././hal/sam3u1c/inc/osc.h **** #elif SAM4E
  60:.././hal/sam3u1c/inc/osc.h **** # include "sam4e/osc.h"
  61:.././hal/sam3u1c/inc/osc.h **** #elif SAM4C
  62:.././hal/sam3u1c/inc/osc.h **** # include "sam4c/osc.h"
  63:.././hal/sam3u1c/inc/osc.h **** #elif SAM4CM
  64:.././hal/sam3u1c/inc/osc.h **** # include "sam4cm/osc.h"
  65:.././hal/sam3u1c/inc/osc.h **** #elif SAM4CP
  66:.././hal/sam3u1c/inc/osc.h **** # include "sam4cp/osc.h"
  67:.././hal/sam3u1c/inc/osc.h **** #elif SAM4L
  68:.././hal/sam3u1c/inc/osc.h **** # include "sam4l/osc.h"
  69:.././hal/sam3u1c/inc/osc.h **** #elif SAM4N
  70:.././hal/sam3u1c/inc/osc.h **** # include "sam4n/osc.h"
  71:.././hal/sam3u1c/inc/osc.h **** #elif SAMG
  72:.././hal/sam3u1c/inc/osc.h **** # include "samg/osc.h"
  73:.././hal/sam3u1c/inc/osc.h **** #elif (UC3A0 || UC3A1)
  74:.././hal/sam3u1c/inc/osc.h **** # include "uc3a0_a1/osc.h"
  75:.././hal/sam3u1c/inc/osc.h **** #elif UC3A3
  76:.././hal/sam3u1c/inc/osc.h **** # include "uc3a3_a4/osc.h"
  77:.././hal/sam3u1c/inc/osc.h **** #elif UC3B
  78:.././hal/sam3u1c/inc/osc.h **** # include "uc3b0_b1/osc.h"
  79:.././hal/sam3u1c/inc/osc.h **** #elif UC3C
  80:.././hal/sam3u1c/inc/osc.h **** # include "uc3c/osc.h"
  81:.././hal/sam3u1c/inc/osc.h **** #elif UC3D
  82:.././hal/sam3u1c/inc/osc.h **** # include "uc3d/osc.h"
  83:.././hal/sam3u1c/inc/osc.h **** #elif UC3L
  84:.././hal/sam3u1c/inc/osc.h **** # include "uc3l/osc.h"
  85:.././hal/sam3u1c/inc/osc.h **** #elif XMEGA
  86:.././hal/sam3u1c/inc/osc.h **** # include "xmega/osc.h"
  87:.././hal/sam3u1c/inc/osc.h **** #else
  88:.././hal/sam3u1c/inc/osc.h **** # error Unsupported chip type
  89:.././hal/sam3u1c/inc/osc.h **** #endif
  90:.././hal/sam3u1c/inc/osc.h **** 
  91:.././hal/sam3u1c/inc/osc.h **** /**
  92:.././hal/sam3u1c/inc/osc.h ****  * \ingroup clk_group
  93:.././hal/sam3u1c/inc/osc.h ****  * \defgroup osc_group Oscillator Management
  94:.././hal/sam3u1c/inc/osc.h ****  *
  95:.././hal/sam3u1c/inc/osc.h ****  * This group contains functions and definitions related to configuring
  96:.././hal/sam3u1c/inc/osc.h ****  * and enabling/disabling on-chip oscillators. Internal RC-oscillators,
  97:.././hal/sam3u1c/inc/osc.h ****  * external crystal oscillators and external clock generators are
  98:.././hal/sam3u1c/inc/osc.h ****  * supported by this module. What all of these have in common is that
  99:.././hal/sam3u1c/inc/osc.h ****  * they swing at a fixed, nominal frequency which is normally not
 100:.././hal/sam3u1c/inc/osc.h ****  * adjustable.
 101:.././hal/sam3u1c/inc/osc.h ****  *
 102:.././hal/sam3u1c/inc/osc.h ****  * \par Example: Enabling an oscillator
 103:.././hal/sam3u1c/inc/osc.h ****  *
 104:.././hal/sam3u1c/inc/osc.h ****  * The following example demonstrates how to enable the external
 105:.././hal/sam3u1c/inc/osc.h ****  * oscillator on XMEGA A and wait for it to be ready to use. The
 106:.././hal/sam3u1c/inc/osc.h ****  * oscillator identifiers are platform-specific, so while the same
 107:.././hal/sam3u1c/inc/osc.h ****  * procedure is used on all platforms, the parameter to osc_enable()
 108:.././hal/sam3u1c/inc/osc.h ****  * will be different from device to device.
 109:.././hal/sam3u1c/inc/osc.h ****  * \code
 110:.././hal/sam3u1c/inc/osc.h **** 	osc_enable(OSC_ID_XOSC);
 111:.././hal/sam3u1c/inc/osc.h **** 	osc_wait_ready(OSC_ID_XOSC); \endcode
 112:.././hal/sam3u1c/inc/osc.h ****  *
 113:.././hal/sam3u1c/inc/osc.h ****  * \section osc_group_board Board-specific Definitions
 114:.././hal/sam3u1c/inc/osc.h ****  * If external oscillators are used, the board code must provide the
 115:.././hal/sam3u1c/inc/osc.h ****  * following definitions for each of those:
 116:.././hal/sam3u1c/inc/osc.h ****  *   - \b BOARD_<osc name>_HZ: The nominal frequency of the oscillator.
 117:.././hal/sam3u1c/inc/osc.h ****  *   - \b BOARD_<osc name>_STARTUP_US: The startup time of the
 118:.././hal/sam3u1c/inc/osc.h ****  *     oscillator in microseconds.
 119:.././hal/sam3u1c/inc/osc.h ****  *   - \b BOARD_<osc name>_TYPE: The type of oscillator connected, i.e.
 120:.././hal/sam3u1c/inc/osc.h ****  *     whether it's a crystal or external clock, and sometimes what kind
 121:.././hal/sam3u1c/inc/osc.h ****  *     of crystal it is. The meaning of this value is platform-specific.
 122:.././hal/sam3u1c/inc/osc.h ****  *
 123:.././hal/sam3u1c/inc/osc.h ****  * @{
 124:.././hal/sam3u1c/inc/osc.h ****  */
 125:.././hal/sam3u1c/inc/osc.h **** 
 126:.././hal/sam3u1c/inc/osc.h **** //! \name Oscillator Management
 127:.././hal/sam3u1c/inc/osc.h **** //@{
 128:.././hal/sam3u1c/inc/osc.h **** /**
 129:.././hal/sam3u1c/inc/osc.h ****  * \fn void osc_enable(uint8_t id)
 130:.././hal/sam3u1c/inc/osc.h ****  * \brief Enable oscillator \a id
 131:.././hal/sam3u1c/inc/osc.h ****  *
 132:.././hal/sam3u1c/inc/osc.h ****  * The startup time and mode value is automatically determined based on
 133:.././hal/sam3u1c/inc/osc.h ****  * definitions in the board code.
 134:.././hal/sam3u1c/inc/osc.h ****  */
 135:.././hal/sam3u1c/inc/osc.h **** /**
 136:.././hal/sam3u1c/inc/osc.h ****  * \fn void osc_disable(uint8_t id)
 137:.././hal/sam3u1c/inc/osc.h ****  * \brief Disable oscillator \a id
 138:.././hal/sam3u1c/inc/osc.h ****  */
 139:.././hal/sam3u1c/inc/osc.h **** /**
 140:.././hal/sam3u1c/inc/osc.h ****  * \fn osc_is_ready(uint8_t id)
 141:.././hal/sam3u1c/inc/osc.h ****  * \brief Determine whether oscillator \a id is ready.
 142:.././hal/sam3u1c/inc/osc.h ****  * \retval true Oscillator \a id is running and ready to use as a clock
 143:.././hal/sam3u1c/inc/osc.h ****  * source.
 144:.././hal/sam3u1c/inc/osc.h ****  * \retval false Oscillator \a id is not running.
 145:.././hal/sam3u1c/inc/osc.h ****  */
 146:.././hal/sam3u1c/inc/osc.h **** /**
 147:.././hal/sam3u1c/inc/osc.h ****  * \fn uint32_t osc_get_rate(uint8_t id)
 148:.././hal/sam3u1c/inc/osc.h ****  * \brief Return the frequency of oscillator \a id in Hz
 149:.././hal/sam3u1c/inc/osc.h ****  */
 150:.././hal/sam3u1c/inc/osc.h **** 
 151:.././hal/sam3u1c/inc/osc.h **** #ifndef __ASSEMBLY__
 152:.././hal/sam3u1c/inc/osc.h **** 
 153:.././hal/sam3u1c/inc/osc.h **** /**
 154:.././hal/sam3u1c/inc/osc.h ****  * \brief Wait until the oscillator identified by \a id is ready
 155:.././hal/sam3u1c/inc/osc.h ****  *
 156:.././hal/sam3u1c/inc/osc.h ****  * This function will busy-wait for the oscillator identified by \a id
 157:.././hal/sam3u1c/inc/osc.h ****  * to become stable and ready to use as a clock source.
 158:.././hal/sam3u1c/inc/osc.h ****  *
 159:.././hal/sam3u1c/inc/osc.h ****  * \param id A number identifying the oscillator to wait for.
 160:.././hal/sam3u1c/inc/osc.h ****  */
 161:.././hal/sam3u1c/inc/osc.h **** static inline void osc_wait_ready(uint8_t id)
 162:.././hal/sam3u1c/inc/osc.h **** {
 264              	 .loc 2 162 0
 265              	 .cfi_startproc
 266              	 
 267              	 
 268 0000 80B5     	 push {r7,lr}
 269              	.LCFI10:
 270              	 .cfi_def_cfa_offset 8
 271              	 .cfi_offset 7,-8
 272              	 .cfi_offset 14,-4
 273 0002 82B0     	 sub sp,sp,#8
 274              	.LCFI11:
 275              	 .cfi_def_cfa_offset 16
 276 0004 00AF     	 add r7,sp,#0
 277              	.LCFI12:
 278              	 .cfi_def_cfa_register 7
 279 0006 0346     	 mov r3,r0
 280 0008 FB71     	 strb r3,[r7,#7]
 163:.././hal/sam3u1c/inc/osc.h **** 	while (!osc_is_ready(id)) {
 281              	 .loc 2 163 0
 282 000a 00BF     	 nop
 283              	.L27:
 284              	 .loc 2 163 0 is_stmt 0 discriminator 1
 285 000c FB79     	 ldrb r3,[r7,#7]
 286 000e 1846     	 mov r0,r3
 287 0010 054B     	 ldr r3,.L28
 288 0012 9847     	 blx r3
 289              	.LVL10:
 290 0014 0346     	 mov r3,r0
 291 0016 83F00103 	 eor r3,r3,#1
 292 001a DBB2     	 uxtb r3,r3
 293 001c 002B     	 cmp r3,#0
 294 001e F5D1     	 bne .L27
 164:.././hal/sam3u1c/inc/osc.h **** 		/* Do nothing */
 165:.././hal/sam3u1c/inc/osc.h **** 	}
 166:.././hal/sam3u1c/inc/osc.h **** }
 295              	 .loc 2 166 0 is_stmt 1
 296 0020 00BF     	 nop
 297 0022 0837     	 adds r7,r7,#8
 298              	.LCFI13:
 299              	 .cfi_def_cfa_offset 8
 300 0024 BD46     	 mov sp,r7
 301              	.LCFI14:
 302              	 .cfi_def_cfa_register 13
 303              	 
 304 0026 80BD     	 pop {r7,pc}
 305              	.L29:
 306              	 .align 2
 307              	.L28:
 308 0028 00000000 	 .word osc_is_ready
 309              	 .cfi_endproc
 310              	.LFE73:
 312              	 .section .text.udc_detach,"ax",%progbits
 313              	 .align 1
 314              	 .syntax unified
 315              	 .thumb
 316              	 .thumb_func
 317              	 .fpu softvfp
 319              	udc_detach:
 320              	.LFB179:
 321              	 .file 3 ".././hal/sam3u1c/inc/udc.h"
   1:.././hal/sam3u1c/inc/udc.h **** /**
   2:.././hal/sam3u1c/inc/udc.h ****  * \file
   3:.././hal/sam3u1c/inc/udc.h ****  *
   4:.././hal/sam3u1c/inc/udc.h ****  * \brief Interface of the USB Device Controller (UDC)
   5:.././hal/sam3u1c/inc/udc.h ****  *
   6:.././hal/sam3u1c/inc/udc.h ****  * Copyright (c) 2009 - 2014 Atmel Corporation. All rights reserved.
   7:.././hal/sam3u1c/inc/udc.h ****  *
   8:.././hal/sam3u1c/inc/udc.h ****  * \asf_license_start
   9:.././hal/sam3u1c/inc/udc.h ****  *
  10:.././hal/sam3u1c/inc/udc.h ****  * \page License
  11:.././hal/sam3u1c/inc/udc.h ****  *
  12:.././hal/sam3u1c/inc/udc.h ****  * Redistribution and use in source and binary forms, with or without
  13:.././hal/sam3u1c/inc/udc.h ****  * modification, are permitted provided that the following conditions are met:
  14:.././hal/sam3u1c/inc/udc.h ****  *
  15:.././hal/sam3u1c/inc/udc.h ****  * 1. Redistributions of source code must retain the above copyright notice,
  16:.././hal/sam3u1c/inc/udc.h ****  *    this list of conditions and the following disclaimer.
  17:.././hal/sam3u1c/inc/udc.h ****  *
  18:.././hal/sam3u1c/inc/udc.h ****  * 2. Redistributions in binary form must reproduce the above copyright notice,
  19:.././hal/sam3u1c/inc/udc.h ****  *    this list of conditions and the following disclaimer in the documentation
  20:.././hal/sam3u1c/inc/udc.h ****  *    and/or other materials provided with the distribution.
  21:.././hal/sam3u1c/inc/udc.h ****  *
  22:.././hal/sam3u1c/inc/udc.h ****  * 3. The name of Atmel may not be used to endorse or promote products derived
  23:.././hal/sam3u1c/inc/udc.h ****  *    from this software without specific prior written permission.
  24:.././hal/sam3u1c/inc/udc.h ****  *
  25:.././hal/sam3u1c/inc/udc.h ****  * 4. This software may only be redistributed and used in connection with an
  26:.././hal/sam3u1c/inc/udc.h ****  *    Atmel microcontroller product.
  27:.././hal/sam3u1c/inc/udc.h ****  *
  28:.././hal/sam3u1c/inc/udc.h ****  * THIS SOFTWARE IS PROVIDED BY ATMEL "AS IS" AND ANY EXPRESS OR IMPLIED
  29:.././hal/sam3u1c/inc/udc.h ****  * WARRANTIES, INCLUDING, BUT NOT LIMITED TO, THE IMPLIED WARRANTIES OF
  30:.././hal/sam3u1c/inc/udc.h ****  * MERCHANTABILITY, FITNESS FOR A PARTICULAR PURPOSE AND NON-INFRINGEMENT ARE
  31:.././hal/sam3u1c/inc/udc.h ****  * EXPRESSLY AND SPECIFICALLY DISCLAIMED. IN NO EVENT SHALL ATMEL BE LIABLE FOR
  32:.././hal/sam3u1c/inc/udc.h ****  * ANY DIRECT, INDIRECT, INCIDENTAL, SPECIAL, EXEMPLARY, OR CONSEQUENTIAL
  33:.././hal/sam3u1c/inc/udc.h ****  * DAMAGES (INCLUDING, BUT NOT LIMITED TO, PROCUREMENT OF SUBSTITUTE GOODS
  34:.././hal/sam3u1c/inc/udc.h ****  * OR SERVICES; LOSS OF USE, DATA, OR PROFITS; OR BUSINESS INTERRUPTION)
  35:.././hal/sam3u1c/inc/udc.h ****  * HOWEVER CAUSED AND ON ANY THEORY OF LIABILITY, WHETHER IN CONTRACT,
  36:.././hal/sam3u1c/inc/udc.h ****  * STRICT LIABILITY, OR TORT (INCLUDING NEGLIGENCE OR OTHERWISE) ARISING IN
  37:.././hal/sam3u1c/inc/udc.h ****  * ANY WAY OUT OF THE USE OF THIS SOFTWARE, EVEN IF ADVISED OF THE
  38:.././hal/sam3u1c/inc/udc.h ****  * POSSIBILITY OF SUCH DAMAGE.
  39:.././hal/sam3u1c/inc/udc.h ****  *
  40:.././hal/sam3u1c/inc/udc.h ****  * \asf_license_stop
  41:.././hal/sam3u1c/inc/udc.h ****  *
  42:.././hal/sam3u1c/inc/udc.h ****  */
  43:.././hal/sam3u1c/inc/udc.h **** 
  44:.././hal/sam3u1c/inc/udc.h **** #ifndef _UDC_H_
  45:.././hal/sam3u1c/inc/udc.h **** #define _UDC_H_
  46:.././hal/sam3u1c/inc/udc.h **** 
  47:.././hal/sam3u1c/inc/udc.h **** #include "conf_usb.h"
  48:.././hal/sam3u1c/inc/udc.h **** #include "usb_protocol.h"
  49:.././hal/sam3u1c/inc/udc.h **** #include "udc_desc.h"
  50:.././hal/sam3u1c/inc/udc.h **** #include "udd.h"
  51:.././hal/sam3u1c/inc/udc.h **** 
  52:.././hal/sam3u1c/inc/udc.h **** #if USB_DEVICE_VENDOR_ID == 0
  53:.././hal/sam3u1c/inc/udc.h **** #   error USB_DEVICE_VENDOR_ID cannot be equal to 0
  54:.././hal/sam3u1c/inc/udc.h **** #endif
  55:.././hal/sam3u1c/inc/udc.h **** 
  56:.././hal/sam3u1c/inc/udc.h **** #if USB_DEVICE_PRODUCT_ID == 0
  57:.././hal/sam3u1c/inc/udc.h **** #   error USB_DEVICE_PRODUCT_ID cannot be equal to 0
  58:.././hal/sam3u1c/inc/udc.h **** #endif
  59:.././hal/sam3u1c/inc/udc.h **** 
  60:.././hal/sam3u1c/inc/udc.h **** #ifdef __cplusplus
  61:.././hal/sam3u1c/inc/udc.h **** extern "C" {
  62:.././hal/sam3u1c/inc/udc.h **** #endif
  63:.././hal/sam3u1c/inc/udc.h **** 
  64:.././hal/sam3u1c/inc/udc.h **** /**
  65:.././hal/sam3u1c/inc/udc.h ****  * \ingroup usb_device_group
  66:.././hal/sam3u1c/inc/udc.h ****  * \defgroup udc_group USB Device Controller (UDC)
  67:.././hal/sam3u1c/inc/udc.h ****  *
  68:.././hal/sam3u1c/inc/udc.h ****  * The UDC provides a high-level abstraction of the usb device.
  69:.././hal/sam3u1c/inc/udc.h ****  * You can use these functions to control the main device state
  70:.././hal/sam3u1c/inc/udc.h ****  * (start/attach/wakeup).
  71:.././hal/sam3u1c/inc/udc.h ****  *
  72:.././hal/sam3u1c/inc/udc.h ****  * \section USB_DEVICE_CONF USB Device Custom configuration
  73:.././hal/sam3u1c/inc/udc.h ****  * The following USB Device configuration must be included in the conf_usb.h
  74:.././hal/sam3u1c/inc/udc.h ****  * file of the application.
  75:.././hal/sam3u1c/inc/udc.h ****  *
  76:.././hal/sam3u1c/inc/udc.h ****  * USB_DEVICE_VENDOR_ID (Word)<br>
  77:.././hal/sam3u1c/inc/udc.h ****  * Vendor ID provided by USB org (ATMEL 0x03EB).
  78:.././hal/sam3u1c/inc/udc.h ****  *
  79:.././hal/sam3u1c/inc/udc.h ****  * USB_DEVICE_PRODUCT_ID (Word)<br>
  80:.././hal/sam3u1c/inc/udc.h ****  * Product ID (Referenced in usb_atmel.h).
  81:.././hal/sam3u1c/inc/udc.h ****  *
  82:.././hal/sam3u1c/inc/udc.h ****  * USB_DEVICE_MAJOR_VERSION (Byte)<br>
  83:.././hal/sam3u1c/inc/udc.h ****  * Major version of the device
  84:.././hal/sam3u1c/inc/udc.h ****  *
  85:.././hal/sam3u1c/inc/udc.h ****  * USB_DEVICE_MINOR_VERSION (Byte)<br>
  86:.././hal/sam3u1c/inc/udc.h ****  * Minor version of the device
  87:.././hal/sam3u1c/inc/udc.h ****  *
  88:.././hal/sam3u1c/inc/udc.h ****  * USB_DEVICE_MANUFACTURE_NAME (string)<br>
  89:.././hal/sam3u1c/inc/udc.h ****  * ASCII name for the manufacture
  90:.././hal/sam3u1c/inc/udc.h ****  *
  91:.././hal/sam3u1c/inc/udc.h ****  * USB_DEVICE_PRODUCT_NAME (string)<br>
  92:.././hal/sam3u1c/inc/udc.h ****  * ASCII name for the product
  93:.././hal/sam3u1c/inc/udc.h ****  *
  94:.././hal/sam3u1c/inc/udc.h ****  * USB_DEVICE_SERIAL_NAME (string)<br>
  95:.././hal/sam3u1c/inc/udc.h ****  * ASCII name to enable and set a serial number
  96:.././hal/sam3u1c/inc/udc.h ****  *
  97:.././hal/sam3u1c/inc/udc.h ****  * USB_DEVICE_POWER (Numeric)<br>
  98:.././hal/sam3u1c/inc/udc.h ****  * (unit mA) Maximum device power
  99:.././hal/sam3u1c/inc/udc.h ****  *
 100:.././hal/sam3u1c/inc/udc.h ****  * USB_DEVICE_ATTR (Byte)<br>
 101:.././hal/sam3u1c/inc/udc.h ****  * USB attributes available:
 102:.././hal/sam3u1c/inc/udc.h ****  *  - USB_CONFIG_ATTR_SELF_POWERED
 103:.././hal/sam3u1c/inc/udc.h ****  *  - USB_CONFIG_ATTR_REMOTE_WAKEUP
 104:.././hal/sam3u1c/inc/udc.h ****  *  Note: if remote wake enabled then defines remotewakeup callbacks,
 105:.././hal/sam3u1c/inc/udc.h ****  * see Table 5-2. External API from UDC - Callback
 106:.././hal/sam3u1c/inc/udc.h ****  *
 107:.././hal/sam3u1c/inc/udc.h ****  * USB_DEVICE_LOW_SPEED (Only defined)<br>
 108:.././hal/sam3u1c/inc/udc.h ****  * Force the USB Device to run in low speed
 109:.././hal/sam3u1c/inc/udc.h ****  *
 110:.././hal/sam3u1c/inc/udc.h ****  * USB_DEVICE_HS_SUPPORT (Only defined)<br>
 111:.././hal/sam3u1c/inc/udc.h ****  * Authorize the USB Device to run in high speed
 112:.././hal/sam3u1c/inc/udc.h ****  *
 113:.././hal/sam3u1c/inc/udc.h ****  * USB_DEVICE_MAX_EP (Byte)<br>
 114:.././hal/sam3u1c/inc/udc.h ****  * Define the maximum endpoint number used by the USB Device.<br>
 115:.././hal/sam3u1c/inc/udc.h ****  * This one is already defined in UDI default configuration.
 116:.././hal/sam3u1c/inc/udc.h ****  * Ex:
 117:.././hal/sam3u1c/inc/udc.h ****  * - When endpoint control 0x00, endpoint 0x01 and
 118:.././hal/sam3u1c/inc/udc.h ****  *   endpoint 0x82 is used then USB_DEVICE_MAX_EP=2
 119:.././hal/sam3u1c/inc/udc.h ****  * - When only endpoint control 0x00 is used then USB_DEVICE_MAX_EP=0
 120:.././hal/sam3u1c/inc/udc.h ****  * - When endpoint 0x01 and endpoint 0x81 is used then USB_DEVICE_MAX_EP=1<br>
 121:.././hal/sam3u1c/inc/udc.h ****  *   (configuration not possible on USBB interface)
 122:.././hal/sam3u1c/inc/udc.h ****  * @{
 123:.././hal/sam3u1c/inc/udc.h ****  */
 124:.././hal/sam3u1c/inc/udc.h **** 
 125:.././hal/sam3u1c/inc/udc.h **** /**
 126:.././hal/sam3u1c/inc/udc.h ****  * \brief Authorizes the VBUS event
 127:.././hal/sam3u1c/inc/udc.h ****  *
 128:.././hal/sam3u1c/inc/udc.h ****  * \return true, if the VBUS monitoring is possible.
 129:.././hal/sam3u1c/inc/udc.h ****  *
 130:.././hal/sam3u1c/inc/udc.h ****  * \section udc_vbus_monitoring VBus monitoring used cases
 131:.././hal/sam3u1c/inc/udc.h ****  *
 132:.././hal/sam3u1c/inc/udc.h ****  * The VBus monitoring is used only for USB SELF Power application.
 133:.././hal/sam3u1c/inc/udc.h ****  *
 134:.././hal/sam3u1c/inc/udc.h ****  * - By default the USB device is automatically attached when Vbus is high
 135:.././hal/sam3u1c/inc/udc.h ****  * or when USB is start for devices without internal Vbus monitoring.
 136:.././hal/sam3u1c/inc/udc.h ****  * conf_usb.h file does not contains define USB_DEVICE_ATTACH_AUTO_DISABLE.
 137:.././hal/sam3u1c/inc/udc.h ****  * \code //#define USB_DEVICE_ATTACH_AUTO_DISABLE \endcode
 138:.././hal/sam3u1c/inc/udc.h ****  *
 139:.././hal/sam3u1c/inc/udc.h ****  * - Add custom VBUS monitoring. conf_usb.h file contains define
 140:.././hal/sam3u1c/inc/udc.h ****  * USB_DEVICE_ATTACH_AUTO_DISABLE:
 141:.././hal/sam3u1c/inc/udc.h ****  * \code #define USB_DEVICE_ATTACH_AUTO_DISABLE \endcode
 142:.././hal/sam3u1c/inc/udc.h ****  * User C file contains:
 143:.././hal/sam3u1c/inc/udc.h ****  * \code  
 144:.././hal/sam3u1c/inc/udc.h **** 	// Authorize VBUS monitoring
 145:.././hal/sam3u1c/inc/udc.h **** 	if (!udc_include_vbus_monitoring()) {
 146:.././hal/sam3u1c/inc/udc.h **** 	  // Implement custom VBUS monitoring via GPIO or other
 147:.././hal/sam3u1c/inc/udc.h **** 	}
 148:.././hal/sam3u1c/inc/udc.h **** 	Event_VBUS_present() // VBUS interrupt or GPIO interrupt or other
 149:.././hal/sam3u1c/inc/udc.h **** 	{
 150:.././hal/sam3u1c/inc/udc.h **** 	  // Attach USB Device
 151:.././hal/sam3u1c/inc/udc.h **** 	  udc_attach();
 152:.././hal/sam3u1c/inc/udc.h **** 	}
 153:.././hal/sam3u1c/inc/udc.h **** \endcode
 154:.././hal/sam3u1c/inc/udc.h ****  *
 155:.././hal/sam3u1c/inc/udc.h ****  * - Case of battery charging. conf_usb.h file contains define
 156:.././hal/sam3u1c/inc/udc.h ****  * USB_DEVICE_ATTACH_AUTO_DISABLE:
 157:.././hal/sam3u1c/inc/udc.h ****  * \code #define USB_DEVICE_ATTACH_AUTO_DISABLE \endcode
 158:.././hal/sam3u1c/inc/udc.h ****  * User C file contains:
 159:.././hal/sam3u1c/inc/udc.h ****  * \code  
 160:.././hal/sam3u1c/inc/udc.h **** 	Event VBUS present() // VBUS interrupt or GPIO interrupt or ..
 161:.././hal/sam3u1c/inc/udc.h **** 	{
 162:.././hal/sam3u1c/inc/udc.h **** 	  // Authorize battery charging, but wait key press to start USB.
 163:.././hal/sam3u1c/inc/udc.h **** 	}
 164:.././hal/sam3u1c/inc/udc.h **** 	Event Key press()
 165:.././hal/sam3u1c/inc/udc.h **** 	{
 166:.././hal/sam3u1c/inc/udc.h **** 	  // Stop batteries charging
 167:.././hal/sam3u1c/inc/udc.h **** 	  // Start USB
 168:.././hal/sam3u1c/inc/udc.h **** 	  udc_attach();
 169:.././hal/sam3u1c/inc/udc.h **** 	}
 170:.././hal/sam3u1c/inc/udc.h **** \endcode
 171:.././hal/sam3u1c/inc/udc.h ****  */
 172:.././hal/sam3u1c/inc/udc.h **** static inline bool udc_include_vbus_monitoring(void)
 173:.././hal/sam3u1c/inc/udc.h **** {
 174:.././hal/sam3u1c/inc/udc.h **** 	return udd_include_vbus_monitoring();
 175:.././hal/sam3u1c/inc/udc.h **** }
 176:.././hal/sam3u1c/inc/udc.h **** 
 177:.././hal/sam3u1c/inc/udc.h **** /*! \brief Start the USB Device stack
 178:.././hal/sam3u1c/inc/udc.h ****  */
 179:.././hal/sam3u1c/inc/udc.h **** void udc_start(void);
 180:.././hal/sam3u1c/inc/udc.h **** 
 181:.././hal/sam3u1c/inc/udc.h **** /*! \brief Stop the USB Device stack
 182:.././hal/sam3u1c/inc/udc.h ****  */
 183:.././hal/sam3u1c/inc/udc.h **** void udc_stop(void);
 184:.././hal/sam3u1c/inc/udc.h **** 
 185:.././hal/sam3u1c/inc/udc.h **** /**
 186:.././hal/sam3u1c/inc/udc.h ****  * \brief Attach device to the bus when possible
 187:.././hal/sam3u1c/inc/udc.h ****  *
 188:.././hal/sam3u1c/inc/udc.h ****  * \warning If a VBus control is included in driver,
 189:.././hal/sam3u1c/inc/udc.h ****  * then it will attach device when an acceptable Vbus
 190:.././hal/sam3u1c/inc/udc.h ****  * level from the host is detected.
 191:.././hal/sam3u1c/inc/udc.h ****  */
 192:.././hal/sam3u1c/inc/udc.h **** static inline void udc_attach(void)
 193:.././hal/sam3u1c/inc/udc.h **** {
 194:.././hal/sam3u1c/inc/udc.h **** 	udd_attach();
 195:.././hal/sam3u1c/inc/udc.h **** }
 196:.././hal/sam3u1c/inc/udc.h **** 
 197:.././hal/sam3u1c/inc/udc.h **** 
 198:.././hal/sam3u1c/inc/udc.h **** /**
 199:.././hal/sam3u1c/inc/udc.h ****  * \brief Detaches the device from the bus
 200:.././hal/sam3u1c/inc/udc.h ****  *
 201:.././hal/sam3u1c/inc/udc.h ****  * The driver must remove pull-up on USB line D- or D+.
 202:.././hal/sam3u1c/inc/udc.h ****  */
 203:.././hal/sam3u1c/inc/udc.h **** static inline void udc_detach(void)
 204:.././hal/sam3u1c/inc/udc.h **** {
 322              	 .loc 3 204 0
 323              	 .cfi_startproc
 324              	 
 325              	 
 326 0000 80B5     	 push {r7,lr}
 327              	.LCFI15:
 328              	 .cfi_def_cfa_offset 8
 329              	 .cfi_offset 7,-8
 330              	 .cfi_offset 14,-4
 331 0002 00AF     	 add r7,sp,#0
 332              	.LCFI16:
 333              	 .cfi_def_cfa_register 7
 205:.././hal/sam3u1c/inc/udc.h **** 	udd_detach();
 334              	 .loc 3 205 0
 335 0004 014B     	 ldr r3,.L31
 336 0006 9847     	 blx r3
 337              	.LVL11:
 206:.././hal/sam3u1c/inc/udc.h **** }
 338              	 .loc 3 206 0
 339 0008 00BF     	 nop
 340 000a 80BD     	 pop {r7,pc}
 341              	.L32:
 342              	 .align 2
 343              	.L31:
 344 000c 00000000 	 .word udd_detach
 345              	 .cfi_endproc
 346              	.LFE179:
 348              	 .global g_captureinprogress
 349              	 .section .data.g_captureinprogress,"aw",%progbits
 352              	g_captureinprogress:
 353 0000 01       	 .byte 1
 354              	 .section .data.main_b_vendor_enable,"aw",%progbits
 357              	main_b_vendor_enable:
 358 0000 01       	 .byte 1
 359              	 .global USB_PWR_STATE
 360              	 .section .bss.USB_PWR_STATE,"aw",%nobits
 363              	USB_PWR_STATE:
 364 0000 00       	 .space 1
 365              	 .section .bss.main_buf_loopback,"aw",%nobits
 366              	 .align 2
 369              	main_buf_loopback:
 370 0000 00000000 	 .space 1024
 370      00000000 
 370      00000000 
 370      00000000 
 370      00000000 
 371              	 .section .text.main_suspend_action,"ax",%progbits
 372              	 .align 1
 373              	 .global main_suspend_action
 374              	 .syntax unified
 375              	 .thumb
 376              	 .thumb_func
 377              	 .fpu softvfp
 379              	main_suspend_action:
 380              	.LFB190:
 381              	 .file 4 "usb.c"
   1:usb.c         **** /*
   2:usb.c         ****   Copyright (c) 2014-2015 NewAE Technology Inc. All rights reserved.
   3:usb.c         ****   This program is free software: you can redistribute it and/or modify
   4:usb.c         ****   it under the terms of the GNU General Public License as published by
   5:usb.c         ****   the Free Software Foundation, either version 3 of the License, or
   6:usb.c         ****   (at your option) any later version.
   7:usb.c         ****   This program is distributed in the hope that it will be useful,
   8:usb.c         ****   but WITHOUT ANY WARRANTY; without even the implied warranty of
   9:usb.c         ****   MERCHANTABILITY or FITNESS FOR A PARTICULAR PURPOSE.  See the
  10:usb.c         ****   GNU General Public License for more details.
  11:usb.c         ****   You should have received a copy of the GNU General Public License
  12:usb.c         ****   along with this program.  If not, see <http://www.gnu.org/licenses/>.
  13:usb.c         **** */
  14:usb.c         **** 
  15:usb.c         **** #include <asf.h>
  16:usb.c         **** #include "conf_usb.h"
  17:usb.c         **** #include "stdio_serial.h"
  18:usb.c         **** #include "ui.h"
  19:usb.c         **** #include "genclk.h"
  20:usb.c         **** #include "usb.h"
  21:usb.c         **** #include "usb_xmem.h"
  22:usb.c         **** #include "fpga_program.h"
  23:usb.c         **** #include <string.h>
  24:usb.c         **** 
  25:usb.c         **** #define FW_VER_MAJOR 0
  26:usb.c         **** #define FW_VER_MINOR 10
  27:usb.c         **** #define FW_VER_DEBUG 0
  28:usb.c         **** 
  29:usb.c         **** #define REQ_MEMREAD_BULK 0x10
  30:usb.c         **** #define REQ_MEMWRITE_BULK 0x11
  31:usb.c         **** #define REQ_MEMREAD_CTRL 0x12
  32:usb.c         **** #define REQ_MEMWRITE_CTRL 0x13
  33:usb.c         **** #define REQ_MEMSTREAM 0x14
  34:usb.c         **** #define REQ_FPGA_STATUS 0x15
  35:usb.c         **** #define REQ_FPGA_PROGRAM 0x16
  36:usb.c         **** #define REQ_FW_VERSION 0x17
  37:usb.c         **** #define REQ_USART0_DATA 0x1A
  38:usb.c         **** #define REQ_USART0_CONFIG 0x1B
  39:usb.c         **** #define REQ_SCARD_DATA 0x1C
  40:usb.c         **** #define REQ_SCARD_CONFIG 0x1D
  41:usb.c         **** #define REQ_SCARD_AUX 0x1E
  42:usb.c         **** #define REQ_USART2DUMP_ENABLE 0x1F
  43:usb.c         **** #define REQ_XMEGA_PROGRAM 0x20
  44:usb.c         **** #define REQ_AVR_PROGRAM 0x21
  45:usb.c         **** #define REQ_SAM3U_CFG 0x22
  46:usb.c         **** #define REQ_CC_PROGRAM 0x23
  47:usb.c         **** #define REQ_CHANGE_PWR 0x24
  48:usb.c         **** 
  49:usb.c         **** volatile bool g_captureinprogress = true;
  50:usb.c         **** 
  51:usb.c         **** static volatile bool main_b_vendor_enable = true;
  52:usb.c         **** 
  53:usb.c         **** uint8_t USB_PWR_STATE = 0;
  54:usb.c         **** 
  55:usb.c         **** COMPILER_WORD_ALIGNED
  56:usb.c         **** static uint8_t main_buf_loopback[MAIN_LOOPBACK_SIZE];
  57:usb.c         **** 
  58:usb.c         **** void main_vendor_bulk_in_received(udd_ep_status_t status,
  59:usb.c         ****                                   iram_size_t nb_transfered, udd_ep_id_t ep);
  60:usb.c         **** void main_vendor_bulk_out_received(udd_ep_status_t status,
  61:usb.c         ****                                    iram_size_t nb_transfered, udd_ep_id_t ep);
  62:usb.c         **** 
  63:usb.c         **** //this stuff just turns leds on and off
  64:usb.c         **** void main_suspend_action(void)
  65:usb.c         **** {
 382              	 .loc 4 65 0
 383              	 .cfi_startproc
 384              	 
 385              	 
 386              	 
 387 0000 80B4     	 push {r7}
 388              	.LCFI17:
 389              	 .cfi_def_cfa_offset 4
 390              	 .cfi_offset 7,-4
 391 0002 00AF     	 add r7,sp,#0
 392              	.LCFI18:
 393              	 .cfi_def_cfa_register 7
  66:usb.c         **** }
 394              	 .loc 4 66 0
 395 0004 00BF     	 nop
 396 0006 BD46     	 mov sp,r7
 397              	.LCFI19:
 398              	 .cfi_def_cfa_register 13
 399              	 
 400 0008 80BC     	 pop {r7}
 401              	.LCFI20:
 402              	 .cfi_restore 7
 403              	 .cfi_def_cfa_offset 0
 404 000a 7047     	 bx lr
 405              	 .cfi_endproc
 406              	.LFE190:
 408              	 .section .text.main_resume_action,"ax",%progbits
 409              	 .align 1
 410              	 .global main_resume_action
 411              	 .syntax unified
 412              	 .thumb
 413              	 .thumb_func
 414              	 .fpu softvfp
 416              	main_resume_action:
 417              	.LFB191:
  67:usb.c         **** 
  68:usb.c         **** void main_resume_action(void)
  69:usb.c         **** {
 418              	 .loc 4 69 0
 419              	 .cfi_startproc
 420              	 
 421              	 
 422              	 
 423 0000 80B4     	 push {r7}
 424              	.LCFI21:
 425              	 .cfi_def_cfa_offset 4
 426              	 .cfi_offset 7,-4
 427 0002 00AF     	 add r7,sp,#0
 428              	.LCFI22:
 429              	 .cfi_def_cfa_register 7
  70:usb.c         **** }
 430              	 .loc 4 70 0
 431 0004 00BF     	 nop
 432 0006 BD46     	 mov sp,r7
 433              	.LCFI23:
 434              	 .cfi_def_cfa_register 13
 435              	 
 436 0008 80BC     	 pop {r7}
 437              	.LCFI24:
 438              	 .cfi_restore 7
 439              	 .cfi_def_cfa_offset 0
 440 000a 7047     	 bx lr
 441              	 .cfi_endproc
 442              	.LFE191:
 444              	 .section .text.main_sof_action,"ax",%progbits
 445              	 .align 1
 446              	 .global main_sof_action
 447              	 .syntax unified
 448              	 .thumb
 449              	 .thumb_func
 450              	 .fpu softvfp
 452              	main_sof_action:
 453              	.LFB192:
  71:usb.c         **** 
  72:usb.c         **** void main_sof_action(void)
  73:usb.c         **** {
 454              	 .loc 4 73 0
 455              	 .cfi_startproc
 456              	 
 457              	 
 458              	 
 459 0000 80B4     	 push {r7}
 460              	.LCFI25:
 461              	 .cfi_def_cfa_offset 4
 462              	 .cfi_offset 7,-4
 463 0002 00AF     	 add r7,sp,#0
 464              	.LCFI26:
 465              	 .cfi_def_cfa_register 7
  74:usb.c         ****     if (!main_b_vendor_enable)
 466              	 .loc 4 74 0
 467 0004 044B     	 ldr r3,.L37
 468 0006 1B78     	 ldrb r3,[r3]
 469 0008 DBB2     	 uxtb r3,r3
 470 000a 83F00103 	 eor r3,r3,#1
 471 000e DBB2     	 uxtb r3,r3
 472 0010 002B     	 cmp r3,#0
  75:usb.c         ****         return;
  76:usb.c         **** }
 473              	 .loc 4 76 0
 474 0012 BD46     	 mov sp,r7
 475              	.LCFI27:
 476              	 .cfi_def_cfa_register 13
 477              	 
 478 0014 80BC     	 pop {r7}
 479              	.LCFI28:
 480              	 .cfi_restore 7
 481              	 .cfi_def_cfa_offset 0
 482 0016 7047     	 bx lr
 483              	.L38:
 484              	 .align 2
 485              	.L37:
 486 0018 00000000 	 .word main_b_vendor_enable
 487              	 .cfi_endproc
 488              	.LFE192:
 490              	 .section .text.main_vendor_enable,"ax",%progbits
 491              	 .align 1
 492              	 .global main_vendor_enable
 493              	 .syntax unified
 494              	 .thumb
 495              	 .thumb_func
 496              	 .fpu softvfp
 498              	main_vendor_enable:
 499              	.LFB193:
  77:usb.c         **** 
  78:usb.c         **** bool main_vendor_enable(void)
  79:usb.c         **** {
 500              	 .loc 4 79 0
 501              	 .cfi_startproc
 502              	 
 503              	 
 504 0000 80B5     	 push {r7,lr}
 505              	.LCFI29:
 506              	 .cfi_def_cfa_offset 8
 507              	 .cfi_offset 7,-8
 508              	 .cfi_offset 14,-4
 509 0002 00AF     	 add r7,sp,#0
 510              	.LCFI30:
 511              	 .cfi_def_cfa_register 7
  80:usb.c         ****     main_b_vendor_enable = true;
 512              	 .loc 4 80 0
 513 0004 054B     	 ldr r3,.L41
 514 0006 0122     	 movs r2,#1
 515 0008 1A70     	 strb r2,[r3]
  81:usb.c         ****     // Start data reception on OUT endpoints
  82:usb.c         **** #if UDI_VENDOR_EPS_SIZE_BULK_FS
  83:usb.c         ****     //main_vendor_bulk_in_received(UDD_EP_TRANSFER_OK, 0, 0);
  84:usb.c         ****     udi_vendor_bulk_out_run(
 516              	 .loc 4 84 0
 517 000a 054A     	 ldr r2,.L41+4
 518 000c 4FF48061 	 mov r1,#1024
 519 0010 0448     	 ldr r0,.L41+8
 520 0012 054B     	 ldr r3,.L41+12
 521 0014 9847     	 blx r3
 522              	.LVL12:
  85:usb.c         ****         main_buf_loopback,
  86:usb.c         ****         sizeof(main_buf_loopback),
  87:usb.c         ****         main_vendor_bulk_out_received);
  88:usb.c         **** #endif
  89:usb.c         ****     return true;
 523              	 .loc 4 89 0
 524 0016 0123     	 movs r3,#1
  90:usb.c         **** }
 525              	 .loc 4 90 0
 526 0018 1846     	 mov r0,r3
 527 001a 80BD     	 pop {r7,pc}
 528              	.L42:
 529              	 .align 2
 530              	.L41:
 531 001c 00000000 	 .word main_b_vendor_enable
 532 0020 00000000 	 .word main_vendor_bulk_out_received
 533 0024 00000000 	 .word main_buf_loopback
 534 0028 00000000 	 .word udi_vendor_bulk_out_run
 535              	 .cfi_endproc
 536              	.LFE193:
 538              	 .section .text.main_vendor_disable,"ax",%progbits
 539              	 .align 1
 540              	 .global main_vendor_disable
 541              	 .syntax unified
 542              	 .thumb
 543              	 .thumb_func
 544              	 .fpu softvfp
 546              	main_vendor_disable:
 547              	.LFB194:
  91:usb.c         **** 
  92:usb.c         **** void main_vendor_disable(void)
  93:usb.c         **** {
 548              	 .loc 4 93 0
 549              	 .cfi_startproc
 550              	 
 551              	 
 552              	 
 553 0000 80B4     	 push {r7}
 554              	.LCFI31:
 555              	 .cfi_def_cfa_offset 4
 556              	 .cfi_offset 7,-4
 557 0002 00AF     	 add r7,sp,#0
 558              	.LCFI32:
 559              	 .cfi_def_cfa_register 7
  94:usb.c         ****     main_b_vendor_enable = false;
 560              	 .loc 4 94 0
 561 0004 034B     	 ldr r3,.L44
 562 0006 0022     	 movs r2,#0
 563 0008 1A70     	 strb r2,[r3]
  95:usb.c         **** }
 564              	 .loc 4 95 0
 565 000a 00BF     	 nop
 566 000c BD46     	 mov sp,r7
 567              	.LCFI33:
 568              	 .cfi_def_cfa_register 13
 569              	 
 570 000e 80BC     	 pop {r7}
 571              	.LCFI34:
 572              	 .cfi_restore 7
 573              	 .cfi_def_cfa_offset 0
 574 0010 7047     	 bx lr
 575              	.L45:
 576 0012 00BF     	 .align 2
 577              	.L44:
 578 0014 00000000 	 .word main_b_vendor_enable
 579              	 .cfi_endproc
 580              	.LFE194:
 582              	 .section .bss.ctrlbuffer,"aw",%nobits
 583              	 .align 2
 586              	ctrlbuffer:
 587 0000 00000000 	 .space 64
 587      00000000 
 587      00000000 
 587      00000000 
 587      00000000 
 588              	 .section .bss.blockendpoint_usage,"aw",%nobits
 591              	blockendpoint_usage:
 592 0000 00       	 .space 1
 593              	 .section .bss.ctrlmemread_buf,"aw",%nobits
 594              	 .align 2
 597              	ctrlmemread_buf:
 598 0000 00000000 	 .space 4
 599              	 .section .bss.ctrlmemread_size,"aw",%nobits
 600              	 .align 2
 603              	ctrlmemread_size:
 604 0000 00000000 	 .space 4
 605              	 .section .text.ctrl_readmem_bulk,"ax",%progbits
 606              	 .align 1
 607              	 .global ctrl_readmem_bulk
 608              	 .syntax unified
 609              	 .thumb
 610              	 .thumb_func
 611              	 .fpu softvfp
 613              	ctrl_readmem_bulk:
 614              	.LFB195:
  96:usb.c         **** 
  97:usb.c         **** #define REQ_MEMREAD_BULK 0x10
  98:usb.c         **** #define REQ_MEMWRITE_BULK 0x11
  99:usb.c         **** #define REQ_MEMREAD_CTRL 0x12
 100:usb.c         **** #define REQ_MEMWRITE_CTRL 0x13
 101:usb.c         **** #define REQ_FW_VERSION 0x17
 102:usb.c         **** #define REQ_SAM3U_CFG 0x22
 103:usb.c         **** 
 104:usb.c         **** COMPILER_WORD_ALIGNED static uint8_t ctrlbuffer[64];
 105:usb.c         **** #define CTRLBUFFER_WORDPTR ((uint32_t *) ((void *)ctrlbuffer))
 106:usb.c         **** 
 107:usb.c         **** typedef enum {
 108:usb.c         ****     bep_emem=0,
 109:usb.c         ****     bep_fpgabitstream=10
 110:usb.c         **** } blockep_usage_t;
 111:usb.c         **** 
 112:usb.c         **** static blockep_usage_t blockendpoint_usage = bep_emem;
 113:usb.c         **** 
 114:usb.c         **** static uint8_t * ctrlmemread_buf;
 115:usb.c         **** static unsigned int ctrlmemread_size;
 116:usb.c         **** 
 117:usb.c         **** void ctrl_readmem_bulk(void);
 118:usb.c         **** void ctrl_readmem_ctrl(void);
 119:usb.c         **** void ctrl_writemem_bulk(void);
 120:usb.c         **** void ctrl_writemem_ctrl(void);
 121:usb.c         **** void ctrl_progfpga_bulk(void);
 122:usb.c         **** 
 123:usb.c         **** 
 124:usb.c         **** void ctrl_readmem_bulk(void){
 615              	 .loc 4 124 0
 616              	 .cfi_startproc
 617              	 
 618              	 
 619 0000 80B5     	 push {r7,lr}
 620              	.LCFI35:
 621              	 .cfi_def_cfa_offset 8
 622              	 .cfi_offset 7,-8
 623              	 .cfi_offset 14,-4
 624 0002 82B0     	 sub sp,sp,#8
 625              	.LCFI36:
 626              	 .cfi_def_cfa_offset 16
 627 0004 00AF     	 add r7,sp,#0
 628              	.LCFI37:
 629              	 .cfi_def_cfa_register 7
 125:usb.c         ****     uint32_t buflen = *(CTRLBUFFER_WORDPTR);
 630              	 .loc 4 125 0
 631 0006 0F4B     	 ldr r3,.L48
 632 0008 1B68     	 ldr r3,[r3]
 633 000a 7B60     	 str r3,[r7,#4]
 126:usb.c         ****     uint32_t address = *(CTRLBUFFER_WORDPTR + 1);
 634              	 .loc 4 126 0
 635 000c 0D4B     	 ldr r3,.L48
 636 000e 5B68     	 ldr r3,[r3,#4]
 637 0010 3B60     	 str r3,[r7]
 127:usb.c         **** 
 128:usb.c         ****     FPGA_releaselock();
 638              	 .loc 4 128 0
 639 0012 0D4B     	 ldr r3,.L48+4
 640 0014 9847     	 blx r3
 641              	.LVL13:
 129:usb.c         ****     while(!FPGA_setlock(fpga_blockin));
 642              	 .loc 4 129 0
 643 0016 00BF     	 nop
 644              	.L47:
 645              	 .loc 4 129 0 is_stmt 0 discriminator 1
 646 0018 0220     	 movs r0,#2
 647 001a 0C4B     	 ldr r3,.L48+8
 648 001c 9847     	 blx r3
 649              	.LVL14:
 650 001e 0346     	 mov r3,r0
 651 0020 002B     	 cmp r3,#0
 652 0022 F9D0     	 beq .L47
 130:usb.c         **** 
 131:usb.c         ****     FPGA_setaddr(address);
 653              	 .loc 4 131 0 is_stmt 1
 654 0024 3868     	 ldr r0,[r7]
 655 0026 0A4B     	 ldr r3,.L48+12
 656 0028 9847     	 blx r3
 657              	.LVL15:
 132:usb.c         **** 
 133:usb.c         ****     /* Do memory read */
 134:usb.c         ****     udi_vendor_bulk_in_run(
 658              	 .loc 4 134 0
 659 002a 0A4A     	 ldr r2,.L48+16
 660 002c 7968     	 ldr r1,[r7,#4]
 661 002e 4FF0C040 	 mov r0,#1610612736
 662 0032 094B     	 ldr r3,.L48+20
 663 0034 9847     	 blx r3
 664              	.LVL16:
 135:usb.c         ****         (uint8_t *) PSRAM_BASE_ADDRESS,
 136:usb.c         ****         buflen,
 137:usb.c         ****         main_vendor_bulk_in_received
 138:usb.c         ****         );
 139:usb.c         ****     FPGA_releaselock();
 665              	 .loc 4 139 0
 666 0036 044B     	 ldr r3,.L48+4
 667 0038 9847     	 blx r3
 668              	.LVL17:
 140:usb.c         **** }
 669              	 .loc 4 140 0
 670 003a 00BF     	 nop
 671 003c 0837     	 adds r7,r7,#8
 672              	.LCFI38:
 673              	 .cfi_def_cfa_offset 8
 674 003e BD46     	 mov sp,r7
 675              	.LCFI39:
 676              	 .cfi_def_cfa_register 13
 677              	 
 678 0040 80BD     	 pop {r7,pc}
 679              	.L49:
 680 0042 00BF     	 .align 2
 681              	.L48:
 682 0044 00000000 	 .word ctrlbuffer
 683 0048 00000000 	 .word FPGA_releaselock
 684 004c 00000000 	 .word FPGA_setlock
 685 0050 00000000 	 .word FPGA_setaddr
 686 0054 00000000 	 .word main_vendor_bulk_in_received
 687 0058 00000000 	 .word udi_vendor_bulk_in_run
 688              	 .cfi_endproc
 689              	.LFE195:
 691              	 .section .text.ctrl_readmem_ctrl,"ax",%progbits
 692              	 .align 1
 693              	 .global ctrl_readmem_ctrl
 694              	 .syntax unified
 695              	 .thumb
 696              	 .thumb_func
 697              	 .fpu softvfp
 699              	ctrl_readmem_ctrl:
 700              	.LFB196:
 141:usb.c         **** 
 142:usb.c         **** void ctrl_readmem_ctrl(void){
 701              	 .loc 4 142 0
 702              	 .cfi_startproc
 703              	 
 704              	 
 705 0000 80B5     	 push {r7,lr}
 706              	.LCFI40:
 707              	 .cfi_def_cfa_offset 8
 708              	 .cfi_offset 7,-8
 709              	 .cfi_offset 14,-4
 710 0002 82B0     	 sub sp,sp,#8
 711              	.LCFI41:
 712              	 .cfi_def_cfa_offset 16
 713 0004 00AF     	 add r7,sp,#0
 714              	.LCFI42:
 715              	 .cfi_def_cfa_register 7
 143:usb.c         ****     uint32_t buflen = *(CTRLBUFFER_WORDPTR);
 716              	 .loc 4 143 0
 717 0006 0E4B     	 ldr r3,.L52
 718 0008 1B68     	 ldr r3,[r3]
 719 000a 7B60     	 str r3,[r7,#4]
 144:usb.c         ****     uint32_t address = *(CTRLBUFFER_WORDPTR + 1);
 720              	 .loc 4 144 0
 721 000c 0C4B     	 ldr r3,.L52
 722 000e 5B68     	 ldr r3,[r3,#4]
 723 0010 3B60     	 str r3,[r7]
 145:usb.c         **** 
 146:usb.c         ****     FPGA_releaselock();
 724              	 .loc 4 146 0
 725 0012 0C4B     	 ldr r3,.L52+4
 726 0014 9847     	 blx r3
 727              	.LVL18:
 147:usb.c         ****     while(!FPGA_setlock(fpga_ctrlmem));
 728              	 .loc 4 147 0
 729 0016 00BF     	 nop
 730              	.L51:
 731              	 .loc 4 147 0 is_stmt 0 discriminator 1
 732 0018 0520     	 movs r0,#5
 733 001a 0B4B     	 ldr r3,.L52+8
 734 001c 9847     	 blx r3
 735              	.LVL19:
 736 001e 0346     	 mov r3,r0
 737 0020 002B     	 cmp r3,#0
 738 0022 F9D0     	 beq .L51
 148:usb.c         **** 
 149:usb.c         ****     /* Set address */
 150:usb.c         ****     FPGA_setaddr(address);
 739              	 .loc 4 150 0 is_stmt 1
 740 0024 3868     	 ldr r0,[r7]
 741 0026 094B     	 ldr r3,.L52+12
 742 0028 9847     	 blx r3
 743              	.LVL20:
 151:usb.c         **** 
 152:usb.c         ****     /* Do memory read */
 153:usb.c         ****     ctrlmemread_buf = (uint8_t *) PSRAM_BASE_ADDRESS;
 744              	 .loc 4 153 0
 745 002a 094B     	 ldr r3,.L52+16
 746 002c 4FF0C042 	 mov r2,#1610612736
 747 0030 1A60     	 str r2,[r3]
 154:usb.c         **** 
 155:usb.c         ****     /* Set size to read */
 156:usb.c         ****     ctrlmemread_size = buflen;
 748              	 .loc 4 156 0
 749 0032 084A     	 ldr r2,.L52+20
 750 0034 7B68     	 ldr r3,[r7,#4]
 751 0036 1360     	 str r3,[r2]
 157:usb.c         **** 
 158:usb.c         ****     /* Start Transaction */
 159:usb.c         **** }
 752              	 .loc 4 159 0
 753 0038 00BF     	 nop
 754 003a 0837     	 adds r7,r7,#8
 755              	.LCFI43:
 756              	 .cfi_def_cfa_offset 8
 757 003c BD46     	 mov sp,r7
 758              	.LCFI44:
 759              	 .cfi_def_cfa_register 13
 760              	 
 761 003e 80BD     	 pop {r7,pc}
 762              	.L53:
 763              	 .align 2
 764              	.L52:
 765 0040 00000000 	 .word ctrlbuffer
 766 0044 00000000 	 .word FPGA_releaselock
 767 0048 00000000 	 .word FPGA_setlock
 768 004c 00000000 	 .word FPGA_setaddr
 769 0050 00000000 	 .word ctrlmemread_buf
 770 0054 00000000 	 .word ctrlmemread_size
 771              	 .cfi_endproc
 772              	.LFE196:
 774              	 .section .text.ctrl_writemem_ctrl,"ax",%progbits
 775              	 .align 1
 776              	 .global ctrl_writemem_ctrl
 777              	 .syntax unified
 778              	 .thumb
 779              	 .thumb_func
 780              	 .fpu softvfp
 782              	ctrl_writemem_ctrl:
 783              	.LFB197:
 160:usb.c         **** 
 161:usb.c         **** 
 162:usb.c         **** void ctrl_writemem_ctrl(void){
 784              	 .loc 4 162 0
 785              	 .cfi_startproc
 786              	 
 787              	 
 788 0000 80B5     	 push {r7,lr}
 789              	.LCFI45:
 790              	 .cfi_def_cfa_offset 8
 791              	 .cfi_offset 7,-8
 792              	 .cfi_offset 14,-4
 793 0002 84B0     	 sub sp,sp,#16
 794              	.LCFI46:
 795              	 .cfi_def_cfa_offset 24
 796 0004 00AF     	 add r7,sp,#0
 797              	.LCFI47:
 798              	 .cfi_def_cfa_register 7
 163:usb.c         ****     uint32_t buflen = *(CTRLBUFFER_WORDPTR);
 799              	 .loc 4 163 0
 800 0006 164B     	 ldr r3,.L58
 801 0008 1B68     	 ldr r3,[r3]
 802 000a BB60     	 str r3,[r7,#8]
 164:usb.c         ****     uint32_t address = *(CTRLBUFFER_WORDPTR + 1);
 803              	 .loc 4 164 0
 804 000c 144B     	 ldr r3,.L58
 805 000e 5B68     	 ldr r3,[r3,#4]
 806 0010 7B60     	 str r3,[r7,#4]
 165:usb.c         **** 
 166:usb.c         ****     uint8_t * ctrlbuf_payload = (uint8_t *)(CTRLBUFFER_WORDPTR + 2);
 807              	 .loc 4 166 0
 808 0012 144B     	 ldr r3,.L58+4
 809 0014 3B60     	 str r3,[r7]
 167:usb.c         **** 
 168:usb.c         ****     //printf("Writing to %x, %d\n", address, buflen);
 169:usb.c         **** 
 170:usb.c         ****     FPGA_releaselock();
 810              	 .loc 4 170 0
 811 0016 144B     	 ldr r3,.L58+8
 812 0018 9847     	 blx r3
 813              	.LVL21:
 171:usb.c         ****     while(!FPGA_setlock(fpga_generic));
 814              	 .loc 4 171 0
 815 001a 00BF     	 nop
 816              	.L55:
 817              	 .loc 4 171 0 is_stmt 0 discriminator 1
 818 001c 0120     	 movs r0,#1
 819 001e 134B     	 ldr r3,.L58+12
 820 0020 9847     	 blx r3
 821              	.LVL22:
 822 0022 0346     	 mov r3,r0
 823 0024 002B     	 cmp r3,#0
 824 0026 F9D0     	 beq .L55
 172:usb.c         **** 
 173:usb.c         ****     /* Set address */
 174:usb.c         ****     FPGA_setaddr(address);
 825              	 .loc 4 174 0 is_stmt 1
 826 0028 7868     	 ldr r0,[r7,#4]
 827 002a 114B     	 ldr r3,.L58+16
 828 002c 9847     	 blx r3
 829              	.LVL23:
 830              	.LBB2:
 175:usb.c         **** 
 176:usb.c         ****     /* Start Transaction */
 177:usb.c         **** 
 178:usb.c         ****     /* Do memory write */
 179:usb.c         ****     for(unsigned int i = 0; i < buflen; i++){
 831              	 .loc 4 179 0
 832 002e 0023     	 movs r3,#0
 833 0030 FB60     	 str r3,[r7,#12]
 834 0032 0BE0     	 b .L56
 835              	.L57:
 180:usb.c         ****         xram[i] = ctrlbuf_payload[i];
 836              	 .loc 4 180 0 discriminator 3
 837 0034 3A68     	 ldr r2,[r7]
 838 0036 FB68     	 ldr r3,[r7,#12]
 839 0038 1A44     	 add r2,r2,r3
 840 003a 0E4B     	 ldr r3,.L58+20
 841 003c 1968     	 ldr r1,[r3]
 842 003e FB68     	 ldr r3,[r7,#12]
 843 0040 0B44     	 add r3,r3,r1
 844 0042 1278     	 ldrb r2,[r2]
 845 0044 1A70     	 strb r2,[r3]
 179:usb.c         ****         xram[i] = ctrlbuf_payload[i];
 846              	 .loc 4 179 0 discriminator 3
 847 0046 FB68     	 ldr r3,[r7,#12]
 848 0048 0133     	 adds r3,r3,#1
 849 004a FB60     	 str r3,[r7,#12]
 850              	.L56:
 179:usb.c         ****         xram[i] = ctrlbuf_payload[i];
 851              	 .loc 4 179 0 is_stmt 0 discriminator 1
 852 004c FA68     	 ldr r2,[r7,#12]
 853 004e BB68     	 ldr r3,[r7,#8]
 854 0050 9A42     	 cmp r2,r3
 855 0052 EFD3     	 bcc .L57
 856              	.LBE2:
 181:usb.c         ****     }
 182:usb.c         **** 
 183:usb.c         ****     FPGA_releaselock();
 857              	 .loc 4 183 0 is_stmt 1
 858 0054 044B     	 ldr r3,.L58+8
 859 0056 9847     	 blx r3
 860              	.LVL24:
 184:usb.c         **** }
 861              	 .loc 4 184 0
 862 0058 00BF     	 nop
 863 005a 1037     	 adds r7,r7,#16
 864              	.LCFI48:
 865              	 .cfi_def_cfa_offset 8
 866 005c BD46     	 mov sp,r7
 867              	.LCFI49:
 868              	 .cfi_def_cfa_register 13
 869              	 
 870 005e 80BD     	 pop {r7,pc}
 871              	.L59:
 872              	 .align 2
 873              	.L58:
 874 0060 00000000 	 .word ctrlbuffer
 875 0064 08000000 	 .word ctrlbuffer+8
 876 0068 00000000 	 .word FPGA_releaselock
 877 006c 00000000 	 .word FPGA_setlock
 878 0070 00000000 	 .word FPGA_setaddr
 879 0074 00000000 	 .word xram
 880              	 .cfi_endproc
 881              	.LFE197:
 883              	 .section .bss.bulkread_address,"aw",%nobits
 884              	 .align 2
 887              	bulkread_address:
 888 0000 00000000 	 .space 4
 889              	 .section .bss.bulkread_len,"aw",%nobits
 890              	 .align 2
 893              	bulkread_len:
 894 0000 00000000 	 .space 4
 895              	 .section .text.ctrl_writemem_bulk,"ax",%progbits
 896              	 .align 1
 897              	 .global ctrl_writemem_bulk
 898              	 .syntax unified
 899              	 .thumb
 900              	 .thumb_func
 901              	 .fpu softvfp
 903              	ctrl_writemem_bulk:
 904              	.LFB198:
 185:usb.c         **** 
 186:usb.c         **** static uint32_t bulkread_address = 0;
 187:usb.c         **** static uint32_t bulkread_len = 0;
 188:usb.c         **** 
 189:usb.c         **** void ctrl_writemem_bulk(void){
 905              	 .loc 4 189 0
 906              	 .cfi_startproc
 907              	 
 908              	 
 909 0000 80B5     	 push {r7,lr}
 910              	.LCFI50:
 911              	 .cfi_def_cfa_offset 8
 912              	 .cfi_offset 7,-8
 913              	 .cfi_offset 14,-4
 914 0002 82B0     	 sub sp,sp,#8
 915              	.LCFI51:
 916              	 .cfi_def_cfa_offset 16
 917 0004 00AF     	 add r7,sp,#0
 918              	.LCFI52:
 919              	 .cfi_def_cfa_register 7
 190:usb.c         **** //uint32_t buflen = *(CTRLBUFFER_WORDPTR);
 191:usb.c         ****     uint32_t address = *(CTRLBUFFER_WORDPTR + 1);
 920              	 .loc 4 191 0
 921 0006 094B     	 ldr r3,.L62
 922 0008 5B68     	 ldr r3,[r3,#4]
 923 000a 7B60     	 str r3,[r7,#4]
 192:usb.c         **** 
 193:usb.c         ****     // TODO: see block in
 194:usb.c         ****     FPGA_releaselock();
 924              	 .loc 4 194 0
 925 000c 084B     	 ldr r3,.L62+4
 926 000e 9847     	 blx r3
 927              	.LVL25:
 195:usb.c         ****     while(!FPGA_setlock(fpga_blockout));
 928              	 .loc 4 195 0
 929 0010 00BF     	 nop
 930              	.L61:
 931              	 .loc 4 195 0 is_stmt 0 discriminator 1
 932 0012 0420     	 movs r0,#4
 933 0014 074B     	 ldr r3,.L62+8
 934 0016 9847     	 blx r3
 935              	.LVL26:
 936 0018 0346     	 mov r3,r0
 937 001a 002B     	 cmp r3,#0
 938 001c F9D0     	 beq .L61
 196:usb.c         **** 
 197:usb.c         ****     /* Set address */
 198:usb.c         ****     FPGA_setaddr(address);
 939              	 .loc 4 198 0 is_stmt 1
 940 001e 7868     	 ldr r0,[r7,#4]
 941 0020 054B     	 ldr r3,.L62+12
 942 0022 9847     	 blx r3
 943              	.LVL27:
 199:usb.c         **** 
 200:usb.c         ****     /* Transaction done in generic callback */
 201:usb.c         **** }
 944              	 .loc 4 201 0
 945 0024 00BF     	 nop
 946 0026 0837     	 adds r7,r7,#8
 947              	.LCFI53:
 948              	 .cfi_def_cfa_offset 8
 949 0028 BD46     	 mov sp,r7
 950              	.LCFI54:
 951              	 .cfi_def_cfa_register 13
 952              	 
 953 002a 80BD     	 pop {r7,pc}
 954              	.L63:
 955              	 .align 2
 956              	.L62:
 957 002c 00000000 	 .word ctrlbuffer
 958 0030 00000000 	 .word FPGA_releaselock
 959 0034 00000000 	 .word FPGA_setlock
 960 0038 00000000 	 .word FPGA_setaddr
 961              	 .cfi_endproc
 962              	.LFE198:
 964              	 .section .text.ctrl_sam3ucfg_cb,"ax",%progbits
 965              	 .align 1
 966              	 .syntax unified
 967              	 .thumb
 968              	 .thumb_func
 969              	 .fpu softvfp
 971              	ctrl_sam3ucfg_cb:
 972              	.LFB199:
 202:usb.c         **** 
 203:usb.c         **** static void ctrl_sam3ucfg_cb(void)
 204:usb.c         **** {
 973              	 .loc 4 204 0
 974              	 .cfi_startproc
 975              	 
 976              	 
 977 0000 80B5     	 push {r7,lr}
 978              	.LCFI55:
 979              	 .cfi_def_cfa_offset 8
 980              	 .cfi_offset 7,-8
 981              	 .cfi_offset 14,-4
 982 0002 00AF     	 add r7,sp,#0
 983              	.LCFI56:
 984              	 .cfi_def_cfa_register 7
 205:usb.c         ****     switch(udd_g_ctrlreq.req.wValue & 0xFF)
 985              	 .loc 4 205 0
 986 0004 184B     	 ldr r3,.L72
 987 0006 5B88     	 ldrh r3,[r3,#2]
 988 0008 DBB2     	 uxtb r3,r3
 989 000a 022B     	 cmp r3,#2
 990 000c 0ED0     	 beq .L66
 991 000e 032B     	 cmp r3,#3
 992 0010 10D0     	 beq .L67
 993 0012 012B     	 cmp r3,#1
 994 0014 00D0     	 beq .L68
 206:usb.c         ****     {
 207:usb.c         ****         /* Turn on slow clock */
 208:usb.c         ****     case 0x01:
 209:usb.c         ****         osc_enable(OSC_MAINCK_XTAL);
 210:usb.c         ****         osc_wait_ready(OSC_MAINCK_XTAL);
 211:usb.c         ****         pmc_switch_mck_to_mainck(CONFIG_SYSCLK_PRES);
 212:usb.c         ****         break;
 213:usb.c         **** 
 214:usb.c         ****         /* Turn off slow clock */
 215:usb.c         ****     case 0x02:
 216:usb.c         ****         pmc_switch_mck_to_pllack(CONFIG_SYSCLK_PRES);
 217:usb.c         ****         break;
 218:usb.c         **** 
 219:usb.c         ****         /* Jump to ROM-resident bootloader */
 220:usb.c         ****     case 0x03:
 221:usb.c         ****         /* Turn off connected stuff */
 222:usb.c         ****         //board_power(0);
 223:usb.c         **** 
 224:usb.c         ****         /* Clear ROM-mapping bit. */
 225:usb.c         ****         efc_perform_command(EFC0, EFC_FCMD_CGPB, 1);
 226:usb.c         **** 
 227:usb.c         ****         /* Disconnect USB (will kill connection) */
 228:usb.c         ****         udc_detach();
 229:usb.c         **** 
 230:usb.c         ****         /* With knowledge that I will rise again, I lay down my life. */
 231:usb.c         ****         while (RSTC->RSTC_SR & RSTC_SR_SRCMP);
 232:usb.c         ****         RSTC->RSTC_CR |= RSTC_CR_KEY(0xA5) | RSTC_CR_PERRST | RSTC_CR_PROCRST;
 233:usb.c         ****         while(1);
 234:usb.c         ****         break;
 235:usb.c         ****         /* Disconnect USB (will kill stuff) */
 236:usb.c         **** 
 237:usb.c         ****         /* Make the jump */
 238:usb.c         ****         break;
 239:usb.c         **** 
 240:usb.c         ****         /* Oh well, sucks to be you */
 241:usb.c         ****     default:
 242:usb.c         ****         break;
 995              	 .loc 4 242 0
 996 0016 24E0     	 b .L69
 997              	.L68:
 209:usb.c         ****         osc_wait_ready(OSC_MAINCK_XTAL);
 998              	 .loc 4 209 0
 999 0018 0620     	 movs r0,#6
 1000 001a 144B     	 ldr r3,.L72+4
 1001 001c 9847     	 blx r3
 1002              	.LVL28:
 210:usb.c         ****         pmc_switch_mck_to_mainck(CONFIG_SYSCLK_PRES);
 1003              	 .loc 4 210 0
 1004 001e 0620     	 movs r0,#6
 1005 0020 134B     	 ldr r3,.L72+8
 1006 0022 9847     	 blx r3
 1007              	.LVL29:
 211:usb.c         ****         break;
 1008              	 .loc 4 211 0
 1009 0024 1020     	 movs r0,#16
 1010 0026 134B     	 ldr r3,.L72+12
 1011 0028 9847     	 blx r3
 1012              	.LVL30:
 212:usb.c         **** 
 1013              	 .loc 4 212 0
 1014 002a 1AE0     	 b .L69
 1015              	.L66:
 216:usb.c         ****         break;
 1016              	 .loc 4 216 0
 1017 002c 1020     	 movs r0,#16
 1018 002e 124B     	 ldr r3,.L72+16
 1019 0030 9847     	 blx r3
 1020              	.LVL31:
 217:usb.c         **** 
 1021              	 .loc 4 217 0
 1022 0032 16E0     	 b .L69
 1023              	.L67:
 225:usb.c         **** 
 1024              	 .loc 4 225 0
 1025 0034 0122     	 movs r2,#1
 1026 0036 0C21     	 movs r1,#12
 1027 0038 1048     	 ldr r0,.L72+20
 1028 003a 114B     	 ldr r3,.L72+24
 1029 003c 9847     	 blx r3
 1030              	.LVL32:
 228:usb.c         **** 
 1031              	 .loc 4 228 0
 1032 003e 114B     	 ldr r3,.L72+28
 1033 0040 9847     	 blx r3
 1034              	.LVL33:
 231:usb.c         ****         RSTC->RSTC_CR |= RSTC_CR_KEY(0xA5) | RSTC_CR_PERRST | RSTC_CR_PROCRST;
 1035              	 .loc 4 231 0
 1036 0042 00BF     	 nop
 1037              	.L70:
 231:usb.c         ****         RSTC->RSTC_CR |= RSTC_CR_KEY(0xA5) | RSTC_CR_PERRST | RSTC_CR_PROCRST;
 1038              	 .loc 4 231 0 is_stmt 0 discriminator 1
 1039 0044 104B     	 ldr r3,.L72+32
 1040 0046 5B68     	 ldr r3,[r3,#4]
 1041 0048 03F40033 	 and r3,r3,#131072
 1042 004c 002B     	 cmp r3,#0
 1043 004e F9D1     	 bne .L70
 232:usb.c         ****         while(1);
 1044              	 .loc 4 232 0 is_stmt 1
 1045 0050 0D4B     	 ldr r3,.L72+32
 1046 0052 1B68     	 ldr r3,[r3]
 1047 0054 0C4A     	 ldr r2,.L72+32
 1048 0056 43F02543 	 orr r3,r3,#-1526726656
 1049 005a 43F00503 	 orr r3,r3,#5
 1050 005e 1360     	 str r3,[r2]
 1051              	.L71:
 233:usb.c         ****         break;
 1052              	 .loc 4 233 0 discriminator 1
 1053 0060 FEE7     	 b .L71
 1054              	.L69:
 243:usb.c         ****     }
 244:usb.c         **** }
 1055              	 .loc 4 244 0
 1056 0062 00BF     	 nop
 1057 0064 80BD     	 pop {r7,pc}
 1058              	.L73:
 1059 0066 00BF     	 .align 2
 1060              	.L72:
 1061 0068 00000000 	 .word udd_g_ctrlreq
 1062 006c 00000000 	 .word osc_enable
 1063 0070 00000000 	 .word osc_wait_ready
 1064 0074 00000000 	 .word pmc_switch_mck_to_mainck
 1065 0078 00000000 	 .word pmc_switch_mck_to_pllack
 1066 007c 00080E40 	 .word 1074661376
 1067 0080 00000000 	 .word efc_perform_command
 1068 0084 00000000 	 .word udc_detach
 1069 0088 00120E40 	 .word 1074663936
 1070              	 .cfi_endproc
 1071              	.LFE199:
 1073              	 .section .text.ctrl_progfpga_bulk,"ax",%progbits
 1074              	 .align 1
 1075              	 .global ctrl_progfpga_bulk
 1076              	 .syntax unified
 1077              	 .thumb
 1078              	 .thumb_func
 1079              	 .fpu softvfp
 1081              	ctrl_progfpga_bulk:
 1082              	.LFB200:
 245:usb.c         **** 
 246:usb.c         **** void ctrl_progfpga_bulk(void){
 1083              	 .loc 4 246 0
 1084              	 .cfi_startproc
 1085              	 
 1086              	 
 1087 0000 80B5     	 push {r7,lr}
 1088              	.LCFI57:
 1089              	 .cfi_def_cfa_offset 8
 1090              	 .cfi_offset 7,-8
 1091              	 .cfi_offset 14,-4
 1092 0002 00AF     	 add r7,sp,#0
 1093              	.LCFI58:
 1094              	 .cfi_def_cfa_register 7
 247:usb.c         **** 
 248:usb.c         ****     switch(udd_g_ctrlreq.req.wValue){
 1095              	 .loc 4 248 0
 1096 0004 0B4B     	 ldr r3,.L80
 1097 0006 5B88     	 ldrh r3,[r3,#2]
 1098 0008 A12B     	 cmp r3,#161
 1099 000a 07D0     	 beq .L76
 1100 000c A22B     	 cmp r3,#162
 1101 000e 0BD0     	 beq .L77
 1102 0010 A02B     	 cmp r3,#160
 1103 0012 00D0     	 beq .L78
 249:usb.c         ****     case 0xA0:
 250:usb.c         ****         fpga_program_setup1();
 251:usb.c         ****         break;
 252:usb.c         **** 
 253:usb.c         ****     case 0xA1:
 254:usb.c         ****         /* Waiting on data... */
 255:usb.c         ****         fpga_program_setup2();
 256:usb.c         ****         blockendpoint_usage = bep_fpgabitstream;
 257:usb.c         ****         break;
 258:usb.c         **** 
 259:usb.c         ****     case 0xA2:
 260:usb.c         ****         /* Done */
 261:usb.c         ****         blockendpoint_usage = bep_emem;
 262:usb.c         ****         break;
 263:usb.c         **** 
 264:usb.c         ****     default:
 265:usb.c         ****         break;
 1104              	 .loc 4 265 0
 1105 0014 0CE0     	 b .L79
 1106              	.L78:
 250:usb.c         ****         break;
 1107              	 .loc 4 250 0
 1108 0016 084B     	 ldr r3,.L80+4
 1109 0018 9847     	 blx r3
 1110              	.LVL34:
 251:usb.c         **** 
 1111              	 .loc 4 251 0
 1112 001a 09E0     	 b .L79
 1113              	.L76:
 255:usb.c         ****         blockendpoint_usage = bep_fpgabitstream;
 1114              	 .loc 4 255 0
 1115 001c 074B     	 ldr r3,.L80+8
 1116 001e 9847     	 blx r3
 1117              	.LVL35:
 256:usb.c         ****         break;
 1118              	 .loc 4 256 0
 1119 0020 074B     	 ldr r3,.L80+12
 1120 0022 0A22     	 movs r2,#10
 1121 0024 1A70     	 strb r2,[r3]
 257:usb.c         **** 
 1122              	 .loc 4 257 0
 1123 0026 03E0     	 b .L79
 1124              	.L77:
 261:usb.c         ****         break;
 1125              	 .loc 4 261 0
 1126 0028 054B     	 ldr r3,.L80+12
 1127 002a 0022     	 movs r2,#0
 1128 002c 1A70     	 strb r2,[r3]
 262:usb.c         **** 
 1129              	 .loc 4 262 0
 1130 002e 00BF     	 nop
 1131              	.L79:
 266:usb.c         ****     }
 267:usb.c         **** }
 1132              	 .loc 4 267 0
 1133 0030 00BF     	 nop
 1134 0032 80BD     	 pop {r7,pc}
 1135              	.L81:
 1136              	 .align 2
 1137              	.L80:
 1138 0034 00000000 	 .word udd_g_ctrlreq
 1139 0038 00000000 	 .word fpga_program_setup1
 1140 003c 00000000 	 .word fpga_program_setup2
 1141 0040 00000000 	 .word blockendpoint_usage
 1142              	 .cfi_endproc
 1143              	.LFE200:
 1145              	 .section .text.ctrl_change_pwr,"ax",%progbits
 1146              	 .align 1
 1147              	 .global ctrl_change_pwr
 1148              	 .syntax unified
 1149              	 .thumb
 1150              	 .thumb_func
 1151              	 .fpu softvfp
 1153              	ctrl_change_pwr:
 1154              	.LFB201:
 268:usb.c         **** 
 269:usb.c         **** void ctrl_change_pwr(void) {
 1155              	 .loc 4 269 0
 1156              	 .cfi_startproc
 1157              	 
 1158              	 
 1159              	 
 1160 0000 80B4     	 push {r7}
 1161              	.LCFI59:
 1162              	 .cfi_def_cfa_offset 4
 1163              	 .cfi_offset 7,-4
 1164 0002 00AF     	 add r7,sp,#0
 1165              	.LCFI60:
 1166              	 .cfi_def_cfa_register 7
 270:usb.c         ****     switch(udd_g_ctrlreq.req.wValue) {
 1167              	 .loc 4 270 0
 1168 0004 184B     	 ldr r3,.L88
 1169 0006 5B88     	 ldrh r3,[r3,#2]
 1170 0008 012B     	 cmp r3,#1
 1171 000a 10D0     	 beq .L84
 1172 000c 022B     	 cmp r3,#2
 1173 000e 1AD0     	 beq .L85
 1174 0010 002B     	 cmp r3,#0
 1175 0012 00D0     	 beq .L86
 271:usb.c         ****     case 0x00: //USB power off
 272:usb.c         ****         PIOA->PIO_CODR = (1 << F_VBHOST); //disable sniff power
 273:usb.c         ****         PIOA->PIO_CODR = (1 << F_VB5V); //disable host power
 274:usb.c         ****         USB_PWR_STATE = 0;
 275:usb.c         ****         break;
 276:usb.c         ****     case 0x01: //Use 5V power
 277:usb.c         ****         PIOA->PIO_CODR = (1 << F_VBHOST); //disable sniff power
 278:usb.c         ****         PIOA->PIO_SODR = (1 << F_VB5V); //enable host power
 279:usb.c         ****         USB_PWR_STATE = 1;
 280:usb.c         ****         break;
 281:usb.c         ****     case 0x02: //Use host power
 282:usb.c         ****         PIOA->PIO_CODR = (1 << F_VB5V); //disable host power
 283:usb.c         ****         PIOA->PIO_SODR = (1 << F_VBHOST); //enable sniff power
 284:usb.c         ****         USB_PWR_STATE = 2;
 285:usb.c         ****         break;
 286:usb.c         ****     }
 287:usb.c         **** }
 1176              	 .loc 4 287 0
 1177 0014 23E0     	 b .L87
 1178              	.L86:
 272:usb.c         ****         PIOA->PIO_CODR = (1 << F_VB5V); //disable host power
 1179              	 .loc 4 272 0
 1180 0016 154B     	 ldr r3,.L88+4
 1181 0018 4FF00072 	 mov r2,#33554432
 1182 001c 5A63     	 str r2,[r3,#52]
 273:usb.c         ****         USB_PWR_STATE = 0;
 1183              	 .loc 4 273 0
 1184 001e 134B     	 ldr r3,.L88+4
 1185 0020 4FF08062 	 mov r2,#67108864
 1186 0024 5A63     	 str r2,[r3,#52]
 274:usb.c         ****         break;
 1187              	 .loc 4 274 0
 1188 0026 124B     	 ldr r3,.L88+8
 1189 0028 0022     	 movs r2,#0
 1190 002a 1A70     	 strb r2,[r3]
 275:usb.c         ****     case 0x01: //Use 5V power
 1191              	 .loc 4 275 0
 1192 002c 17E0     	 b .L83
 1193              	.L84:
 277:usb.c         ****         PIOA->PIO_SODR = (1 << F_VB5V); //enable host power
 1194              	 .loc 4 277 0
 1195 002e 0F4B     	 ldr r3,.L88+4
 1196 0030 4FF00072 	 mov r2,#33554432
 1197 0034 5A63     	 str r2,[r3,#52]
 278:usb.c         ****         USB_PWR_STATE = 1;
 1198              	 .loc 4 278 0
 1199 0036 0D4B     	 ldr r3,.L88+4
 1200 0038 4FF08062 	 mov r2,#67108864
 1201 003c 1A63     	 str r2,[r3,#48]
 279:usb.c         ****         break;
 1202              	 .loc 4 279 0
 1203 003e 0C4B     	 ldr r3,.L88+8
 1204 0040 0122     	 movs r2,#1
 1205 0042 1A70     	 strb r2,[r3]
 280:usb.c         ****     case 0x02: //Use host power
 1206              	 .loc 4 280 0
 1207 0044 0BE0     	 b .L83
 1208              	.L85:
 282:usb.c         ****         PIOA->PIO_SODR = (1 << F_VBHOST); //enable sniff power
 1209              	 .loc 4 282 0
 1210 0046 094B     	 ldr r3,.L88+4
 1211 0048 4FF08062 	 mov r2,#67108864
 1212 004c 5A63     	 str r2,[r3,#52]
 283:usb.c         ****         USB_PWR_STATE = 2;
 1213              	 .loc 4 283 0
 1214 004e 074B     	 ldr r3,.L88+4
 1215 0050 4FF00072 	 mov r2,#33554432
 1216 0054 1A63     	 str r2,[r3,#48]
 284:usb.c         ****         break;
 1217              	 .loc 4 284 0
 1218 0056 064B     	 ldr r3,.L88+8
 1219 0058 0222     	 movs r2,#2
 1220 005a 1A70     	 strb r2,[r3]
 285:usb.c         ****     }
 1221              	 .loc 4 285 0
 1222 005c 00BF     	 nop
 1223              	.L83:
 1224              	.L87:
 1225              	 .loc 4 287 0
 1226 005e 00BF     	 nop
 1227 0060 BD46     	 mov sp,r7
 1228              	.LCFI61:
 1229              	 .cfi_def_cfa_register 13
 1230              	 
 1231 0062 80BC     	 pop {r7}
 1232              	.LCFI62:
 1233              	 .cfi_restore 7
 1234              	 .cfi_def_cfa_offset 0
 1235 0064 7047     	 bx lr
 1236              	.L89:
 1237 0066 00BF     	 .align 2
 1238              	.L88:
 1239 0068 00000000 	 .word udd_g_ctrlreq
 1240 006c 000C0E40 	 .word 1074662400
 1241 0070 00000000 	 .word USB_PWR_STATE
 1242              	 .cfi_endproc
 1243              	.LFE201:
 1245              	 .section .text.main_setup_out_received,"ax",%progbits
 1246              	 .align 1
 1247              	 .global main_setup_out_received
 1248              	 .syntax unified
 1249              	 .thumb
 1250              	 .thumb_func
 1251              	 .fpu softvfp
 1253              	main_setup_out_received:
 1254              	.LFB202:
 288:usb.c         **** 
 289:usb.c         **** bool main_setup_out_received(void)
 290:usb.c         **** {
 1255              	 .loc 4 290 0
 1256              	 .cfi_startproc
 1257              	 
 1258              	 
 1259 0000 80B5     	 push {r7,lr}
 1260              	.LCFI63:
 1261              	 .cfi_def_cfa_offset 8
 1262              	 .cfi_offset 7,-8
 1263              	 .cfi_offset 14,-4
 1264 0002 00AF     	 add r7,sp,#0
 1265              	.LCFI64:
 1266              	 .cfi_def_cfa_register 7
 291:usb.c         ****     //Add buffer if used
 292:usb.c         ****     udd_g_ctrlreq.payload = ctrlbuffer;
 1267              	 .loc 4 292 0
 1268 0004 434B     	 ldr r3,.L110
 1269 0006 444A     	 ldr r2,.L110+4
 1270 0008 9A60     	 str r2,[r3,#8]
 293:usb.c         ****     udd_g_ctrlreq.payload_size = min(udd_g_ctrlreq.req.wLength,	sizeof(ctrlbuffer));
 1271              	 .loc 4 293 0
 1272 000a 424B     	 ldr r3,.L110
 1273 000c DB88     	 ldrh r3,[r3,#6]
 1274 000e 402B     	 cmp r3,#64
 1275 0010 28BF     	 it cs
 1276 0012 4023     	 movcs r3,#64
 1277 0014 9AB2     	 uxth r2,r3
 1278 0016 3F4B     	 ldr r3,.L110
 1279 0018 9A81     	 strh r2,[r3,#12]
 294:usb.c         **** 
 295:usb.c         ****     blockendpoint_usage = bep_emem;
 1280              	 .loc 4 295 0
 1281 001a 404B     	 ldr r3,.L110+8
 1282 001c 0022     	 movs r2,#0
 1283 001e 1A70     	 strb r2,[r3]
 296:usb.c         ****     static uint8_t  respbuf[128];
 297:usb.c         ****     switch(udd_g_ctrlreq.req.bRequest){
 1284              	 .loc 4 297 0
 1285 0020 3C4B     	 ldr r3,.L110
 1286 0022 5B78     	 ldrb r3,[r3,#1]
 1287 0024 103B     	 subs r3,r3,#16
 1288 0026 142B     	 cmp r3,#20
 1289 0028 67D8     	 bhi .L91
 1290 002a 01A2     	 adr r2,.L93
 1291 002c 52F823F0 	 ldr pc,[r2,r3,lsl#2]
 1292              	 .p2align 2
 1293              	.L93:
 1294 0030 85000000 	 .word .L92+1
 1295 0034 B1000000 	 .word .L94+1
 1296 0038 9B000000 	 .word .L95+1
 1297 003c C7000000 	 .word .L96+1
 1298 0040 FB000000 	 .word .L91+1
 1299 0044 FB000000 	 .word .L91+1
 1300 0048 DD000000 	 .word .L97+1
 1301 004c FB000000 	 .word .L91+1
 1302 0050 FB000000 	 .word .L91+1
 1303 0054 FB000000 	 .word .L91+1
 1304 0058 FB000000 	 .word .L91+1
 1305 005c FB000000 	 .word .L91+1
 1306 0060 FB000000 	 .word .L91+1
 1307 0064 FB000000 	 .word .L91+1
 1308 0068 FB000000 	 .word .L91+1
 1309 006c FB000000 	 .word .L91+1
 1310 0070 FB000000 	 .word .L91+1
 1311 0074 FB000000 	 .word .L91+1
 1312 0078 E7000000 	 .word .L98+1
 1313 007c FB000000 	 .word .L91+1
 1314 0080 F1000000 	 .word .L99+1
 1315              	 .p2align 1
 1316              	.L92:
 298:usb.c         ****         /* Memory Read */
 299:usb.c         ****     case REQ_MEMREAD_BULK:
 300:usb.c         ****         if (FPGA_setlock(fpga_usblocked)){
 1317              	 .loc 4 300 0
 1318 0084 0620     	 movs r0,#6
 1319 0086 264B     	 ldr r3,.L110+12
 1320 0088 9847     	 blx r3
 1321              	.LVL36:
 1322 008a 0346     	 mov r3,r0
 1323 008c 002B     	 cmp r3,#0
 1324 008e 36D0     	 beq .L106
 301:usb.c         ****             udd_g_ctrlreq.callback = ctrl_readmem_bulk;
 1325              	 .loc 4 301 0
 1326 0090 204B     	 ldr r3,.L110
 1327 0092 244A     	 ldr r2,.L110+16
 1328 0094 1A61     	 str r2,[r3,#16]
 302:usb.c         ****             return true;
 1329              	 .loc 4 302 0
 1330 0096 0123     	 movs r3,#1
 1331 0098 39E0     	 b .L101
 1332              	.L95:
 303:usb.c         ****         }
 304:usb.c         ****         break;
 305:usb.c         ****     case REQ_MEMREAD_CTRL:
 306:usb.c         ****         if (FPGA_setlock(fpga_usblocked)){
 1333              	 .loc 4 306 0
 1334 009a 0620     	 movs r0,#6
 1335 009c 204B     	 ldr r3,.L110+12
 1336 009e 9847     	 blx r3
 1337              	.LVL37:
 1338 00a0 0346     	 mov r3,r0
 1339 00a2 002B     	 cmp r3,#0
 1340 00a4 2DD0     	 beq .L107
 307:usb.c         ****             udd_g_ctrlreq.callback = ctrl_readmem_ctrl;
 1341              	 .loc 4 307 0
 1342 00a6 1B4B     	 ldr r3,.L110
 1343 00a8 1F4A     	 ldr r2,.L110+20
 1344 00aa 1A61     	 str r2,[r3,#16]
 308:usb.c         ****             return true;
 1345              	 .loc 4 308 0
 1346 00ac 0123     	 movs r3,#1
 1347 00ae 2EE0     	 b .L101
 1348              	.L94:
 309:usb.c         ****         }
 310:usb.c         ****         break;
 311:usb.c         **** 
 312:usb.c         **** 
 313:usb.c         ****         /* Memory Write */
 314:usb.c         ****     case REQ_MEMWRITE_BULK:
 315:usb.c         ****         if (FPGA_setlock(fpga_usblocked)){
 1349              	 .loc 4 315 0
 1350 00b0 0620     	 movs r0,#6
 1351 00b2 1B4B     	 ldr r3,.L110+12
 1352 00b4 9847     	 blx r3
 1353              	.LVL38:
 1354 00b6 0346     	 mov r3,r0
 1355 00b8 002B     	 cmp r3,#0
 1356 00ba 24D0     	 beq .L108
 316:usb.c         ****             udd_g_ctrlreq.callback = ctrl_writemem_bulk;
 1357              	 .loc 4 316 0
 1358 00bc 154B     	 ldr r3,.L110
 1359 00be 1B4A     	 ldr r2,.L110+24
 1360 00c0 1A61     	 str r2,[r3,#16]
 317:usb.c         ****             return true;
 1361              	 .loc 4 317 0
 1362 00c2 0123     	 movs r3,#1
 1363 00c4 23E0     	 b .L101
 1364              	.L96:
 318:usb.c         ****         }
 319:usb.c         ****         break;
 320:usb.c         **** 
 321:usb.c         **** 
 322:usb.c         ****     case REQ_MEMWRITE_CTRL:
 323:usb.c         ****         if (FPGA_setlock(fpga_usblocked)){
 1365              	 .loc 4 323 0
 1366 00c6 0620     	 movs r0,#6
 1367 00c8 154B     	 ldr r3,.L110+12
 1368 00ca 9847     	 blx r3
 1369              	.LVL39:
 1370 00cc 0346     	 mov r3,r0
 1371 00ce 002B     	 cmp r3,#0
 1372 00d0 1BD0     	 beq .L109
 324:usb.c         ****             udd_g_ctrlreq.callback = ctrl_writemem_ctrl;
 1373              	 .loc 4 324 0
 1374 00d2 104B     	 ldr r3,.L110
 1375 00d4 164A     	 ldr r2,.L110+28
 1376 00d6 1A61     	 str r2,[r3,#16]
 325:usb.c         ****             return true;
 1377              	 .loc 4 325 0
 1378 00d8 0123     	 movs r3,#1
 1379 00da 18E0     	 b .L101
 1380              	.L97:
 326:usb.c         ****         }
 327:usb.c         ****         break;
 328:usb.c         **** 
 329:usb.c         ****     case REQ_FPGA_PROGRAM:
 330:usb.c         ****         udd_g_ctrlreq.callback = ctrl_progfpga_bulk;
 1381              	 .loc 4 330 0
 1382 00dc 0D4B     	 ldr r3,.L110
 1383 00de 154A     	 ldr r2,.L110+32
 1384 00e0 1A61     	 str r2,[r3,#16]
 331:usb.c         ****         return true;
 1385              	 .loc 4 331 0
 1386 00e2 0123     	 movs r3,#1
 1387 00e4 13E0     	 b .L101
 1388              	.L98:
 332:usb.c         **** 
 333:usb.c         ****     case REQ_SAM3U_CFG:
 334:usb.c         ****         udd_g_ctrlreq.callback = ctrl_sam3ucfg_cb;
 1389              	 .loc 4 334 0
 1390 00e6 0B4B     	 ldr r3,.L110
 1391 00e8 134A     	 ldr r2,.L110+36
 1392 00ea 1A61     	 str r2,[r3,#16]
 335:usb.c         ****         return true;
 1393              	 .loc 4 335 0
 1394 00ec 0123     	 movs r3,#1
 1395 00ee 0EE0     	 b .L101
 1396              	.L99:
 336:usb.c         **** 
 337:usb.c         ****     case REQ_CHANGE_PWR:
 338:usb.c         ****         //TODO
 339:usb.c         ****         udd_g_ctrlreq.callback = ctrl_change_pwr;
 1397              	 .loc 4 339 0
 1398 00f0 084B     	 ldr r3,.L110
 1399 00f2 124A     	 ldr r2,.L110+40
 1400 00f4 1A61     	 str r2,[r3,#16]
 340:usb.c         ****         return true;
 1401              	 .loc 4 340 0
 1402 00f6 0123     	 movs r3,#1
 1403 00f8 09E0     	 b .L101
 1404              	.L91:
 341:usb.c         ****     default:
 342:usb.c         ****         return false;
 1405              	 .loc 4 342 0
 1406 00fa 0023     	 movs r3,#0
 1407 00fc 07E0     	 b .L101
 1408              	.L106:
 304:usb.c         ****     case REQ_MEMREAD_CTRL:
 1409              	 .loc 4 304 0
 1410 00fe 00BF     	 nop
 1411 0100 04E0     	 b .L102
 1412              	.L107:
 310:usb.c         **** 
 1413              	 .loc 4 310 0
 1414 0102 00BF     	 nop
 1415 0104 02E0     	 b .L102
 1416              	.L108:
 319:usb.c         **** 
 1417              	 .loc 4 319 0
 1418 0106 00BF     	 nop
 1419 0108 00E0     	 b .L102
 1420              	.L109:
 327:usb.c         **** 
 1421              	 .loc 4 327 0
 1422 010a 00BF     	 nop
 1423              	.L102:
 343:usb.c         ****     }
 344:usb.c         **** 
 345:usb.c         ****     return false;
 1424              	 .loc 4 345 0
 1425 010c 0023     	 movs r3,#0
 1426              	.L101:
 346:usb.c         **** }
 1427              	 .loc 4 346 0
 1428 010e 1846     	 mov r0,r3
 1429 0110 80BD     	 pop {r7,pc}
 1430              	.L111:
 1431 0112 00BF     	 .align 2
 1432              	.L110:
 1433 0114 00000000 	 .word udd_g_ctrlreq
 1434 0118 00000000 	 .word ctrlbuffer
 1435 011c 00000000 	 .word blockendpoint_usage
 1436 0120 00000000 	 .word FPGA_setlock
 1437 0124 00000000 	 .word ctrl_readmem_bulk
 1438 0128 00000000 	 .word ctrl_readmem_ctrl
 1439 012c 00000000 	 .word ctrl_writemem_bulk
 1440 0130 00000000 	 .word ctrl_writemem_ctrl
 1441 0134 00000000 	 .word ctrl_progfpga_bulk
 1442 0138 00000000 	 .word ctrl_sam3ucfg_cb
 1443 013c 00000000 	 .word ctrl_change_pwr
 1444              	 .cfi_endproc
 1445              	.LFE202:
 1447              	 .section .text.main_setup_in_received,"ax",%progbits
 1448              	 .align 1
 1449              	 .global main_setup_in_received
 1450              	 .syntax unified
 1451              	 .thumb
 1452              	 .thumb_func
 1453              	 .fpu softvfp
 1455              	main_setup_in_received:
 1456              	.LFB203:
 347:usb.c         **** 
 348:usb.c         **** 
 349:usb.c         **** /*
 350:usb.c         ****   udd_g_ctrlreq.req.bRequest == 0
 351:usb.c         ****   && (udd_g_ctrlreq.req.bRequest == 0)
 352:usb.c         ****   && (0 != udd_g_ctrlreq.req.wLength)
 353:usb.c         **** */
 354:usb.c         **** 
 355:usb.c         **** bool main_setup_in_received(void)
 356:usb.c         **** {
 1457              	 .loc 4 356 0
 1458              	 .cfi_startproc
 1459              	 
 1460              	 
 1461 0000 80B5     	 push {r7,lr}
 1462              	.LCFI65:
 1463              	 .cfi_def_cfa_offset 8
 1464              	 .cfi_offset 7,-8
 1465              	 .cfi_offset 14,-4
 1466 0002 00AF     	 add r7,sp,#0
 1467              	.LCFI66:
 1468              	 .cfi_def_cfa_register 7
 357:usb.c         ****     /*
 358:usb.c         ****       udd_g_ctrlreq.payload = main_buf_loopback;
 359:usb.c         ****       udd_g_ctrlreq.payload_size =
 360:usb.c         ****       min( udd_g_ctrlreq.req.wLength,
 361:usb.c         ****       sizeof(main_buf_loopback) );
 362:usb.c         ****     */
 363:usb.c         **** 
 364:usb.c         ****     static uint8_t  respbuf[64];
 365:usb.c         ****     unsigned int cnt;
 366:usb.c         **** 
 367:usb.c         ****     switch(udd_g_ctrlreq.req.bRequest){
 1469              	 .loc 4 367 0
 1470 0004 274B     	 ldr r3,.L120
 1471 0006 5B78     	 ldrb r3,[r3,#1]
 1472 0008 152B     	 cmp r3,#21
 1473 000a 2AD0     	 beq .L114
 1474 000c 172B     	 cmp r3,#23
 1475 000e 17D0     	 beq .L115
 1476 0010 122B     	 cmp r3,#18
 1477 0012 43D1     	 bne .L119
 368:usb.c         ****     case REQ_MEMREAD_CTRL:
 369:usb.c         ****         udd_g_ctrlreq.payload = ctrlmemread_buf;
 1478              	 .loc 4 369 0
 1479 0014 244B     	 ldr r3,.L120+4
 1480 0016 1B68     	 ldr r3,[r3]
 1481 0018 224A     	 ldr r2,.L120
 1482 001a 9360     	 str r3,[r2,#8]
 370:usb.c         ****         udd_g_ctrlreq.payload_size = ctrlmemread_size;
 1483              	 .loc 4 370 0
 1484 001c 234B     	 ldr r3,.L120+8
 1485 001e 1B68     	 ldr r3,[r3]
 1486 0020 9AB2     	 uxth r2,r3
 1487 0022 204B     	 ldr r3,.L120
 1488 0024 9A81     	 strh r2,[r3,#12]
 371:usb.c         ****         ctrlmemread_size = 0;
 1489              	 .loc 4 371 0
 1490 0026 214B     	 ldr r3,.L120+8
 1491 0028 0022     	 movs r2,#0
 1492 002a 1A60     	 str r2,[r3]
 372:usb.c         **** 
 373:usb.c         ****         if (FPGA_lockstatus() == fpga_ctrlmem){
 1493              	 .loc 4 373 0
 1494 002c 204B     	 ldr r3,.L120+12
 1495 002e 9847     	 blx r3
 1496              	.LVL40:
 1497 0030 0346     	 mov r3,r0
 1498 0032 052B     	 cmp r3,#5
 1499 0034 02D1     	 bne .L117
 374:usb.c         ****             FPGA_setlock(fpga_unlocked);
 1500              	 .loc 4 374 0
 1501 0036 0020     	 movs r0,#0
 1502 0038 1E4B     	 ldr r3,.L120+16
 1503 003a 9847     	 blx r3
 1504              	.LVL41:
 1505              	.L117:
 375:usb.c         ****         }
 376:usb.c         **** 
 377:usb.c         ****         return true;
 1506              	 .loc 4 377 0
 1507 003c 0123     	 movs r3,#1
 1508 003e 2EE0     	 b .L118
 1509              	.L115:
 378:usb.c         ****         break;
 379:usb.c         **** 
 380:usb.c         ****     case REQ_FW_VERSION:
 381:usb.c         ****         respbuf[0] = FW_VER_MAJOR;
 1510              	 .loc 4 381 0
 1511 0040 1D4B     	 ldr r3,.L120+20
 1512 0042 0022     	 movs r2,#0
 1513 0044 1A70     	 strb r2,[r3]
 382:usb.c         ****         respbuf[1] = FW_VER_MINOR;
 1514              	 .loc 4 382 0
 1515 0046 1C4B     	 ldr r3,.L120+20
 1516 0048 0A22     	 movs r2,#10
 1517 004a 5A70     	 strb r2,[r3,#1]
 383:usb.c         ****         respbuf[2] = FW_VER_DEBUG;
 1518              	 .loc 4 383 0
 1519 004c 1A4B     	 ldr r3,.L120+20
 1520 004e 0022     	 movs r2,#0
 1521 0050 9A70     	 strb r2,[r3,#2]
 384:usb.c         ****         udd_g_ctrlreq.payload = respbuf;
 1522              	 .loc 4 384 0
 1523 0052 144B     	 ldr r3,.L120
 1524 0054 184A     	 ldr r2,.L120+20
 1525 0056 9A60     	 str r2,[r3,#8]
 385:usb.c         ****         udd_g_ctrlreq.payload_size = 3;
 1526              	 .loc 4 385 0
 1527 0058 124B     	 ldr r3,.L120
 1528 005a 0322     	 movs r2,#3
 1529 005c 9A81     	 strh r2,[r3,#12]
 386:usb.c         ****         return true;
 1530              	 .loc 4 386 0
 1531 005e 0123     	 movs r3,#1
 1532 0060 1DE0     	 b .L118
 1533              	.L114:
 387:usb.c         ****         break;
 388:usb.c         **** 
 389:usb.c         ****     case REQ_FPGA_STATUS:
 390:usb.c         ****         respbuf[0] = FPGA_ISDONE();
 1534              	 .loc 4 390 0
 1535 0062 1320     	 movs r0,#19
 1536 0064 154B     	 ldr r3,.L120+24
 1537 0066 9847     	 blx r3
 1538              	.LVL42:
 1539 0068 0346     	 mov r3,r0
 1540 006a 002B     	 cmp r3,#0
 1541 006c 14BF     	 ite ne
 1542 006e 0123     	 movne r3,#1
 1543 0070 0023     	 moveq r3,#0
 1544 0072 DBB2     	 uxtb r3,r3
 1545 0074 1A46     	 mov r2,r3
 1546 0076 104B     	 ldr r3,.L120+20
 1547 0078 1A70     	 strb r2,[r3]
 391:usb.c         ****         respbuf[1] = 0;
 1548              	 .loc 4 391 0
 1549 007a 0F4B     	 ldr r3,.L120+20
 1550 007c 0022     	 movs r2,#0
 1551 007e 5A70     	 strb r2,[r3,#1]
 392:usb.c         ****         respbuf[2] = 0;
 1552              	 .loc 4 392 0
 1553 0080 0D4B     	 ldr r3,.L120+20
 1554 0082 0022     	 movs r2,#0
 1555 0084 9A70     	 strb r2,[r3,#2]
 393:usb.c         ****         respbuf[3] = 0;
 1556              	 .loc 4 393 0
 1557 0086 0C4B     	 ldr r3,.L120+20
 1558 0088 0022     	 movs r2,#0
 1559 008a DA70     	 strb r2,[r3,#3]
 394:usb.c         ****         udd_g_ctrlreq.payload = respbuf;
 1560              	 .loc 4 394 0
 1561 008c 054B     	 ldr r3,.L120
 1562 008e 0A4A     	 ldr r2,.L120+20
 1563 0090 9A60     	 str r2,[r3,#8]
 395:usb.c         ****         udd_g_ctrlreq.payload_size = 4;
 1564              	 .loc 4 395 0
 1565 0092 044B     	 ldr r3,.L120
 1566 0094 0422     	 movs r2,#4
 1567 0096 9A81     	 strh r2,[r3,#12]
 396:usb.c         ****         return true;
 1568              	 .loc 4 396 0
 1569 0098 0123     	 movs r3,#1
 1570 009a 00E0     	 b .L118
 1571              	.L119:
 397:usb.c         ****         break;
 398:usb.c         ****     default:
 399:usb.c         ****         return false;
 1572              	 .loc 4 399 0
 1573 009c 0023     	 movs r3,#0
 1574              	.L118:
 400:usb.c         ****     }
 401:usb.c         ****     return false;
 402:usb.c         **** }
 1575              	 .loc 4 402 0
 1576 009e 1846     	 mov r0,r3
 1577 00a0 80BD     	 pop {r7,pc}
 1578              	.L121:
 1579 00a2 00BF     	 .align 2
 1580              	.L120:
 1581 00a4 00000000 	 .word udd_g_ctrlreq
 1582 00a8 00000000 	 .word ctrlmemread_buf
 1583 00ac 00000000 	 .word ctrlmemread_size
 1584 00b0 00000000 	 .word FPGA_lockstatus
 1585 00b4 00000000 	 .word FPGA_setlock
 1586 00b8 00000000 	 .word respbuf.9228
 1587 00bc 00000000 	 .word pio_get_pin_value
 1588              	 .cfi_endproc
 1589              	.LFE203:
 1591              	 .section .text.main_vendor_bulk_in_received,"ax",%progbits
 1592              	 .align 1
 1593              	 .global main_vendor_bulk_in_received
 1594              	 .syntax unified
 1595              	 .thumb
 1596              	 .thumb_func
 1597              	 .fpu softvfp
 1599              	main_vendor_bulk_in_received:
 1600              	.LFB204:
 403:usb.c         **** 
 404:usb.c         **** void main_vendor_bulk_in_received(udd_ep_status_t status,
 405:usb.c         ****                                   iram_size_t nb_transfered, udd_ep_id_t ep)
 406:usb.c         **** {
 1601              	 .loc 4 406 0
 1602              	 .cfi_startproc
 1603              	 
 1604              	 
 1605 0000 80B5     	 push {r7,lr}
 1606              	.LCFI67:
 1607              	 .cfi_def_cfa_offset 8
 1608              	 .cfi_offset 7,-8
 1609              	 .cfi_offset 14,-4
 1610 0002 82B0     	 sub sp,sp,#8
 1611              	.LCFI68:
 1612              	 .cfi_def_cfa_offset 16
 1613 0004 00AF     	 add r7,sp,#0
 1614              	.LCFI69:
 1615              	 .cfi_def_cfa_register 7
 1616 0006 0346     	 mov r3,r0
 1617 0008 3960     	 str r1,[r7]
 1618 000a FB71     	 strb r3,[r7,#7]
 1619 000c 1346     	 mov r3,r2
 1620 000e BB71     	 strb r3,[r7,#6]
 407:usb.c         ****     UNUSED(nb_transfered);
 408:usb.c         ****     UNUSED(ep);
 409:usb.c         ****     if (UDD_EP_TRANSFER_OK != status) {
 1621              	 .loc 4 409 0
 1622 0010 FB79     	 ldrb r3,[r7,#7]
 1623 0012 002B     	 cmp r3,#0
 1624 0014 08D1     	 bne .L125
 410:usb.c         ****         return; // Transfer aborted/error
 411:usb.c         ****     }
 412:usb.c         **** 
 413:usb.c         ****     if (FPGA_lockstatus() == fpga_blockin){
 1625              	 .loc 4 413 0
 1626 0016 064B     	 ldr r3,.L126
 1627 0018 9847     	 blx r3
 1628              	.LVL43:
 1629 001a 0346     	 mov r3,r0
 1630 001c 022B     	 cmp r3,#2
 1631 001e 04D1     	 bne .L122
 414:usb.c         ****         FPGA_setlock(fpga_unlocked);
 1632              	 .loc 4 414 0
 1633 0020 0020     	 movs r0,#0
 1634 0022 044B     	 ldr r3,.L126+4
 1635 0024 9847     	 blx r3
 1636              	.LVL44:
 1637 0026 00E0     	 b .L122
 1638              	.L125:
 410:usb.c         ****         return; // Transfer aborted/error
 1639              	 .loc 4 410 0
 1640 0028 00BF     	 nop
 1641              	.L122:
 415:usb.c         ****     }
 416:usb.c         **** }
 1642              	 .loc 4 416 0
 1643 002a 0837     	 adds r7,r7,#8
 1644              	.LCFI70:
 1645              	 .cfi_def_cfa_offset 8
 1646 002c BD46     	 mov sp,r7
 1647              	.LCFI71:
 1648              	 .cfi_def_cfa_register 13
 1649              	 
 1650 002e 80BD     	 pop {r7,pc}
 1651              	.L127:
 1652              	 .align 2
 1653              	.L126:
 1654 0030 00000000 	 .word FPGA_lockstatus
 1655 0034 00000000 	 .word FPGA_setlock
 1656              	 .cfi_endproc
 1657              	.LFE204:
 1659              	 .section .text.main_vendor_bulk_out_received,"ax",%progbits
 1660              	 .align 1
 1661              	 .global main_vendor_bulk_out_received
 1662              	 .syntax unified
 1663              	 .thumb
 1664              	 .thumb_func
 1665              	 .fpu softvfp
 1667              	main_vendor_bulk_out_received:
 1668              	.LFB205:
 417:usb.c         **** 
 418:usb.c         **** void main_vendor_bulk_out_received(udd_ep_status_t status,
 419:usb.c         ****                                    iram_size_t nb_transfered, udd_ep_id_t ep)
 420:usb.c         **** {
 1669              	 .loc 4 420 0
 1670              	 .cfi_startproc
 1671              	 
 1672              	 
 1673 0000 80B5     	 push {r7,lr}
 1674              	.LCFI72:
 1675              	 .cfi_def_cfa_offset 8
 1676              	 .cfi_offset 7,-8
 1677              	 .cfi_offset 14,-4
 1678 0002 84B0     	 sub sp,sp,#16
 1679              	.LCFI73:
 1680              	 .cfi_def_cfa_offset 24
 1681 0004 00AF     	 add r7,sp,#0
 1682              	.LCFI74:
 1683              	 .cfi_def_cfa_register 7
 1684 0006 0346     	 mov r3,r0
 1685 0008 3960     	 str r1,[r7]
 1686 000a FB71     	 strb r3,[r7,#7]
 1687 000c 1346     	 mov r3,r2
 1688 000e BB71     	 strb r3,[r7,#6]
 421:usb.c         ****     UNUSED(ep);
 422:usb.c         ****     if (UDD_EP_TRANSFER_OK != status) {
 1689              	 .loc 4 422 0
 1690 0010 FB79     	 ldrb r3,[r7,#7]
 1691 0012 002B     	 cmp r3,#0
 1692 0014 06D0     	 beq .L129
 423:usb.c         ****         // Transfer aborted
 424:usb.c         **** 
 425:usb.c         ****         //restart
 426:usb.c         ****         udi_vendor_bulk_out_run(
 1693              	 .loc 4 426 0
 1694 0016 224A     	 ldr r2,.L138
 1695 0018 4FF48061 	 mov r1,#1024
 1696 001c 2148     	 ldr r0,.L138+4
 1697 001e 224B     	 ldr r3,.L138+8
 1698 0020 9847     	 blx r3
 1699              	.LVL45:
 427:usb.c         ****             main_buf_loopback,
 428:usb.c         ****             sizeof(main_buf_loopback),
 429:usb.c         ****             main_vendor_bulk_out_received);
 430:usb.c         **** 
 431:usb.c         ****         return;
 1700              	 .loc 4 431 0
 1701 0022 39E0     	 b .L128
 1702              	.L129:
 432:usb.c         ****     }
 433:usb.c         **** 
 434:usb.c         ****     if (blockendpoint_usage == bep_emem){
 1703              	 .loc 4 434 0
 1704 0024 214B     	 ldr r3,.L138+12
 1705 0026 1B78     	 ldrb r3,[r3]
 1706 0028 002B     	 cmp r3,#0
 1707 002a 1AD1     	 bne .L131
 1708              	.LBB3:
 435:usb.c         ****         for(unsigned int i = 0; i < nb_transfered; i++){
 1709              	 .loc 4 435 0
 1710 002c 0023     	 movs r3,#0
 1711 002e FB60     	 str r3,[r7,#12]
 1712 0030 0BE0     	 b .L132
 1713              	.L133:
 436:usb.c         ****             xram[i] = main_buf_loopback[i];
 1714              	 .loc 4 436 0 discriminator 3
 1715 0032 1F4B     	 ldr r3,.L138+16
 1716 0034 1A68     	 ldr r2,[r3]
 1717 0036 FB68     	 ldr r3,[r7,#12]
 1718 0038 1344     	 add r3,r3,r2
 1719 003a 1A49     	 ldr r1,.L138+4
 1720 003c FA68     	 ldr r2,[r7,#12]
 1721 003e 0A44     	 add r2,r2,r1
 1722 0040 1278     	 ldrb r2,[r2]
 1723 0042 1A70     	 strb r2,[r3]
 435:usb.c         ****         for(unsigned int i = 0; i < nb_transfered; i++){
 1724              	 .loc 4 435 0 discriminator 3
 1725 0044 FB68     	 ldr r3,[r7,#12]
 1726 0046 0133     	 adds r3,r3,#1
 1727 0048 FB60     	 str r3,[r7,#12]
 1728              	.L132:
 435:usb.c         ****         for(unsigned int i = 0; i < nb_transfered; i++){
 1729              	 .loc 4 435 0 is_stmt 0 discriminator 1
 1730 004a FA68     	 ldr r2,[r7,#12]
 1731 004c 3B68     	 ldr r3,[r7]
 1732 004e 9A42     	 cmp r2,r3
 1733 0050 EFD3     	 bcc .L133
 1734              	.LBE3:
 437:usb.c         ****         }
 438:usb.c         **** 
 439:usb.c         ****         if (FPGA_lockstatus() == fpga_blockout){
 1735              	 .loc 4 439 0 is_stmt 1
 1736 0052 184B     	 ldr r3,.L138+20
 1737 0054 9847     	 blx r3
 1738              	.LVL46:
 1739 0056 0346     	 mov r3,r0
 1740 0058 042B     	 cmp r3,#4
 1741 005a 17D1     	 bne .L135
 440:usb.c         ****             FPGA_releaselock();
 1742              	 .loc 4 440 0
 1743 005c 164B     	 ldr r3,.L138+24
 1744 005e 9847     	 blx r3
 1745              	.LVL47:
 1746 0060 14E0     	 b .L135
 1747              	.L131:
 441:usb.c         ****         }
 442:usb.c         ****     } else if (blockendpoint_usage == bep_fpgabitstream){
 1748              	 .loc 4 442 0
 1749 0062 124B     	 ldr r3,.L138+12
 1750 0064 1B78     	 ldrb r3,[r3]
 1751 0066 0A2B     	 cmp r3,#10
 1752 0068 10D1     	 bne .L135
 1753              	.LBB4:
 443:usb.c         **** 
 444:usb.c         ****         /* Send byte to FPGA - this could eventually be done via SPI */
 445:usb.c         ****         // TODO: is this dangerous?
 446:usb.c         ****         for(unsigned int i = 0; i < nb_transfered; i++){
 1754              	 .loc 4 446 0
 1755 006a 0023     	 movs r3,#0
 1756 006c BB60     	 str r3,[r7,#8]
 1757 006e 09E0     	 b .L136
 1758              	.L137:
 447:usb.c         ****             fpga_program_sendbyte(main_buf_loopback[i]);
 1759              	 .loc 4 447 0 discriminator 3
 1760 0070 0C4A     	 ldr r2,.L138+4
 1761 0072 BB68     	 ldr r3,[r7,#8]
 1762 0074 1344     	 add r3,r3,r2
 1763 0076 1B78     	 ldrb r3,[r3]
 1764 0078 1846     	 mov r0,r3
 1765 007a 104B     	 ldr r3,.L138+28
 1766 007c 9847     	 blx r3
 1767              	.LVL48:
 446:usb.c         ****             fpga_program_sendbyte(main_buf_loopback[i]);
 1768              	 .loc 4 446 0 discriminator 3
 1769 007e BB68     	 ldr r3,[r7,#8]
 1770 0080 0133     	 adds r3,r3,#1
 1771 0082 BB60     	 str r3,[r7,#8]
 1772              	.L136:
 446:usb.c         ****             fpga_program_sendbyte(main_buf_loopback[i]);
 1773              	 .loc 4 446 0 is_stmt 0 discriminator 1
 1774 0084 BA68     	 ldr r2,[r7,#8]
 1775 0086 3B68     	 ldr r3,[r7]
 1776 0088 9A42     	 cmp r2,r3
 1777 008a F1D3     	 bcc .L137
 1778              	.L135:
 1779              	.LBE4:
 448:usb.c         ****         }
 449:usb.c         **** #if FPGA_USE_BITBANG
 450:usb.c         ****         FPGA_CCLK_LOW();
 451:usb.c         **** #endif
 452:usb.c         ****     }
 453:usb.c         **** 
 454:usb.c         ****     //printf("BULKOUT: %d bytes\n", (int)nb_transfered);
 455:usb.c         **** 
 456:usb.c         ****     udi_vendor_bulk_out_run(
 1780              	 .loc 4 456 0 is_stmt 1
 1781 008c 044A     	 ldr r2,.L138
 1782 008e 4FF48061 	 mov r1,#1024
 1783 0092 0448     	 ldr r0,.L138+4
 1784 0094 044B     	 ldr r3,.L138+8
 1785 0096 9847     	 blx r3
 1786              	.LVL49:
 1787              	.L128:
 457:usb.c         ****         main_buf_loopback,
 458:usb.c         ****         sizeof(main_buf_loopback),
 459:usb.c         ****         main_vendor_bulk_out_received);
 460:usb.c         **** }
 1788              	 .loc 4 460 0
 1789 0098 1037     	 adds r7,r7,#16
 1790              	.LCFI75:
 1791              	 .cfi_def_cfa_offset 8
 1792 009a BD46     	 mov sp,r7
 1793              	.LCFI76:
 1794              	 .cfi_def_cfa_register 13
 1795              	 
 1796 009c 80BD     	 pop {r7,pc}
 1797              	.L139:
 1798 009e 00BF     	 .align 2
 1799              	.L138:
 1800 00a0 00000000 	 .word main_vendor_bulk_out_received
 1801 00a4 00000000 	 .word main_buf_loopback
 1802 00a8 00000000 	 .word udi_vendor_bulk_out_run
 1803 00ac 00000000 	 .word blockendpoint_usage
 1804 00b0 00000000 	 .word xram
 1805 00b4 00000000 	 .word FPGA_lockstatus
 1806 00b8 00000000 	 .word FPGA_releaselock
 1807 00bc 00000000 	 .word fpga_program_sendbyte
 1808              	 .cfi_endproc
 1809              	.LFE205:
 1811              	 .section .bss.respbuf.9215,"aw",%nobits
 1812              	 .align 2
 1815              	respbuf.9215:
 1816 0000 00000000 	 .space 128
 1816      00000000 
 1816      00000000 
 1816      00000000 
 1816      00000000 
 1817              	 .section .bss.respbuf.9228,"aw",%nobits
 1818              	 .align 2
 1821              	respbuf.9228:
 1822 0000 00000000 	 .space 64
 1822      00000000 
 1822      00000000 
 1822      00000000 
 1822      00000000 
 1823              	 .text
 1824              	.Letext0:
 1825              	 .file 5 "c:\\program files (x86)\\gnu tools arm embedded\\7 2018-q2-update\\arm-none-eabi\\include\\machine\\_default_types.h"
 1826              	 .file 6 "c:\\program files (x86)\\gnu tools arm embedded\\7 2018-q2-update\\arm-none-eabi\\include\\sys\\_stdint.h"
 1827              	 .file 7 ".././hal/sam3u1c/inc/sam3u1c.h"
 1828              	 .file 8 ".././hal/sam3u1c/inc/core_cm3.h"
 1829              	 .file 9 ".././hal/sam3u1c/inc/system_sam3u.h"
 1830              	 .file 10 ".././hal/sam3u1c/inc/component/component_efc.h"
 1831              	 .file 11 ".././hal/sam3u1c/inc/component/component_pio.h"
 1832              	 .file 12 ".././hal/sam3u1c/inc/component/component_rstc.h"
 1833              	 .file 13 "c:\\program files (x86)\\gnu tools arm embedded\\7 2018-q2-update\\arm-none-eabi\\include\\sys\\lock.h"
 1834              	 .file 14 "c:\\program files (x86)\\gnu tools arm embedded\\7 2018-q2-update\\arm-none-eabi\\include\\sys\\_types.h"
 1835              	 .file 15 "c:\\program files (x86)\\gnu tools arm embedded\\7 2018-q2-update\\lib\\gcc\\arm-none-eabi\\7.3.1\\include\\stddef.h"
 1836              	 .file 16 "c:\\program files (x86)\\gnu tools arm embedded\\7 2018-q2-update\\arm-none-eabi\\include\\sys\\reent.h"
 1837              	 .file 17 "c:\\program files (x86)\\gnu tools arm embedded\\7 2018-q2-update\\arm-none-eabi\\include\\stdlib.h"
 1838              	 .file 18 ".././hal/sam3u1c/inc/interrupt/interrupt_sam_nvic.h"
 1839              	 .file 19 ".././hal/sam3u1c/inc/compiler.h"
 1840              	 .file 20 ".././hal/sam3u1c/inc/sam/sleepmgr.h"
 1841              	 .file 21 "./conf_usb.h"
 1842              	 .file 22 ".././hal/sam3u1c/inc/usb_protocol.h"
 1843              	 .file 23 ".././hal/sam3u1c/inc/udi.h"
 1844              	 .file 24 ".././hal/sam3u1c/inc/udc_desc.h"
 1845              	 .file 25 ".././hal/sam3u1c/inc/udd.h"
 1846              	 .file 26 ".././hal/sam3u1c/inc/udi_vendor.h"
 1847              	 .file 27 ".././hal/sam3u1c/inc/stdio_serial.h"
 1848              	 .file 28 ".././hal/sam3u1c/inc/usb.h"
 1849              	 .file 29 "usb_xmem.h"
 1850              	 .file 30 "fpga_program.h"
 1851              	 .file 31 ".././hal/sam3u1c/inc/pio.h"
 1852              	 .file 32 ".././hal/sam3u1c/inc/pmc.h"
 1853              	 .file 33 ".././hal/sam3u1c/inc/efc.h"