   1              	 .cpu cortex-m3
   2              	 .eabi_attribute 20,1
   3              	 .eabi_attribute 21,1
   4              	 .eabi_attribute 23,3
   5              	 .eabi_attribute 24,1
   6              	 .eabi_attribute 25,1
   7              	 .eabi_attribute 26,1
   8              	 .eabi_attribute 30,6
   9              	 .eabi_attribute 34,1
  10              	 .eabi_attribute 18,4
  11              	 .file "write.c"
  12              	 .text
  13              	.Ltext0:
  14              	 .cfi_sections .debug_frame
  15              	 .section .bss.cpu_irq_critical_section_counter,"aw",%nobits
  16              	 .align 2
  19              	cpu_irq_critical_section_counter:
  20 0000 00000000 	 .space 4
  21              	 .section .bss.cpu_irq_prev_interrupt_state,"aw",%nobits
  24              	cpu_irq_prev_interrupt_state:
  25 0000 00       	 .space 1
  26              	 .comm stdio_base,4,4
  27              	 .comm ptr_put,4,4
  28              	 .section .text._write,"ax",%progbits
  29              	 .align 1
  30              	 .weak _write
  31              	 .arch armv7-m
  32              	 .syntax unified
  33              	 .thumb
  34              	 .thumb_func
  35              	 .fpu softvfp
  37              	_write:
  38              	.LFB69:
  39              	 .file 1 ".././hal/sam3u1c/write.c"
   1:.././hal/sam3u1c/write.c **** /**
   2:.././hal/sam3u1c/write.c ****  * \file
   3:.././hal/sam3u1c/write.c ****  *
   4:.././hal/sam3u1c/write.c ****  * \brief System-specific implementation of the \ref _write function used by
   5:.././hal/sam3u1c/write.c ****  *         the standard library.
   6:.././hal/sam3u1c/write.c ****  *
   7:.././hal/sam3u1c/write.c ****  * Copyright (c) 2009-2013 Atmel Corporation. All rights reserved.
   8:.././hal/sam3u1c/write.c ****  *
   9:.././hal/sam3u1c/write.c ****  * \asf_license_start
  10:.././hal/sam3u1c/write.c ****  *
  11:.././hal/sam3u1c/write.c ****  * \page License
  12:.././hal/sam3u1c/write.c ****  *
  13:.././hal/sam3u1c/write.c ****  * Redistribution and use in source and binary forms, with or without
  14:.././hal/sam3u1c/write.c ****  * modification, are permitted provided that the following conditions are met:
  15:.././hal/sam3u1c/write.c ****  *
  16:.././hal/sam3u1c/write.c ****  * 1. Redistributions of source code must retain the above copyright notice,
  17:.././hal/sam3u1c/write.c ****  *    this list of conditions and the following disclaimer.
  18:.././hal/sam3u1c/write.c ****  *
  19:.././hal/sam3u1c/write.c ****  * 2. Redistributions in binary form must reproduce the above copyright notice,
  20:.././hal/sam3u1c/write.c ****  *    this list of conditions and the following disclaimer in the documentation
  21:.././hal/sam3u1c/write.c ****  *    and/or other materials provided with the distribution.
  22:.././hal/sam3u1c/write.c ****  *
  23:.././hal/sam3u1c/write.c ****  * 3. The name of Atmel may not be used to endorse or promote products derived
  24:.././hal/sam3u1c/write.c ****  *    from this software without specific prior written permission.
  25:.././hal/sam3u1c/write.c ****  *
  26:.././hal/sam3u1c/write.c ****  * 4. This software may only be redistributed and used in connection with an
  27:.././hal/sam3u1c/write.c ****  *    Atmel microcontroller product.
  28:.././hal/sam3u1c/write.c ****  *
  29:.././hal/sam3u1c/write.c ****  * THIS SOFTWARE IS PROVIDED BY ATMEL "AS IS" AND ANY EXPRESS OR IMPLIED
  30:.././hal/sam3u1c/write.c ****  * WARRANTIES, INCLUDING, BUT NOT LIMITED TO, THE IMPLIED WARRANTIES OF
  31:.././hal/sam3u1c/write.c ****  * MERCHANTABILITY, FITNESS FOR A PARTICULAR PURPOSE AND NON-INFRINGEMENT ARE
  32:.././hal/sam3u1c/write.c ****  * EXPRESSLY AND SPECIFICALLY DISCLAIMED. IN NO EVENT SHALL ATMEL BE LIABLE FOR
  33:.././hal/sam3u1c/write.c ****  * ANY DIRECT, INDIRECT, INCIDENTAL, SPECIAL, EXEMPLARY, OR CONSEQUENTIAL
  34:.././hal/sam3u1c/write.c ****  * DAMAGES (INCLUDING, BUT NOT LIMITED TO, PROCUREMENT OF SUBSTITUTE GOODS
  35:.././hal/sam3u1c/write.c ****  * OR SERVICES; LOSS OF USE, DATA, OR PROFITS; OR BUSINESS INTERRUPTION)
  36:.././hal/sam3u1c/write.c ****  * HOWEVER CAUSED AND ON ANY THEORY OF LIABILITY, WHETHER IN CONTRACT,
  37:.././hal/sam3u1c/write.c ****  * STRICT LIABILITY, OR TORT (INCLUDING NEGLIGENCE OR OTHERWISE) ARISING IN
  38:.././hal/sam3u1c/write.c ****  * ANY WAY OUT OF THE USE OF THIS SOFTWARE, EVEN IF ADVISED OF THE
  39:.././hal/sam3u1c/write.c ****  * POSSIBILITY OF SUCH DAMAGE.
  40:.././hal/sam3u1c/write.c ****  *
  41:.././hal/sam3u1c/write.c ****  * \asf_license_stop
  42:.././hal/sam3u1c/write.c ****  *
  43:.././hal/sam3u1c/write.c ****  */
  44:.././hal/sam3u1c/write.c **** 
  45:.././hal/sam3u1c/write.c **** #include "compiler.h"
  46:.././hal/sam3u1c/write.c **** 
  47:.././hal/sam3u1c/write.c **** /**
  48:.././hal/sam3u1c/write.c ****  * \addtogroup group_common_utils_stdio
  49:.././hal/sam3u1c/write.c ****  *
  50:.././hal/sam3u1c/write.c ****  * \{
  51:.././hal/sam3u1c/write.c ****  */
  52:.././hal/sam3u1c/write.c **** 
  53:.././hal/sam3u1c/write.c **** volatile void *volatile stdio_base;
  54:.././hal/sam3u1c/write.c **** int (*ptr_put)(void volatile*, char);
  55:.././hal/sam3u1c/write.c **** 
  56:.././hal/sam3u1c/write.c **** 
  57:.././hal/sam3u1c/write.c **** #if ( defined(__ICCAVR32__) || defined(__ICCAVR__) || defined(__ICCARM__))
  58:.././hal/sam3u1c/write.c **** 
  59:.././hal/sam3u1c/write.c **** #include <yfuns.h>
  60:.././hal/sam3u1c/write.c **** 
  61:.././hal/sam3u1c/write.c **** _STD_BEGIN
  62:.././hal/sam3u1c/write.c **** 
  63:.././hal/sam3u1c/write.c **** #pragma module_name = "?__write"
  64:.././hal/sam3u1c/write.c **** 
  65:.././hal/sam3u1c/write.c **** /*! \brief Writes a number of bytes, at most \a size, from the memory area
  66:.././hal/sam3u1c/write.c ****  *         pointed to by \a buffer.
  67:.././hal/sam3u1c/write.c ****  *
  68:.././hal/sam3u1c/write.c ****  * If \a buffer is zero then \ref __write performs flushing of internal buffers,
  69:.././hal/sam3u1c/write.c ****  * if any. In this case, \a handle can be \c -1 to indicate that all handles
  70:.././hal/sam3u1c/write.c ****  * should be flushed.
  71:.././hal/sam3u1c/write.c ****  *
  72:.././hal/sam3u1c/write.c ****  * \param handle File handle to write to.
  73:.././hal/sam3u1c/write.c ****  * \param buffer Pointer to buffer to read bytes to write from.
  74:.././hal/sam3u1c/write.c ****  * \param size Number of bytes to write.
  75:.././hal/sam3u1c/write.c ****  *
  76:.././hal/sam3u1c/write.c ****  * \return The number of bytes written, or \c _LLIO_ERROR on failure.
  77:.././hal/sam3u1c/write.c ****  */
  78:.././hal/sam3u1c/write.c **** size_t __write(int handle, const unsigned char *buffer, size_t size)
  79:.././hal/sam3u1c/write.c **** {
  80:.././hal/sam3u1c/write.c **** 	size_t nChars = 0;
  81:.././hal/sam3u1c/write.c **** 
  82:.././hal/sam3u1c/write.c **** 	if (buffer == 0) {
  83:.././hal/sam3u1c/write.c **** 		// This means that we should flush internal buffers.
  84:.././hal/sam3u1c/write.c **** 		return 0;
  85:.././hal/sam3u1c/write.c **** 	}
  86:.././hal/sam3u1c/write.c **** 
  87:.././hal/sam3u1c/write.c **** 	// This implementation only writes to stdout and stderr.
  88:.././hal/sam3u1c/write.c **** 	// For all other file handles, it returns failure.
  89:.././hal/sam3u1c/write.c **** 	if (handle != _LLIO_STDOUT && handle != _LLIO_STDERR) {
  90:.././hal/sam3u1c/write.c **** 		return _LLIO_ERROR;
  91:.././hal/sam3u1c/write.c **** 	}
  92:.././hal/sam3u1c/write.c **** 
  93:.././hal/sam3u1c/write.c **** 	for (; size != 0; --size) {
  94:.././hal/sam3u1c/write.c **** 		if (ptr_put(stdio_base, *buffer++) < 0) {
  95:.././hal/sam3u1c/write.c **** 			return _LLIO_ERROR;
  96:.././hal/sam3u1c/write.c **** 		}
  97:.././hal/sam3u1c/write.c **** 		++nChars;
  98:.././hal/sam3u1c/write.c **** 	}
  99:.././hal/sam3u1c/write.c **** 	return nChars;
 100:.././hal/sam3u1c/write.c **** }
 101:.././hal/sam3u1c/write.c **** 
 102:.././hal/sam3u1c/write.c **** _STD_END
 103:.././hal/sam3u1c/write.c **** 
 104:.././hal/sam3u1c/write.c **** 
 105:.././hal/sam3u1c/write.c **** #elif (defined(__GNUC__) && !XMEGA && !MEGA)
 106:.././hal/sam3u1c/write.c **** 
 107:.././hal/sam3u1c/write.c **** int __attribute__((weak))
 108:.././hal/sam3u1c/write.c **** _write (int file, const char *ptr, int len);
 109:.././hal/sam3u1c/write.c **** 
 110:.././hal/sam3u1c/write.c **** int __attribute__((weak))
 111:.././hal/sam3u1c/write.c **** _write (int file, const char *ptr, int len)
 112:.././hal/sam3u1c/write.c **** {
  40              	 .loc 1 112 1
  41              	 .cfi_startproc
  42              	 
  43              	 
  44 0000 80B5     	 push {r7,lr}
  45              	.LCFI0:
  46              	 .cfi_def_cfa_offset 8
  47              	 .cfi_offset 7,-8
  48              	 .cfi_offset 14,-4
  49 0002 86B0     	 sub sp,sp,#24
  50              	.LCFI1:
  51              	 .cfi_def_cfa_offset 32
  52 0004 00AF     	 add r7,sp,#0
  53              	.LCFI2:
  54              	 .cfi_def_cfa_register 7
  55 0006 F860     	 str r0,[r7,#12]
  56 0008 B960     	 str r1,[r7,#8]
  57 000a 7A60     	 str r2,[r7,#4]
 113:.././hal/sam3u1c/write.c **** 	int nChars = 0;
  58              	 .loc 1 113 6
  59 000c 0023     	 movs r3,#0
  60 000e 7B61     	 str r3,[r7,#20]
 114:.././hal/sam3u1c/write.c **** 
 115:.././hal/sam3u1c/write.c **** 	if ((file != 1) && (file != 2) && (file!=3)) {
  61              	 .loc 1 115 5
  62 0010 FB68     	 ldr r3,[r7,#12]
  63 0012 012B     	 cmp r3,#1
  64 0014 1ED0     	 beq .L4
  65              	 .loc 1 115 18 discriminator 1
  66 0016 FB68     	 ldr r3,[r7,#12]
  67 0018 022B     	 cmp r3,#2
  68 001a 1BD0     	 beq .L4
  69              	 .loc 1 115 33 discriminator 2
  70 001c FB68     	 ldr r3,[r7,#12]
  71 001e 032B     	 cmp r3,#3
  72 0020 18D0     	 beq .L4
 116:.././hal/sam3u1c/write.c **** 		return -1;
  73              	 .loc 1 116 10
  74 0022 4FF0FF33 	 mov r3,#-1
  75 0026 19E0     	 b .L3
  76              	.L6:
 117:.././hal/sam3u1c/write.c **** 	}
 118:.././hal/sam3u1c/write.c **** 
 119:.././hal/sam3u1c/write.c **** 	for (; len != 0; --len) {
 120:.././hal/sam3u1c/write.c **** 		if (ptr_put(stdio_base, *ptr++) < 0) {
  77              	 .loc 1 120 7
  78 0028 0E4B     	 ldr r3,.L7
  79 002a 1A68     	 ldr r2,[r3]
  80 002c 0E4B     	 ldr r3,.L7+4
  81 002e 1868     	 ldr r0,[r3]
  82              	 .loc 1 120 31
  83 0030 BB68     	 ldr r3,[r7,#8]
  84 0032 591C     	 adds r1,r3,#1
  85 0034 B960     	 str r1,[r7,#8]
  86              	 .loc 1 120 7
  87 0036 1B78     	 ldrb r3,[r3]
  88 0038 1946     	 mov r1,r3
  89 003a 9047     	 blx r2
  90              	.LVL0:
  91 003c 0346     	 mov r3,r0
  92              	 .loc 1 120 6
  93 003e 002B     	 cmp r3,#0
  94 0040 02DA     	 bge .L5
 121:.././hal/sam3u1c/write.c **** 			return -1;
  95              	 .loc 1 121 11
  96 0042 4FF0FF33 	 mov r3,#-1
  97 0046 09E0     	 b .L3
  98              	.L5:
 122:.././hal/sam3u1c/write.c **** 		}
 123:.././hal/sam3u1c/write.c **** 		++nChars;
  99              	 .loc 1 123 3
 100 0048 7B69     	 ldr r3,[r7,#20]
 101 004a 0133     	 adds r3,r3,#1
 102 004c 7B61     	 str r3,[r7,#20]
 119:.././hal/sam3u1c/write.c **** 		if (ptr_put(stdio_base, *ptr++) < 0) {
 103              	 .loc 1 119 19
 104 004e 7B68     	 ldr r3,[r7,#4]
 105 0050 013B     	 subs r3,r3,#1
 106 0052 7B60     	 str r3,[r7,#4]
 107              	.L4:
 119:.././hal/sam3u1c/write.c **** 		if (ptr_put(stdio_base, *ptr++) < 0) {
 108              	 .loc 1 119 2 discriminator 1
 109 0054 7B68     	 ldr r3,[r7,#4]
 110 0056 002B     	 cmp r3,#0
 111 0058 E6D1     	 bne .L6
 124:.././hal/sam3u1c/write.c **** 	}
 125:.././hal/sam3u1c/write.c **** 	return nChars;
 112              	 .loc 1 125 9
 113 005a 7B69     	 ldr r3,[r7,#20]
 114              	.L3:
 126:.././hal/sam3u1c/write.c **** }
 115              	 .loc 1 126 1
 116 005c 1846     	 mov r0,r3
 117 005e 1837     	 adds r7,r7,#24
 118              	.LCFI3:
 119              	 .cfi_def_cfa_offset 8
 120 0060 BD46     	 mov sp,r7
 121              	.LCFI4:
 122              	 .cfi_def_cfa_register 13
 123              	 
 124 0062 80BD     	 pop {r7,pc}
 125              	.L8:
 126              	 .align 2
 127              	.L7:
 128 0064 00000000 	 .word ptr_put
 129 0068 00000000 	 .word stdio_base
 130              	 .cfi_endproc
 131              	.LFE69:
 133              	 .text
 134              	.Letext0:
 135              	 .file 2 "c:\\program files (x86)\\gnu tools arm embedded\\8 2018-q4-major\\arm-none-eabi\\include\\machine\\_default_types.h"
 136              	 .file 3 "c:\\program files (x86)\\gnu tools arm embedded\\8 2018-q4-major\\arm-none-eabi\\include\\sys\\_stdint.h"
 137              	 .file 4 ".././hal/sam3u1c/inc/core_cm3.h"
 138              	 .file 5 ".././hal/sam3u1c/inc/system_sam3u.h"
 139              	 .file 6 "c:\\program files (x86)\\gnu tools arm embedded\\8 2018-q4-major\\arm-none-eabi\\include\\sys\\lock.h"
 140              	 .file 7 "c:\\program files (x86)\\gnu tools arm embedded\\8 2018-q4-major\\arm-none-eabi\\include\\sys\\_types.h"
 141              	 .file 8 "c:\\program files (x86)\\gnu tools arm embedded\\8 2018-q4-major\\lib\\gcc\\arm-none-eabi\\8.2.1\\include\\stddef.h"
 142              	 .file 9 "c:\\program files (x86)\\gnu tools arm embedded\\8 2018-q4-major\\arm-none-eabi\\include\\sys\\reent.h"
 143              	 .file 10 "c:\\program files (x86)\\gnu tools arm embedded\\8 2018-q4-major\\arm-none-eabi\\include\\stdlib.h"
 144              	 .file 11 ".././hal/sam3u1c/inc/interrupt/interrupt_sam_nvic.h"