   1              		.syntax unified
   2              		.cpu cortex-m3
   3              		.fpu softvfp
   4              		.eabi_attribute 20, 1
   5              		.eabi_attribute 21, 1
   6              		.eabi_attribute 23, 3
   7              		.eabi_attribute 24, 1
   8              		.eabi_attribute 25, 1
   9              		.eabi_attribute 26, 1
  10              		.eabi_attribute 30, 1
  11              		.eabi_attribute 34, 1
  12              		.eabi_attribute 18, 4
  13              		.thumb
  14              		.file	"read.c"
  15              		.text
  16              	.Ltext0:
  17              		.cfi_sections	.debug_frame
  18              		.section	.text._read,"ax",%progbits
  19              		.align	2
  20              		.weak	_read
  21              		.thumb
  22              		.thumb_func
  24              	_read:
  25              	.LFB66:
  26              		.file 1 "../src/ASF/common/utils/stdio/read.c"
   1:../src/ASF/common/utils/stdio/read.c **** /**
   2:../src/ASF/common/utils/stdio/read.c ****  * \file
   3:../src/ASF/common/utils/stdio/read.c ****  *
   4:../src/ASF/common/utils/stdio/read.c ****  * \brief System-specific implementation of the \ref _read function used by
   5:../src/ASF/common/utils/stdio/read.c ****  *         the standard library.
   6:../src/ASF/common/utils/stdio/read.c ****  *
   7:../src/ASF/common/utils/stdio/read.c ****  * Copyright (c) 2009-2013 Atmel Corporation. All rights reserved.
   8:../src/ASF/common/utils/stdio/read.c ****  *
   9:../src/ASF/common/utils/stdio/read.c ****  * \asf_license_start
  10:../src/ASF/common/utils/stdio/read.c ****  *
  11:../src/ASF/common/utils/stdio/read.c ****  * \page License
  12:../src/ASF/common/utils/stdio/read.c ****  *
  13:../src/ASF/common/utils/stdio/read.c ****  * Redistribution and use in source and binary forms, with or without
  14:../src/ASF/common/utils/stdio/read.c ****  * modification, are permitted provided that the following conditions are met:
  15:../src/ASF/common/utils/stdio/read.c ****  *
  16:../src/ASF/common/utils/stdio/read.c ****  * 1. Redistributions of source code must retain the above copyright notice,
  17:../src/ASF/common/utils/stdio/read.c ****  *    this list of conditions and the following disclaimer.
  18:../src/ASF/common/utils/stdio/read.c ****  *
  19:../src/ASF/common/utils/stdio/read.c ****  * 2. Redistributions in binary form must reproduce the above copyright notice,
  20:../src/ASF/common/utils/stdio/read.c ****  *    this list of conditions and the following disclaimer in the documentation
  21:../src/ASF/common/utils/stdio/read.c ****  *    and/or other materials provided with the distribution.
  22:../src/ASF/common/utils/stdio/read.c ****  *
  23:../src/ASF/common/utils/stdio/read.c ****  * 3. The name of Atmel may not be used to endorse or promote products derived
  24:../src/ASF/common/utils/stdio/read.c ****  *    from this software without specific prior written permission.
  25:../src/ASF/common/utils/stdio/read.c ****  *
  26:../src/ASF/common/utils/stdio/read.c ****  * 4. This software may only be redistributed and used in connection with an
  27:../src/ASF/common/utils/stdio/read.c ****  *    Atmel microcontroller product.
  28:../src/ASF/common/utils/stdio/read.c ****  *
  29:../src/ASF/common/utils/stdio/read.c ****  * THIS SOFTWARE IS PROVIDED BY ATMEL "AS IS" AND ANY EXPRESS OR IMPLIED
  30:../src/ASF/common/utils/stdio/read.c ****  * WARRANTIES, INCLUDING, BUT NOT LIMITED TO, THE IMPLIED WARRANTIES OF
  31:../src/ASF/common/utils/stdio/read.c ****  * MERCHANTABILITY, FITNESS FOR A PARTICULAR PURPOSE AND NON-INFRINGEMENT ARE
  32:../src/ASF/common/utils/stdio/read.c ****  * EXPRESSLY AND SPECIFICALLY DISCLAIMED. IN NO EVENT SHALL ATMEL BE LIABLE FOR
  33:../src/ASF/common/utils/stdio/read.c ****  * ANY DIRECT, INDIRECT, INCIDENTAL, SPECIAL, EXEMPLARY, OR CONSEQUENTIAL
  34:../src/ASF/common/utils/stdio/read.c ****  * DAMAGES (INCLUDING, BUT NOT LIMITED TO, PROCUREMENT OF SUBSTITUTE GOODS
  35:../src/ASF/common/utils/stdio/read.c ****  * OR SERVICES; LOSS OF USE, DATA, OR PROFITS; OR BUSINESS INTERRUPTION)
  36:../src/ASF/common/utils/stdio/read.c ****  * HOWEVER CAUSED AND ON ANY THEORY OF LIABILITY, WHETHER IN CONTRACT,
  37:../src/ASF/common/utils/stdio/read.c ****  * STRICT LIABILITY, OR TORT (INCLUDING NEGLIGENCE OR OTHERWISE) ARISING IN
  38:../src/ASF/common/utils/stdio/read.c ****  * ANY WAY OUT OF THE USE OF THIS SOFTWARE, EVEN IF ADVISED OF THE
  39:../src/ASF/common/utils/stdio/read.c ****  * POSSIBILITY OF SUCH DAMAGE.
  40:../src/ASF/common/utils/stdio/read.c ****  *
  41:../src/ASF/common/utils/stdio/read.c ****  * \asf_license_stop
  42:../src/ASF/common/utils/stdio/read.c ****  *
  43:../src/ASF/common/utils/stdio/read.c ****  */
  44:../src/ASF/common/utils/stdio/read.c **** 
  45:../src/ASF/common/utils/stdio/read.c **** #include "compiler.h"
  46:../src/ASF/common/utils/stdio/read.c **** 
  47:../src/ASF/common/utils/stdio/read.c **** /**
  48:../src/ASF/common/utils/stdio/read.c ****  * \defgroup group_common_utils_stdio Standard I/O (stdio)
  49:../src/ASF/common/utils/stdio/read.c ****  *
  50:../src/ASF/common/utils/stdio/read.c ****  * Common standard I/O driver that implements the stdio
  51:../src/ASF/common/utils/stdio/read.c ****  * read and write functions on AVR and SAM devices.
  52:../src/ASF/common/utils/stdio/read.c ****  *
  53:../src/ASF/common/utils/stdio/read.c ****  * \{
  54:../src/ASF/common/utils/stdio/read.c ****  */
  55:../src/ASF/common/utils/stdio/read.c **** 
  56:../src/ASF/common/utils/stdio/read.c **** extern volatile void *volatile stdio_base;
  57:../src/ASF/common/utils/stdio/read.c **** void (*ptr_get)(void volatile*, char*);
  58:../src/ASF/common/utils/stdio/read.c **** 
  59:../src/ASF/common/utils/stdio/read.c **** 
  60:../src/ASF/common/utils/stdio/read.c **** // IAR common implementation
  61:../src/ASF/common/utils/stdio/read.c **** #if ( defined(__ICCAVR32__) || defined(__ICCAVR__) || defined(__ICCARM__) )
  62:../src/ASF/common/utils/stdio/read.c **** 
  63:../src/ASF/common/utils/stdio/read.c **** #include <yfuns.h>
  64:../src/ASF/common/utils/stdio/read.c **** 
  65:../src/ASF/common/utils/stdio/read.c **** _STD_BEGIN
  66:../src/ASF/common/utils/stdio/read.c **** 
  67:../src/ASF/common/utils/stdio/read.c **** #pragma module_name = "?__read"
  68:../src/ASF/common/utils/stdio/read.c **** 
  69:../src/ASF/common/utils/stdio/read.c **** /*! \brief Reads a number of bytes, at most \a size, into the memory area
  70:../src/ASF/common/utils/stdio/read.c ****  *         pointed to by \a buffer.
  71:../src/ASF/common/utils/stdio/read.c ****  *
  72:../src/ASF/common/utils/stdio/read.c ****  * \param handle File handle to read from.
  73:../src/ASF/common/utils/stdio/read.c ****  * \param buffer Pointer to buffer to write read bytes to.
  74:../src/ASF/common/utils/stdio/read.c ****  * \param size Number of bytes to read.
  75:../src/ASF/common/utils/stdio/read.c ****  *
  76:../src/ASF/common/utils/stdio/read.c ****  * \return The number of bytes read, \c 0 at the end of the file, or
  77:../src/ASF/common/utils/stdio/read.c ****  *         \c _LLIO_ERROR on failure.
  78:../src/ASF/common/utils/stdio/read.c ****  */
  79:../src/ASF/common/utils/stdio/read.c **** size_t __read(int handle, unsigned char *buffer, size_t size)
  80:../src/ASF/common/utils/stdio/read.c **** {
  81:../src/ASF/common/utils/stdio/read.c **** 	int nChars = 0;
  82:../src/ASF/common/utils/stdio/read.c **** 	// This implementation only reads from stdin.
  83:../src/ASF/common/utils/stdio/read.c **** 	// For all other file handles, it returns failure.
  84:../src/ASF/common/utils/stdio/read.c **** 	if (handle != _LLIO_STDIN) {
  85:../src/ASF/common/utils/stdio/read.c **** 		return _LLIO_ERROR;
  86:../src/ASF/common/utils/stdio/read.c **** 	}
  87:../src/ASF/common/utils/stdio/read.c **** 	for (; size > 0; --size) {
  88:../src/ASF/common/utils/stdio/read.c **** 		ptr_get(stdio_base, (char*)buffer);
  89:../src/ASF/common/utils/stdio/read.c **** 		buffer++;
  90:../src/ASF/common/utils/stdio/read.c **** 		nChars++;
  91:../src/ASF/common/utils/stdio/read.c **** 	}
  92:../src/ASF/common/utils/stdio/read.c **** 	return nChars;
  93:../src/ASF/common/utils/stdio/read.c **** }
  94:../src/ASF/common/utils/stdio/read.c **** 
  95:../src/ASF/common/utils/stdio/read.c **** /*! \brief This routine is required by IAR DLIB library since EWAVR V6.10
  96:../src/ASF/common/utils/stdio/read.c ****  * the implementation is empty to be compatible with old IAR version.
  97:../src/ASF/common/utils/stdio/read.c ****  */
  98:../src/ASF/common/utils/stdio/read.c **** int __close(int handle)
  99:../src/ASF/common/utils/stdio/read.c **** {
 100:../src/ASF/common/utils/stdio/read.c **** 	UNUSED(handle);
 101:../src/ASF/common/utils/stdio/read.c **** 	return 0;
 102:../src/ASF/common/utils/stdio/read.c **** }
 103:../src/ASF/common/utils/stdio/read.c **** 
 104:../src/ASF/common/utils/stdio/read.c **** /*! \brief This routine is required by IAR DLIB library since EWAVR V6.10
 105:../src/ASF/common/utils/stdio/read.c ****  * the implementation is empty to be compatible with old IAR version.
 106:../src/ASF/common/utils/stdio/read.c ****  */
 107:../src/ASF/common/utils/stdio/read.c **** int remove(const char* val)
 108:../src/ASF/common/utils/stdio/read.c **** {
 109:../src/ASF/common/utils/stdio/read.c **** 	UNUSED(val);
 110:../src/ASF/common/utils/stdio/read.c **** 	return 0;
 111:../src/ASF/common/utils/stdio/read.c **** }
 112:../src/ASF/common/utils/stdio/read.c **** 
 113:../src/ASF/common/utils/stdio/read.c **** /*! \brief This routine is required by IAR DLIB library since EWAVR V6.10
 114:../src/ASF/common/utils/stdio/read.c ****  * the implementation is empty to be compatible with old IAR version.
 115:../src/ASF/common/utils/stdio/read.c ****  */
 116:../src/ASF/common/utils/stdio/read.c **** long __lseek(int handle, long val, int val2)
 117:../src/ASF/common/utils/stdio/read.c **** {
 118:../src/ASF/common/utils/stdio/read.c **** 	UNUSED(handle);
 119:../src/ASF/common/utils/stdio/read.c **** 	UNUSED(val2);
 120:../src/ASF/common/utils/stdio/read.c **** 	return val;
 121:../src/ASF/common/utils/stdio/read.c **** }
 122:../src/ASF/common/utils/stdio/read.c **** 
 123:../src/ASF/common/utils/stdio/read.c **** _STD_END
 124:../src/ASF/common/utils/stdio/read.c **** 
 125:../src/ASF/common/utils/stdio/read.c **** // GCC AVR32 and SAM implementation
 126:../src/ASF/common/utils/stdio/read.c **** #elif (defined(__GNUC__) && !XMEGA && !MEGA) 
 127:../src/ASF/common/utils/stdio/read.c **** 
 128:../src/ASF/common/utils/stdio/read.c **** int __attribute__((weak))
 129:../src/ASF/common/utils/stdio/read.c **** _read (int file, char * ptr, int len); // Remove GCC compiler warning
 130:../src/ASF/common/utils/stdio/read.c **** 
 131:../src/ASF/common/utils/stdio/read.c **** int __attribute__((weak))
 132:../src/ASF/common/utils/stdio/read.c **** _read (int file, char * ptr, int len)
 133:../src/ASF/common/utils/stdio/read.c **** {
  27              		.loc 1 133 0
  28              		.cfi_startproc
  29              		@ args = 0, pretend = 0, frame = 0
  30              		@ frame_needed = 0, uses_anonymous_args = 0
  31              	.LVL0:
 134:../src/ASF/common/utils/stdio/read.c **** 	int nChars = 0;
 135:../src/ASF/common/utils/stdio/read.c **** 
 136:../src/ASF/common/utils/stdio/read.c **** 	if (file != 0) {
  32              		.loc 1 136 0
  33 0000 A8B9     		cbnz	r0, .L5
 133:../src/ASF/common/utils/stdio/read.c **** 	int nChars = 0;
  34              		.loc 1 133 0 discriminator 1
  35 0002 2DE9F041 		push	{r4, r5, r6, r7, r8, lr}
  36              	.LCFI0:
  37              		.cfi_def_cfa_offset 24
  38              		.cfi_offset 4, -24
  39              		.cfi_offset 5, -20
  40              		.cfi_offset 6, -16
  41              		.cfi_offset 7, -12
  42              		.cfi_offset 8, -8
  43              		.cfi_offset 14, -4
  44 0006 0C46     		mov	r4, r1
  45 0008 9046     		mov	r8, r2
 137:../src/ASF/common/utils/stdio/read.c **** 		return -1;
 138:../src/ASF/common/utils/stdio/read.c **** 	}
 139:../src/ASF/common/utils/stdio/read.c **** 
 140:../src/ASF/common/utils/stdio/read.c **** 	for (; len > 0; --len) {
  46              		.loc 1 140 0 discriminator 1
  47 000a 002A     		cmp	r2, #0
  48 000c 0ADD     		ble	.L6
  49 000e 8F18     		adds	r7, r1, r2
 141:../src/ASF/common/utils/stdio/read.c **** 		ptr_get(stdio_base, ptr);
  50              		.loc 1 141 0
  51 0010 084E     		ldr	r6, .L10
  52 0012 094D     		ldr	r5, .L10+4
  53              	.LVL1:
  54              	.L4:
  55              		.loc 1 141 0 is_stmt 0 discriminator 2
  56 0014 3068     		ldr	r0, [r6]
  57 0016 2146     		mov	r1, r4
  58 0018 2B68     		ldr	r3, [r5]
  59 001a 9847     		blx	r3
  60              	.LVL2:
 142:../src/ASF/common/utils/stdio/read.c **** 		ptr++;
  61              		.loc 1 142 0 is_stmt 1 discriminator 2
  62 001c 0134     		adds	r4, r4, #1
  63              	.LVL3:
 140:../src/ASF/common/utils/stdio/read.c **** 		ptr_get(stdio_base, ptr);
  64              		.loc 1 140 0 discriminator 2
  65 001e BC42     		cmp	r4, r7
  66 0020 F8D1     		bne	.L4
  67 0022 01E0     		b	.L3
  68              	.LVL4:
  69              	.L6:
 140:../src/ASF/common/utils/stdio/read.c **** 		ptr_get(stdio_base, ptr);
  70              		.loc 1 140 0 is_stmt 0
  71 0024 4FF00008 		mov	r8, #0
  72              	.LVL5:
  73              	.L3:
 143:../src/ASF/common/utils/stdio/read.c **** 		nChars++;
 144:../src/ASF/common/utils/stdio/read.c **** 	}
 145:../src/ASF/common/utils/stdio/read.c **** 	return nChars;
  74              		.loc 1 145 0 is_stmt 1
  75 0028 4046     		mov	r0, r8
  76 002a BDE8F081 		pop	{r4, r5, r6, r7, r8, pc}
  77              	.LVL6:
  78              	.L5:
  79              	.LCFI1:
  80              		.cfi_def_cfa_offset 0
  81              		.cfi_restore 4
  82              		.cfi_restore 5
  83              		.cfi_restore 6
  84              		.cfi_restore 7
  85              		.cfi_restore 8
  86              		.cfi_restore 14
 137:../src/ASF/common/utils/stdio/read.c **** 	}
  87              		.loc 1 137 0
  88 002e 4FF0FF30 		mov	r0, #-1
  89              	.LVL7:
  90 0032 7047     		bx	lr
  91              	.L11:
  92              		.align	2
  93              	.L10:
  94 0034 00000000 		.word	stdio_base
  95 0038 00000000 		.word	ptr_get
  96              		.cfi_endproc
  97              	.LFE66:
  99              		.comm	ptr_get,4,4
 100              		.section	.bss.cpu_irq_critical_section_counter,"aw",%nobits
 101              		.align	2
 104              	cpu_irq_critical_section_counter:
 105 0000 00000000 		.space	4
 106              		.section	.bss.cpu_irq_prev_interrupt_state,"aw",%nobits
 109              	cpu_irq_prev_interrupt_state:
 110 0000 00       		.space	1
 111              		.text
 112              	.Letext0:
 113              		.file 2 "c:\\program files (x86)\\atmel\\studio\\7.0\\toolchain\\arm\\arm-gnu-toolchain\\arm-none-
 114              		.file 3 "c:\\program files (x86)\\atmel\\studio\\7.0\\toolchain\\arm\\arm-gnu-toolchain\\arm-none-
 115              		.file 4 "../src/ASF/common/utils/interrupt/interrupt_sam_nvic.h"
 116              		.file 5 "../src/ASF/thirdparty/CMSIS/Include/core_cm3.h"