   1              		.syntax unified
   2              		.cpu cortex-m3
   3              		.fpu softvfp
   4              		.eabi_attribute 20, 1
   5              		.eabi_attribute 21, 1
   6              		.eabi_attribute 23, 3
   7              		.eabi_attribute 24, 1
   8              		.eabi_attribute 25, 1
   9              		.eabi_attribute 26, 1
  10              		.eabi_attribute 30, 1
  11              		.eabi_attribute 34, 1
  12              		.eabi_attribute 18, 4
  13              		.thumb
  14              		.file	"write.c"
  15              		.text
  16              	.Ltext0:
  17              		.cfi_sections	.debug_frame
  18              		.section	.text._write,"ax",%progbits
  19              		.align	2
  20              		.weak	_write
  21              		.thumb
  22              		.thumb_func
  24              	_write:
  25              	.LFB66:
  26              		.file 1 "../src/ASF/common/utils/stdio/write.c"
   1:../src/ASF/common/utils/stdio/write.c **** /**
   2:../src/ASF/common/utils/stdio/write.c ****  * \file
   3:../src/ASF/common/utils/stdio/write.c ****  *
   4:../src/ASF/common/utils/stdio/write.c ****  * \brief System-specific implementation of the \ref _write function used by
   5:../src/ASF/common/utils/stdio/write.c ****  *         the standard library.
   6:../src/ASF/common/utils/stdio/write.c ****  *
   7:../src/ASF/common/utils/stdio/write.c ****  * Copyright (c) 2009-2013 Atmel Corporation. All rights reserved.
   8:../src/ASF/common/utils/stdio/write.c ****  *
   9:../src/ASF/common/utils/stdio/write.c ****  * \asf_license_start
  10:../src/ASF/common/utils/stdio/write.c ****  *
  11:../src/ASF/common/utils/stdio/write.c ****  * \page License
  12:../src/ASF/common/utils/stdio/write.c ****  *
  13:../src/ASF/common/utils/stdio/write.c ****  * Redistribution and use in source and binary forms, with or without
  14:../src/ASF/common/utils/stdio/write.c ****  * modification, are permitted provided that the following conditions are met:
  15:../src/ASF/common/utils/stdio/write.c ****  *
  16:../src/ASF/common/utils/stdio/write.c ****  * 1. Redistributions of source code must retain the above copyright notice,
  17:../src/ASF/common/utils/stdio/write.c ****  *    this list of conditions and the following disclaimer.
  18:../src/ASF/common/utils/stdio/write.c ****  *
  19:../src/ASF/common/utils/stdio/write.c ****  * 2. Redistributions in binary form must reproduce the above copyright notice,
  20:../src/ASF/common/utils/stdio/write.c ****  *    this list of conditions and the following disclaimer in the documentation
  21:../src/ASF/common/utils/stdio/write.c ****  *    and/or other materials provided with the distribution.
  22:../src/ASF/common/utils/stdio/write.c ****  *
  23:../src/ASF/common/utils/stdio/write.c ****  * 3. The name of Atmel may not be used to endorse or promote products derived
  24:../src/ASF/common/utils/stdio/write.c ****  *    from this software without specific prior written permission.
  25:../src/ASF/common/utils/stdio/write.c ****  *
  26:../src/ASF/common/utils/stdio/write.c ****  * 4. This software may only be redistributed and used in connection with an
  27:../src/ASF/common/utils/stdio/write.c ****  *    Atmel microcontroller product.
  28:../src/ASF/common/utils/stdio/write.c ****  *
  29:../src/ASF/common/utils/stdio/write.c ****  * THIS SOFTWARE IS PROVIDED BY ATMEL "AS IS" AND ANY EXPRESS OR IMPLIED
  30:../src/ASF/common/utils/stdio/write.c ****  * WARRANTIES, INCLUDING, BUT NOT LIMITED TO, THE IMPLIED WARRANTIES OF
  31:../src/ASF/common/utils/stdio/write.c ****  * MERCHANTABILITY, FITNESS FOR A PARTICULAR PURPOSE AND NON-INFRINGEMENT ARE
  32:../src/ASF/common/utils/stdio/write.c ****  * EXPRESSLY AND SPECIFICALLY DISCLAIMED. IN NO EVENT SHALL ATMEL BE LIABLE FOR
  33:../src/ASF/common/utils/stdio/write.c ****  * ANY DIRECT, INDIRECT, INCIDENTAL, SPECIAL, EXEMPLARY, OR CONSEQUENTIAL
  34:../src/ASF/common/utils/stdio/write.c ****  * DAMAGES (INCLUDING, BUT NOT LIMITED TO, PROCUREMENT OF SUBSTITUTE GOODS
  35:../src/ASF/common/utils/stdio/write.c ****  * OR SERVICES; LOSS OF USE, DATA, OR PROFITS; OR BUSINESS INTERRUPTION)
  36:../src/ASF/common/utils/stdio/write.c ****  * HOWEVER CAUSED AND ON ANY THEORY OF LIABILITY, WHETHER IN CONTRACT,
  37:../src/ASF/common/utils/stdio/write.c ****  * STRICT LIABILITY, OR TORT (INCLUDING NEGLIGENCE OR OTHERWISE) ARISING IN
  38:../src/ASF/common/utils/stdio/write.c ****  * ANY WAY OUT OF THE USE OF THIS SOFTWARE, EVEN IF ADVISED OF THE
  39:../src/ASF/common/utils/stdio/write.c ****  * POSSIBILITY OF SUCH DAMAGE.
  40:../src/ASF/common/utils/stdio/write.c ****  *
  41:../src/ASF/common/utils/stdio/write.c ****  * \asf_license_stop
  42:../src/ASF/common/utils/stdio/write.c ****  *
  43:../src/ASF/common/utils/stdio/write.c ****  */
  44:../src/ASF/common/utils/stdio/write.c **** 
  45:../src/ASF/common/utils/stdio/write.c **** #include "compiler.h"
  46:../src/ASF/common/utils/stdio/write.c **** 
  47:../src/ASF/common/utils/stdio/write.c **** /**
  48:../src/ASF/common/utils/stdio/write.c ****  * \addtogroup group_common_utils_stdio
  49:../src/ASF/common/utils/stdio/write.c ****  *
  50:../src/ASF/common/utils/stdio/write.c ****  * \{
  51:../src/ASF/common/utils/stdio/write.c ****  */
  52:../src/ASF/common/utils/stdio/write.c **** 
  53:../src/ASF/common/utils/stdio/write.c **** volatile void *volatile stdio_base;
  54:../src/ASF/common/utils/stdio/write.c **** int (*ptr_put)(void volatile*, char);
  55:../src/ASF/common/utils/stdio/write.c **** 
  56:../src/ASF/common/utils/stdio/write.c **** 
  57:../src/ASF/common/utils/stdio/write.c **** #if ( defined(__ICCAVR32__) || defined(__ICCAVR__) || defined(__ICCARM__))
  58:../src/ASF/common/utils/stdio/write.c **** 
  59:../src/ASF/common/utils/stdio/write.c **** #include <yfuns.h>
  60:../src/ASF/common/utils/stdio/write.c **** 
  61:../src/ASF/common/utils/stdio/write.c **** _STD_BEGIN
  62:../src/ASF/common/utils/stdio/write.c **** 
  63:../src/ASF/common/utils/stdio/write.c **** #pragma module_name = "?__write"
  64:../src/ASF/common/utils/stdio/write.c **** 
  65:../src/ASF/common/utils/stdio/write.c **** /*! \brief Writes a number of bytes, at most \a size, from the memory area
  66:../src/ASF/common/utils/stdio/write.c ****  *         pointed to by \a buffer.
  67:../src/ASF/common/utils/stdio/write.c ****  *
  68:../src/ASF/common/utils/stdio/write.c ****  * If \a buffer is zero then \ref __write performs flushing of internal buffers,
  69:../src/ASF/common/utils/stdio/write.c ****  * if any. In this case, \a handle can be \c -1 to indicate that all handles
  70:../src/ASF/common/utils/stdio/write.c ****  * should be flushed.
  71:../src/ASF/common/utils/stdio/write.c ****  *
  72:../src/ASF/common/utils/stdio/write.c ****  * \param handle File handle to write to.
  73:../src/ASF/common/utils/stdio/write.c ****  * \param buffer Pointer to buffer to read bytes to write from.
  74:../src/ASF/common/utils/stdio/write.c ****  * \param size Number of bytes to write.
  75:../src/ASF/common/utils/stdio/write.c ****  *
  76:../src/ASF/common/utils/stdio/write.c ****  * \return The number of bytes written, or \c _LLIO_ERROR on failure.
  77:../src/ASF/common/utils/stdio/write.c ****  */
  78:../src/ASF/common/utils/stdio/write.c **** size_t __write(int handle, const unsigned char *buffer, size_t size)
  79:../src/ASF/common/utils/stdio/write.c **** {
  80:../src/ASF/common/utils/stdio/write.c **** 	size_t nChars = 0;
  81:../src/ASF/common/utils/stdio/write.c **** 
  82:../src/ASF/common/utils/stdio/write.c **** 	if (buffer == 0) {
  83:../src/ASF/common/utils/stdio/write.c **** 		// This means that we should flush internal buffers.
  84:../src/ASF/common/utils/stdio/write.c **** 		return 0;
  85:../src/ASF/common/utils/stdio/write.c **** 	}
  86:../src/ASF/common/utils/stdio/write.c **** 
  87:../src/ASF/common/utils/stdio/write.c **** 	// This implementation only writes to stdout and stderr.
  88:../src/ASF/common/utils/stdio/write.c **** 	// For all other file handles, it returns failure.
  89:../src/ASF/common/utils/stdio/write.c **** 	if (handle != _LLIO_STDOUT && handle != _LLIO_STDERR) {
  90:../src/ASF/common/utils/stdio/write.c **** 		return _LLIO_ERROR;
  91:../src/ASF/common/utils/stdio/write.c **** 	}
  92:../src/ASF/common/utils/stdio/write.c **** 
  93:../src/ASF/common/utils/stdio/write.c **** 	for (; size != 0; --size) {
  94:../src/ASF/common/utils/stdio/write.c **** 		if (ptr_put(stdio_base, *buffer++) < 0) {
  95:../src/ASF/common/utils/stdio/write.c **** 			return _LLIO_ERROR;
  96:../src/ASF/common/utils/stdio/write.c **** 		}
  97:../src/ASF/common/utils/stdio/write.c **** 		++nChars;
  98:../src/ASF/common/utils/stdio/write.c **** 	}
  99:../src/ASF/common/utils/stdio/write.c **** 	return nChars;
 100:../src/ASF/common/utils/stdio/write.c **** }
 101:../src/ASF/common/utils/stdio/write.c **** 
 102:../src/ASF/common/utils/stdio/write.c **** _STD_END
 103:../src/ASF/common/utils/stdio/write.c **** 
 104:../src/ASF/common/utils/stdio/write.c **** 
 105:../src/ASF/common/utils/stdio/write.c **** #elif (defined(__GNUC__) && !XMEGA && !MEGA)
 106:../src/ASF/common/utils/stdio/write.c **** 
 107:../src/ASF/common/utils/stdio/write.c **** int __attribute__((weak))
 108:../src/ASF/common/utils/stdio/write.c **** _write (int file, const char *ptr, int len);
 109:../src/ASF/common/utils/stdio/write.c **** 
 110:../src/ASF/common/utils/stdio/write.c **** int __attribute__((weak))
 111:../src/ASF/common/utils/stdio/write.c **** _write (int file, const char *ptr, int len)
 112:../src/ASF/common/utils/stdio/write.c **** {
  27              		.loc 1 112 0
  28              		.cfi_startproc
  29              		@ args = 0, pretend = 0, frame = 0
  30              		@ frame_needed = 0, uses_anonymous_args = 0
  31              	.LVL0:
 113:../src/ASF/common/utils/stdio/write.c **** 	int nChars = 0;
 114:../src/ASF/common/utils/stdio/write.c **** 
 115:../src/ASF/common/utils/stdio/write.c **** 	if ((file != 1) && (file != 2) && (file!=3)) {
  32              		.loc 1 115 0
  33 0000 0138     		subs	r0, r0, #1
  34              	.LVL1:
  35 0002 0228     		cmp	r0, #2
  36 0004 18D8     		bhi	.L5
 112:../src/ASF/common/utils/stdio/write.c **** 	int nChars = 0;
  37              		.loc 1 112 0 discriminator 1
  38 0006 2DE9F041 		push	{r4, r5, r6, r7, r8, lr}
  39              	.LCFI0:
  40              		.cfi_def_cfa_offset 24
  41              		.cfi_offset 4, -24
  42              		.cfi_offset 5, -20
  43              		.cfi_offset 6, -16
  44              		.cfi_offset 7, -12
  45              		.cfi_offset 8, -8
  46              		.cfi_offset 14, -4
  47 000a 0E46     		mov	r6, r1
  48 000c 1446     		mov	r4, r2
 116:../src/ASF/common/utils/stdio/write.c **** 		return -1;
 117:../src/ASF/common/utils/stdio/write.c **** 	}
 118:../src/ASF/common/utils/stdio/write.c **** 
 119:../src/ASF/common/utils/stdio/write.c **** 	for (; len != 0; --len) {
  49              		.loc 1 119 0 discriminator 1
  50 000e 82B1     		cbz	r2, .L6
  51              		.loc 1 119 0 is_stmt 0
  52 0010 0D46     		mov	r5, r1
 120:../src/ASF/common/utils/stdio/write.c **** 		if (ptr_put(stdio_base, *ptr++) < 0) {
  53              		.loc 1 120 0 is_stmt 1
  54 0012 DFF83880 		ldr	r8, .L10+4
  55 0016 0C4F     		ldr	r7, .L10
  56              	.LVL2:
  57              	.L4:
  58 0018 D8F80000 		ldr	r0, [r8]
  59 001c 15F8011B 		ldrb	r1, [r5], #1	@ zero_extendqisi2
  60              	.LVL3:
  61 0020 3B68     		ldr	r3, [r7]
  62 0022 9847     		blx	r3
  63              	.LVL4:
  64 0024 0028     		cmp	r0, #0
  65 0026 0ADB     		blt	.L7
  66 0028 A81B     		subs	r0, r5, r6
  67              	.LVL5:
 119:../src/ASF/common/utils/stdio/write.c **** 		if (ptr_put(stdio_base, *ptr++) < 0) {
  68              		.loc 1 119 0
  69 002a 013C     		subs	r4, r4, #1
  70              	.LVL6:
  71 002c F4D1     		bne	.L4
  72 002e BDE8F081 		pop	{r4, r5, r6, r7, r8, pc}
  73              	.LVL7:
  74              	.L6:
  75 0032 0020     		movs	r0, #0
 121:../src/ASF/common/utils/stdio/write.c **** 			return -1;
 122:../src/ASF/common/utils/stdio/write.c **** 		}
 123:../src/ASF/common/utils/stdio/write.c **** 		++nChars;
 124:../src/ASF/common/utils/stdio/write.c **** 	}
 125:../src/ASF/common/utils/stdio/write.c **** 	return nChars;
  76              		.loc 1 125 0
  77 0034 BDE8F081 		pop	{r4, r5, r6, r7, r8, pc}
  78              	.L5:
  79              	.LCFI1:
  80              		.cfi_def_cfa_offset 0
  81              		.cfi_restore 4
  82              		.cfi_restore 5
  83              		.cfi_restore 6
  84              		.cfi_restore 7
  85              		.cfi_restore 8
  86              		.cfi_restore 14
 116:../src/ASF/common/utils/stdio/write.c **** 	}
  87              		.loc 1 116 0
  88 0038 4FF0FF30 		mov	r0, #-1
 126:../src/ASF/common/utils/stdio/write.c **** }
  89              		.loc 1 126 0
  90 003c 7047     		bx	lr
  91              	.LVL8:
  92              	.L7:
  93              	.LCFI2:
  94              		.cfi_def_cfa_offset 24
  95              		.cfi_offset 4, -24
  96              		.cfi_offset 5, -20
  97              		.cfi_offset 6, -16
  98              		.cfi_offset 7, -12
  99              		.cfi_offset 8, -8
 100              		.cfi_offset 14, -4
 121:../src/ASF/common/utils/stdio/write.c **** 			return -1;
 101              		.loc 1 121 0
 102 003e 4FF0FF30 		mov	r0, #-1
 103              		.loc 1 126 0
 104 0042 BDE8F081 		pop	{r4, r5, r6, r7, r8, pc}
 105              	.LVL9:
 106              	.L11:
 107 0046 00BF     		.align	2
 108              	.L10:
 109 0048 00000000 		.word	ptr_put
 110 004c 00000000 		.word	stdio_base
 111              		.cfi_endproc
 112              	.LFE66:
 114              		.comm	ptr_put,4,4
 115              		.comm	stdio_base,4,4
 116              		.section	.bss.cpu_irq_critical_section_counter,"aw",%nobits
 117              		.align	2
 120              	cpu_irq_critical_section_counter:
 121 0000 00000000 		.space	4
 122              		.section	.bss.cpu_irq_prev_interrupt_state,"aw",%nobits
 125              	cpu_irq_prev_interrupt_state:
 126 0000 00       		.space	1
 127              		.text
 128              	.Letext0:
 129              		.file 2 "c:\\program files (x86)\\atmel\\studio\\7.0\\toolchain\\arm\\arm-gnu-toolchain\\arm-none-
 130              		.file 3 "c:\\program files (x86)\\atmel\\studio\\7.0\\toolchain\\arm\\arm-gnu-toolchain\\arm-none-
 131              		.file 4 "../src/ASF/common/utils/interrupt/interrupt_sam_nvic.h"
 132              		.file 5 "../src/ASF/thirdparty/CMSIS/Include/core_cm3.h"