   1              	 .cpu cortex-m3
   2              	 .eabi_attribute 20,1
   3              	 .eabi_attribute 21,1
   4              	 .eabi_attribute 23,3
   5              	 .eabi_attribute 24,1
   6              	 .eabi_attribute 25,1
   7              	 .eabi_attribute 26,1
   8              	 .eabi_attribute 30,6
   9              	 .eabi_attribute 34,1
  10              	 .eabi_attribute 18,4
  11              	 .file "fpga_program.c"
  12              	 .text
  13              	.Ltext0:
  14              	 .cfi_sections .debug_frame
  15              	 .section .bss.cpu_irq_critical_section_counter,"aw",%nobits
  16              	 .align 2
  19              	cpu_irq_critical_section_counter:
  20 0000 00000000 	 .space 4
  21              	 .section .bss.cpu_irq_prev_interrupt_state,"aw",%nobits
  24              	cpu_irq_prev_interrupt_state:
  25 0000 00       	 .space 1
  26              	 .section .text.osc_get_rate,"ax",%progbits
  27              	 .align 1
  28              	 .syntax unified
  29              	 .thumb
  30              	 .thumb_func
  31              	 .fpu softvfp
  33              	osc_get_rate:
  34              	.LFB70:
  35              	 .file 1 ".././hal/sam3u1c/inc/sam3u/osc.h"
   1:.././hal/sam3u1c/inc/sam3u/osc.h **** /**
   2:.././hal/sam3u1c/inc/sam3u/osc.h ****  * \file
   3:.././hal/sam3u1c/inc/sam3u/osc.h ****  *
   4:.././hal/sam3u1c/inc/sam3u/osc.h ****  * \brief Chip-specific oscillator management functions.
   5:.././hal/sam3u1c/inc/sam3u/osc.h ****  *
   6:.././hal/sam3u1c/inc/sam3u/osc.h ****  * Copyright (c) 2011 - 2013 Atmel Corporation. All rights reserved.
   7:.././hal/sam3u1c/inc/sam3u/osc.h ****  *
   8:.././hal/sam3u1c/inc/sam3u/osc.h ****  * \asf_license_start
   9:.././hal/sam3u1c/inc/sam3u/osc.h ****  *
  10:.././hal/sam3u1c/inc/sam3u/osc.h ****  * \page License
  11:.././hal/sam3u1c/inc/sam3u/osc.h ****  *
  12:.././hal/sam3u1c/inc/sam3u/osc.h ****  * Redistribution and use in source and binary forms, with or without
  13:.././hal/sam3u1c/inc/sam3u/osc.h ****  * modification, are permitted provided that the following conditions are met:
  14:.././hal/sam3u1c/inc/sam3u/osc.h ****  *
  15:.././hal/sam3u1c/inc/sam3u/osc.h ****  * 1. Redistributions of source code must retain the above copyright notice,
  16:.././hal/sam3u1c/inc/sam3u/osc.h ****  *    this list of conditions and the following disclaimer.
  17:.././hal/sam3u1c/inc/sam3u/osc.h ****  *
  18:.././hal/sam3u1c/inc/sam3u/osc.h ****  * 2. Redistributions in binary form must reproduce the above copyright notice,
  19:.././hal/sam3u1c/inc/sam3u/osc.h ****  *    this list of conditions and the following disclaimer in the documentation
  20:.././hal/sam3u1c/inc/sam3u/osc.h ****  *    and/or other materials provided with the distribution.
  21:.././hal/sam3u1c/inc/sam3u/osc.h ****  *
  22:.././hal/sam3u1c/inc/sam3u/osc.h ****  * 3. The name of Atmel may not be used to endorse or promote products derived
  23:.././hal/sam3u1c/inc/sam3u/osc.h ****  *    from this software without specific prior written permission.
  24:.././hal/sam3u1c/inc/sam3u/osc.h ****  *
  25:.././hal/sam3u1c/inc/sam3u/osc.h ****  * 4. This software may only be redistributed and used in connection with an
  26:.././hal/sam3u1c/inc/sam3u/osc.h ****  *    Atmel microcontroller product.
  27:.././hal/sam3u1c/inc/sam3u/osc.h ****  *
  28:.././hal/sam3u1c/inc/sam3u/osc.h ****  * THIS SOFTWARE IS PROVIDED BY ATMEL "AS IS" AND ANY EXPRESS OR IMPLIED
  29:.././hal/sam3u1c/inc/sam3u/osc.h ****  * WARRANTIES, INCLUDING, BUT NOT LIMITED TO, THE IMPLIED WARRANTIES OF
  30:.././hal/sam3u1c/inc/sam3u/osc.h ****  * MERCHANTABILITY, FITNESS FOR A PARTICULAR PURPOSE AND NON-INFRINGEMENT ARE
  31:.././hal/sam3u1c/inc/sam3u/osc.h ****  * EXPRESSLY AND SPECIFICALLY DISCLAIMED. IN NO EVENT SHALL ATMEL BE LIABLE FOR
  32:.././hal/sam3u1c/inc/sam3u/osc.h ****  * ANY DIRECT, INDIRECT, INCIDENTAL, SPECIAL, EXEMPLARY, OR CONSEQUENTIAL
  33:.././hal/sam3u1c/inc/sam3u/osc.h ****  * DAMAGES (INCLUDING, BUT NOT LIMITED TO, PROCUREMENT OF SUBSTITUTE GOODS
  34:.././hal/sam3u1c/inc/sam3u/osc.h ****  * OR SERVICES; LOSS OF USE, DATA, OR PROFITS; OR BUSINESS INTERRUPTION)
  35:.././hal/sam3u1c/inc/sam3u/osc.h ****  * HOWEVER CAUSED AND ON ANY THEORY OF LIABILITY, WHETHER IN CONTRACT,
  36:.././hal/sam3u1c/inc/sam3u/osc.h ****  * STRICT LIABILITY, OR TORT (INCLUDING NEGLIGENCE OR OTHERWISE) ARISING IN
  37:.././hal/sam3u1c/inc/sam3u/osc.h ****  * ANY WAY OUT OF THE USE OF THIS SOFTWARE, EVEN IF ADVISED OF THE
  38:.././hal/sam3u1c/inc/sam3u/osc.h ****  * POSSIBILITY OF SUCH DAMAGE.
  39:.././hal/sam3u1c/inc/sam3u/osc.h ****  *
  40:.././hal/sam3u1c/inc/sam3u/osc.h ****  * \asf_license_stop
  41:.././hal/sam3u1c/inc/sam3u/osc.h ****  *
  42:.././hal/sam3u1c/inc/sam3u/osc.h ****  */
  43:.././hal/sam3u1c/inc/sam3u/osc.h **** 
  44:.././hal/sam3u1c/inc/sam3u/osc.h **** #ifndef CHIP_OSC_H_INCLUDED
  45:.././hal/sam3u1c/inc/sam3u/osc.h **** #define CHIP_OSC_H_INCLUDED
  46:.././hal/sam3u1c/inc/sam3u/osc.h **** 
  47:.././hal/sam3u1c/inc/sam3u/osc.h **** #include "board.h"
  48:.././hal/sam3u1c/inc/sam3u/osc.h **** #include "pmc.h"
  49:.././hal/sam3u1c/inc/sam3u/osc.h **** 
  50:.././hal/sam3u1c/inc/sam3u/osc.h **** /// @cond 0
  51:.././hal/sam3u1c/inc/sam3u/osc.h **** /**INDENT-OFF**/
  52:.././hal/sam3u1c/inc/sam3u/osc.h **** #ifdef __cplusplus
  53:.././hal/sam3u1c/inc/sam3u/osc.h **** extern "C" {
  54:.././hal/sam3u1c/inc/sam3u/osc.h **** #endif
  55:.././hal/sam3u1c/inc/sam3u/osc.h **** /**INDENT-ON**/
  56:.././hal/sam3u1c/inc/sam3u/osc.h **** /// @endcond
  57:.././hal/sam3u1c/inc/sam3u/osc.h **** 
  58:.././hal/sam3u1c/inc/sam3u/osc.h **** /*
  59:.././hal/sam3u1c/inc/sam3u/osc.h ****  * Below BOARD_XXX macros are related to the specific board, and
  60:.././hal/sam3u1c/inc/sam3u/osc.h ****  * should be defined by the board code, otherwise default value are used.
  61:.././hal/sam3u1c/inc/sam3u/osc.h ****  */
  62:.././hal/sam3u1c/inc/sam3u/osc.h **** #if !defined(BOARD_FREQ_SLCK_XTAL)
  63:.././hal/sam3u1c/inc/sam3u/osc.h **** #  warning The board slow clock xtal frequency has not been defined.
  64:.././hal/sam3u1c/inc/sam3u/osc.h **** #  define BOARD_FREQ_SLCK_XTAL      (32768UL)
  65:.././hal/sam3u1c/inc/sam3u/osc.h **** #endif
  66:.././hal/sam3u1c/inc/sam3u/osc.h **** 
  67:.././hal/sam3u1c/inc/sam3u/osc.h **** #if !defined(BOARD_FREQ_SLCK_BYPASS)
  68:.././hal/sam3u1c/inc/sam3u/osc.h **** #  warning The board slow clock bypass frequency has not been defined.
  69:.././hal/sam3u1c/inc/sam3u/osc.h **** #  define BOARD_FREQ_SLCK_BYPASS    (32768UL)
  70:.././hal/sam3u1c/inc/sam3u/osc.h **** #endif
  71:.././hal/sam3u1c/inc/sam3u/osc.h **** 
  72:.././hal/sam3u1c/inc/sam3u/osc.h **** #if !defined(BOARD_FREQ_MAINCK_XTAL)
  73:.././hal/sam3u1c/inc/sam3u/osc.h **** #  warning The board main clock xtal frequency has not been defined.
  74:.././hal/sam3u1c/inc/sam3u/osc.h **** #  define BOARD_FREQ_MAINCK_XTAL    (12000000UL)
  75:.././hal/sam3u1c/inc/sam3u/osc.h **** #endif
  76:.././hal/sam3u1c/inc/sam3u/osc.h **** 
  77:.././hal/sam3u1c/inc/sam3u/osc.h **** #if !defined(BOARD_FREQ_MAINCK_BYPASS)
  78:.././hal/sam3u1c/inc/sam3u/osc.h **** #  warning The board main clock bypass frequency has not been defined.
  79:.././hal/sam3u1c/inc/sam3u/osc.h **** #  define BOARD_FREQ_MAINCK_BYPASS  (12000000UL)
  80:.././hal/sam3u1c/inc/sam3u/osc.h **** #endif
  81:.././hal/sam3u1c/inc/sam3u/osc.h **** 
  82:.././hal/sam3u1c/inc/sam3u/osc.h **** #if !defined(BOARD_OSC_STARTUP_US)
  83:.././hal/sam3u1c/inc/sam3u/osc.h **** #  warning The board main clock xtal startup time has not been defined.
  84:.././hal/sam3u1c/inc/sam3u/osc.h **** #  define BOARD_OSC_STARTUP_US      (15625UL)
  85:.././hal/sam3u1c/inc/sam3u/osc.h **** #endif
  86:.././hal/sam3u1c/inc/sam3u/osc.h **** 
  87:.././hal/sam3u1c/inc/sam3u/osc.h **** /**
  88:.././hal/sam3u1c/inc/sam3u/osc.h ****  * \weakgroup osc_group
  89:.././hal/sam3u1c/inc/sam3u/osc.h ****  * @{
  90:.././hal/sam3u1c/inc/sam3u/osc.h ****  */
  91:.././hal/sam3u1c/inc/sam3u/osc.h **** 
  92:.././hal/sam3u1c/inc/sam3u/osc.h **** //! \name Oscillator identifiers
  93:.././hal/sam3u1c/inc/sam3u/osc.h **** //@{
  94:.././hal/sam3u1c/inc/sam3u/osc.h **** #define OSC_SLCK_32K_RC             0    //!< Internal 32kHz RC oscillator.
  95:.././hal/sam3u1c/inc/sam3u/osc.h **** #define OSC_SLCK_32K_XTAL           1    //!< External 32kHz crystal oscillator.
  96:.././hal/sam3u1c/inc/sam3u/osc.h **** #define OSC_SLCK_32K_BYPASS         2    //!< External 32kHz bypass oscillator.
  97:.././hal/sam3u1c/inc/sam3u/osc.h **** #define OSC_MAINCK_4M_RC            3    //!< Internal 4MHz RC oscillator.
  98:.././hal/sam3u1c/inc/sam3u/osc.h **** #define OSC_MAINCK_8M_RC            4    //!< Internal 8MHz RC oscillator.
  99:.././hal/sam3u1c/inc/sam3u/osc.h **** #define OSC_MAINCK_12M_RC           5    //!< Internal 12MHz RC oscillator.
 100:.././hal/sam3u1c/inc/sam3u/osc.h **** #define OSC_MAINCK_XTAL             6    //!< External crystal oscillator.
 101:.././hal/sam3u1c/inc/sam3u/osc.h **** #define OSC_MAINCK_BYPASS           7    //!< External bypass oscillator.
 102:.././hal/sam3u1c/inc/sam3u/osc.h **** //@}
 103:.././hal/sam3u1c/inc/sam3u/osc.h **** 
 104:.././hal/sam3u1c/inc/sam3u/osc.h **** //! \name Oscillator clock speed in hertz
 105:.././hal/sam3u1c/inc/sam3u/osc.h **** //@{
 106:.././hal/sam3u1c/inc/sam3u/osc.h **** #define OSC_SLCK_32K_RC_HZ          CHIP_FREQ_SLCK_RC               //!< Internal 32kHz RC oscillat
 107:.././hal/sam3u1c/inc/sam3u/osc.h **** #define OSC_SLCK_32K_XTAL_HZ        BOARD_FREQ_SLCK_XTAL            //!< External 32kHz crystal osc
 108:.././hal/sam3u1c/inc/sam3u/osc.h **** #define OSC_SLCK_32K_BYPASS_HZ      BOARD_FREQ_SLCK_BYPASS          //!< External 32kHz bypass osci
 109:.././hal/sam3u1c/inc/sam3u/osc.h **** #define OSC_MAINCK_4M_RC_HZ         CHIP_FREQ_MAINCK_RC_4MHZ        //!< Internal 4MHz RC oscillato
 110:.././hal/sam3u1c/inc/sam3u/osc.h **** #define OSC_MAINCK_8M_RC_HZ         CHIP_FREQ_MAINCK_RC_8MHZ        //!< Internal 8MHz RC oscillato
 111:.././hal/sam3u1c/inc/sam3u/osc.h **** #define OSC_MAINCK_12M_RC_HZ        CHIP_FREQ_MAINCK_RC_12MHZ       //!< Internal 12MHz RC oscillat
 112:.././hal/sam3u1c/inc/sam3u/osc.h **** #define OSC_MAINCK_XTAL_HZ          BOARD_FREQ_MAINCK_XTAL          //!< External crystal oscillato
 113:.././hal/sam3u1c/inc/sam3u/osc.h **** #define OSC_MAINCK_BYPASS_HZ        BOARD_FREQ_MAINCK_BYPASS        //!< External bypass oscillator
 114:.././hal/sam3u1c/inc/sam3u/osc.h **** //@}
 115:.././hal/sam3u1c/inc/sam3u/osc.h **** 
 116:.././hal/sam3u1c/inc/sam3u/osc.h **** static inline void osc_enable(uint32_t ul_id)
 117:.././hal/sam3u1c/inc/sam3u/osc.h **** {
 118:.././hal/sam3u1c/inc/sam3u/osc.h **** 	switch (ul_id) {
 119:.././hal/sam3u1c/inc/sam3u/osc.h **** 	case OSC_SLCK_32K_RC:
 120:.././hal/sam3u1c/inc/sam3u/osc.h **** 		break;
 121:.././hal/sam3u1c/inc/sam3u/osc.h **** 
 122:.././hal/sam3u1c/inc/sam3u/osc.h **** 	case OSC_SLCK_32K_XTAL:
 123:.././hal/sam3u1c/inc/sam3u/osc.h **** 		pmc_switch_sclk_to_32kxtal(PMC_OSC_XTAL);
 124:.././hal/sam3u1c/inc/sam3u/osc.h **** 		break;
 125:.././hal/sam3u1c/inc/sam3u/osc.h **** 
 126:.././hal/sam3u1c/inc/sam3u/osc.h **** 	case OSC_SLCK_32K_BYPASS:
 127:.././hal/sam3u1c/inc/sam3u/osc.h **** 		pmc_switch_sclk_to_32kxtal(PMC_OSC_BYPASS);
 128:.././hal/sam3u1c/inc/sam3u/osc.h **** 		break;
 129:.././hal/sam3u1c/inc/sam3u/osc.h **** 
 130:.././hal/sam3u1c/inc/sam3u/osc.h **** 
 131:.././hal/sam3u1c/inc/sam3u/osc.h **** 	case OSC_MAINCK_4M_RC:
 132:.././hal/sam3u1c/inc/sam3u/osc.h **** 		pmc_osc_enable_fastrc(CKGR_MOR_MOSCRCF_4_MHz);
 133:.././hal/sam3u1c/inc/sam3u/osc.h **** 		break;
 134:.././hal/sam3u1c/inc/sam3u/osc.h **** 
 135:.././hal/sam3u1c/inc/sam3u/osc.h **** 	case OSC_MAINCK_8M_RC:
 136:.././hal/sam3u1c/inc/sam3u/osc.h **** 		pmc_osc_enable_fastrc(CKGR_MOR_MOSCRCF_8_MHz);
 137:.././hal/sam3u1c/inc/sam3u/osc.h **** 		break;
 138:.././hal/sam3u1c/inc/sam3u/osc.h **** 
 139:.././hal/sam3u1c/inc/sam3u/osc.h **** 	case OSC_MAINCK_12M_RC:
 140:.././hal/sam3u1c/inc/sam3u/osc.h **** 		pmc_osc_enable_fastrc(CKGR_MOR_MOSCRCF_12_MHz);
 141:.././hal/sam3u1c/inc/sam3u/osc.h **** 		break;
 142:.././hal/sam3u1c/inc/sam3u/osc.h **** 
 143:.././hal/sam3u1c/inc/sam3u/osc.h **** 
 144:.././hal/sam3u1c/inc/sam3u/osc.h **** 	case OSC_MAINCK_XTAL:
 145:.././hal/sam3u1c/inc/sam3u/osc.h **** 		pmc_osc_enable_main_xtal(pmc_us_to_moscxtst(
 146:.././hal/sam3u1c/inc/sam3u/osc.h **** 				BOARD_OSC_STARTUP_US, OSC_SLCK_32K_RC_HZ));
 147:.././hal/sam3u1c/inc/sam3u/osc.h **** 		break;
 148:.././hal/sam3u1c/inc/sam3u/osc.h **** 
 149:.././hal/sam3u1c/inc/sam3u/osc.h **** 	case OSC_MAINCK_BYPASS:
 150:.././hal/sam3u1c/inc/sam3u/osc.h **** 		pmc_osc_bypass_main_xtal();
 151:.././hal/sam3u1c/inc/sam3u/osc.h **** 		break;
 152:.././hal/sam3u1c/inc/sam3u/osc.h **** 	}
 153:.././hal/sam3u1c/inc/sam3u/osc.h **** }
 154:.././hal/sam3u1c/inc/sam3u/osc.h **** 
 155:.././hal/sam3u1c/inc/sam3u/osc.h **** static inline void osc_disable(uint32_t ul_id)
 156:.././hal/sam3u1c/inc/sam3u/osc.h **** {
 157:.././hal/sam3u1c/inc/sam3u/osc.h **** 	switch (ul_id) {
 158:.././hal/sam3u1c/inc/sam3u/osc.h **** 	case OSC_SLCK_32K_RC:
 159:.././hal/sam3u1c/inc/sam3u/osc.h **** 	case OSC_SLCK_32K_XTAL:
 160:.././hal/sam3u1c/inc/sam3u/osc.h **** 	case OSC_SLCK_32K_BYPASS:
 161:.././hal/sam3u1c/inc/sam3u/osc.h **** 		break;
 162:.././hal/sam3u1c/inc/sam3u/osc.h **** 
 163:.././hal/sam3u1c/inc/sam3u/osc.h **** 	case OSC_MAINCK_4M_RC:
 164:.././hal/sam3u1c/inc/sam3u/osc.h **** 	case OSC_MAINCK_8M_RC:
 165:.././hal/sam3u1c/inc/sam3u/osc.h **** 	case OSC_MAINCK_12M_RC:
 166:.././hal/sam3u1c/inc/sam3u/osc.h **** 		pmc_osc_disable_fastrc();
 167:.././hal/sam3u1c/inc/sam3u/osc.h **** 		break;
 168:.././hal/sam3u1c/inc/sam3u/osc.h **** 
 169:.././hal/sam3u1c/inc/sam3u/osc.h **** 	case OSC_MAINCK_XTAL:
 170:.././hal/sam3u1c/inc/sam3u/osc.h **** 		pmc_osc_disable_xtal(PMC_OSC_XTAL);
 171:.././hal/sam3u1c/inc/sam3u/osc.h **** 		break;
 172:.././hal/sam3u1c/inc/sam3u/osc.h **** 
 173:.././hal/sam3u1c/inc/sam3u/osc.h **** 	case OSC_MAINCK_BYPASS:
 174:.././hal/sam3u1c/inc/sam3u/osc.h **** 		pmc_osc_disable_xtal(PMC_OSC_BYPASS);
 175:.././hal/sam3u1c/inc/sam3u/osc.h **** 		break;
 176:.././hal/sam3u1c/inc/sam3u/osc.h **** 	}
 177:.././hal/sam3u1c/inc/sam3u/osc.h **** }
 178:.././hal/sam3u1c/inc/sam3u/osc.h **** 
 179:.././hal/sam3u1c/inc/sam3u/osc.h **** static inline bool osc_is_ready(uint32_t ul_id)
 180:.././hal/sam3u1c/inc/sam3u/osc.h **** {
 181:.././hal/sam3u1c/inc/sam3u/osc.h **** 	switch (ul_id) {
 182:.././hal/sam3u1c/inc/sam3u/osc.h **** 	case OSC_SLCK_32K_RC:
 183:.././hal/sam3u1c/inc/sam3u/osc.h **** 		return 1;
 184:.././hal/sam3u1c/inc/sam3u/osc.h **** 
 185:.././hal/sam3u1c/inc/sam3u/osc.h **** 	case OSC_SLCK_32K_XTAL:
 186:.././hal/sam3u1c/inc/sam3u/osc.h **** 	case OSC_SLCK_32K_BYPASS:
 187:.././hal/sam3u1c/inc/sam3u/osc.h **** 		return pmc_osc_is_ready_32kxtal();
 188:.././hal/sam3u1c/inc/sam3u/osc.h **** 
 189:.././hal/sam3u1c/inc/sam3u/osc.h **** 	case OSC_MAINCK_4M_RC:
 190:.././hal/sam3u1c/inc/sam3u/osc.h **** 	case OSC_MAINCK_8M_RC:
 191:.././hal/sam3u1c/inc/sam3u/osc.h **** 	case OSC_MAINCK_12M_RC:
 192:.././hal/sam3u1c/inc/sam3u/osc.h **** 		return pmc_osc_is_ready_fastrc();
 193:.././hal/sam3u1c/inc/sam3u/osc.h **** 
 194:.././hal/sam3u1c/inc/sam3u/osc.h **** 	case OSC_MAINCK_XTAL:
 195:.././hal/sam3u1c/inc/sam3u/osc.h **** 	case OSC_MAINCK_BYPASS:
 196:.././hal/sam3u1c/inc/sam3u/osc.h **** 		return pmc_osc_is_ready_main_xtal();
 197:.././hal/sam3u1c/inc/sam3u/osc.h **** 	}
 198:.././hal/sam3u1c/inc/sam3u/osc.h **** 
 199:.././hal/sam3u1c/inc/sam3u/osc.h **** 	return 0;
 200:.././hal/sam3u1c/inc/sam3u/osc.h **** }
 201:.././hal/sam3u1c/inc/sam3u/osc.h **** 
 202:.././hal/sam3u1c/inc/sam3u/osc.h **** static inline uint32_t osc_get_rate(uint32_t ul_id)
 203:.././hal/sam3u1c/inc/sam3u/osc.h **** {
  36              	 .loc 1 203 0
  37              	 .cfi_startproc
  38              	 
  39              	 
  40              	 
  41 0000 80B4     	 push {r7}
  42              	.LCFI0:
  43              	 .cfi_def_cfa_offset 4
  44              	 .cfi_offset 7,-4
  45 0002 83B0     	 sub sp,sp,#12
  46              	.LCFI1:
  47              	 .cfi_def_cfa_offset 16
  48 0004 00AF     	 add r7,sp,#0
  49              	.LCFI2:
  50              	 .cfi_def_cfa_register 7
  51 0006 7860     	 str r0,[r7,#4]
 204:.././hal/sam3u1c/inc/sam3u/osc.h **** 	switch (ul_id) {
  52              	 .loc 1 204 0
  53 0008 7B68     	 ldr r3,[r7,#4]
  54 000a 072B     	 cmp r3,#7
  55 000c 23D8     	 bhi .L2
  56 000e 01A2     	 adr r2,.L4
  57 0010 52F823F0 	 ldr pc,[r2,r3,lsl#2]
  58              	 .p2align 2
  59              	.L4:
  60 0014 35000000 	 .word .L3+1
  61 0018 3B000000 	 .word .L5+1
  62 001c 3F000000 	 .word .L6+1
  63 0020 43000000 	 .word .L7+1
  64 0024 47000000 	 .word .L8+1
  65 0028 4B000000 	 .word .L9+1
  66 002c 4F000000 	 .word .L10+1
  67 0030 53000000 	 .word .L11+1
  68              	 .p2align 1
  69              	.L3:
 205:.././hal/sam3u1c/inc/sam3u/osc.h **** 	case OSC_SLCK_32K_RC:
 206:.././hal/sam3u1c/inc/sam3u/osc.h **** 		return OSC_SLCK_32K_RC_HZ;
  70              	 .loc 1 206 0
  71 0034 4FF4FA43 	 mov r3,#32000
  72 0038 0EE0     	 b .L12
  73              	.L5:
 207:.././hal/sam3u1c/inc/sam3u/osc.h **** 
 208:.././hal/sam3u1c/inc/sam3u/osc.h **** 	case OSC_SLCK_32K_XTAL:
 209:.././hal/sam3u1c/inc/sam3u/osc.h **** 		return BOARD_FREQ_SLCK_XTAL;
  74              	 .loc 1 209 0
  75 003a 0023     	 movs r3,#0
  76 003c 0CE0     	 b .L12
  77              	.L6:
 210:.././hal/sam3u1c/inc/sam3u/osc.h **** 
 211:.././hal/sam3u1c/inc/sam3u/osc.h **** 	case OSC_SLCK_32K_BYPASS:
 212:.././hal/sam3u1c/inc/sam3u/osc.h **** 		return BOARD_FREQ_SLCK_BYPASS;
  78              	 .loc 1 212 0
  79 003e 0023     	 movs r3,#0
  80 0040 0AE0     	 b .L12
  81              	.L7:
 213:.././hal/sam3u1c/inc/sam3u/osc.h **** 
 214:.././hal/sam3u1c/inc/sam3u/osc.h **** 	case OSC_MAINCK_4M_RC:
 215:.././hal/sam3u1c/inc/sam3u/osc.h **** 		return OSC_MAINCK_4M_RC_HZ;
  82              	 .loc 1 215 0
  83 0042 084B     	 ldr r3,.L13
  84 0044 08E0     	 b .L12
  85              	.L8:
 216:.././hal/sam3u1c/inc/sam3u/osc.h **** 
 217:.././hal/sam3u1c/inc/sam3u/osc.h **** 	case OSC_MAINCK_8M_RC:
 218:.././hal/sam3u1c/inc/sam3u/osc.h **** 		return OSC_MAINCK_8M_RC_HZ;
  86              	 .loc 1 218 0
  87 0046 084B     	 ldr r3,.L13+4
  88 0048 06E0     	 b .L12
  89              	.L9:
 219:.././hal/sam3u1c/inc/sam3u/osc.h **** 
 220:.././hal/sam3u1c/inc/sam3u/osc.h **** 	case OSC_MAINCK_12M_RC:
 221:.././hal/sam3u1c/inc/sam3u/osc.h **** 		return OSC_MAINCK_12M_RC_HZ;
  90              	 .loc 1 221 0
  91 004a 084B     	 ldr r3,.L13+8
  92 004c 04E0     	 b .L12
  93              	.L10:
 222:.././hal/sam3u1c/inc/sam3u/osc.h **** 
 223:.././hal/sam3u1c/inc/sam3u/osc.h **** 	case OSC_MAINCK_XTAL:
 224:.././hal/sam3u1c/inc/sam3u/osc.h **** 		return BOARD_FREQ_MAINCK_XTAL;
  94              	 .loc 1 224 0
  95 004e 074B     	 ldr r3,.L13+8
  96 0050 02E0     	 b .L12
  97              	.L11:
 225:.././hal/sam3u1c/inc/sam3u/osc.h **** 
 226:.././hal/sam3u1c/inc/sam3u/osc.h **** 	case OSC_MAINCK_BYPASS:
 227:.././hal/sam3u1c/inc/sam3u/osc.h **** 		return BOARD_FREQ_MAINCK_BYPASS;
  98              	 .loc 1 227 0
  99 0052 064B     	 ldr r3,.L13+8
 100 0054 00E0     	 b .L12
 101              	.L2:
 228:.././hal/sam3u1c/inc/sam3u/osc.h **** 	}
 229:.././hal/sam3u1c/inc/sam3u/osc.h **** 
 230:.././hal/sam3u1c/inc/sam3u/osc.h **** 	return 0;
 102              	 .loc 1 230 0
 103 0056 0023     	 movs r3,#0
 104              	.L12:
 231:.././hal/sam3u1c/inc/sam3u/osc.h **** }
 105              	 .loc 1 231 0
 106 0058 1846     	 mov r0,r3
 107 005a 0C37     	 adds r7,r7,#12
 108              	.LCFI3:
 109              	 .cfi_def_cfa_offset 4
 110 005c BD46     	 mov sp,r7
 111              	.LCFI4:
 112              	 .cfi_def_cfa_register 13
 113              	 
 114 005e 80BC     	 pop {r7}
 115              	.LCFI5:
 116              	 .cfi_restore 7
 117              	 .cfi_def_cfa_offset 0
 118 0060 7047     	 bx lr
 119              	.L14:
 120 0062 00BF     	 .align 2
 121              	.L13:
 122 0064 00093D00 	 .word 4000000
 123 0068 00127A00 	 .word 8000000
 124 006c 001BB700 	 .word 12000000
 125              	 .cfi_endproc
 126              	.LFE70:
 128              	 .section .text.sysclk_get_main_hz,"ax",%progbits
 129              	 .align 1
 130              	 .syntax unified
 131              	 .thumb
 132              	 .thumb_func
 133              	 .fpu softvfp
 135              	sysclk_get_main_hz:
 136              	.LFB81:
 137              	 .file 2 ".././hal/sam3u1c/inc/sam3u/sysclk.h"
   1:.././hal/sam3u1c/inc/sam3u/sysclk.h **** /**
   2:.././hal/sam3u1c/inc/sam3u/sysclk.h ****  * \file
   3:.././hal/sam3u1c/inc/sam3u/sysclk.h ****  *
   4:.././hal/sam3u1c/inc/sam3u/sysclk.h ****  * \brief Chip-specific system clock management functions.
   5:.././hal/sam3u1c/inc/sam3u/sysclk.h ****  *
   6:.././hal/sam3u1c/inc/sam3u/sysclk.h ****  * Copyright (c) 2011 - 2014 Atmel Corporation. All rights reserved.
   7:.././hal/sam3u1c/inc/sam3u/sysclk.h ****  *
   8:.././hal/sam3u1c/inc/sam3u/sysclk.h ****  * \asf_license_start
   9:.././hal/sam3u1c/inc/sam3u/sysclk.h ****  *
  10:.././hal/sam3u1c/inc/sam3u/sysclk.h ****  * \page License
  11:.././hal/sam3u1c/inc/sam3u/sysclk.h ****  *
  12:.././hal/sam3u1c/inc/sam3u/sysclk.h ****  * Redistribution and use in source and binary forms, with or without
  13:.././hal/sam3u1c/inc/sam3u/sysclk.h ****  * modification, are permitted provided that the following conditions are met:
  14:.././hal/sam3u1c/inc/sam3u/sysclk.h ****  *
  15:.././hal/sam3u1c/inc/sam3u/sysclk.h ****  * 1. Redistributions of source code must retain the above copyright notice,
  16:.././hal/sam3u1c/inc/sam3u/sysclk.h ****  *    this list of conditions and the following disclaimer.
  17:.././hal/sam3u1c/inc/sam3u/sysclk.h ****  *
  18:.././hal/sam3u1c/inc/sam3u/sysclk.h ****  * 2. Redistributions in binary form must reproduce the above copyright notice,
  19:.././hal/sam3u1c/inc/sam3u/sysclk.h ****  *    this list of conditions and the following disclaimer in the documentation
  20:.././hal/sam3u1c/inc/sam3u/sysclk.h ****  *    and/or other materials provided with the distribution.
  21:.././hal/sam3u1c/inc/sam3u/sysclk.h ****  *
  22:.././hal/sam3u1c/inc/sam3u/sysclk.h ****  * 3. The name of Atmel may not be used to endorse or promote products derived
  23:.././hal/sam3u1c/inc/sam3u/sysclk.h ****  *    from this software without specific prior written permission.
  24:.././hal/sam3u1c/inc/sam3u/sysclk.h ****  *
  25:.././hal/sam3u1c/inc/sam3u/sysclk.h ****  * 4. This software may only be redistributed and used in connection with an
  26:.././hal/sam3u1c/inc/sam3u/sysclk.h ****  *    Atmel microcontroller product.
  27:.././hal/sam3u1c/inc/sam3u/sysclk.h ****  *
  28:.././hal/sam3u1c/inc/sam3u/sysclk.h ****  * THIS SOFTWARE IS PROVIDED BY ATMEL "AS IS" AND ANY EXPRESS OR IMPLIED
  29:.././hal/sam3u1c/inc/sam3u/sysclk.h ****  * WARRANTIES, INCLUDING, BUT NOT LIMITED TO, THE IMPLIED WARRANTIES OF
  30:.././hal/sam3u1c/inc/sam3u/sysclk.h ****  * MERCHANTABILITY, FITNESS FOR A PARTICULAR PURPOSE AND NON-INFRINGEMENT ARE
  31:.././hal/sam3u1c/inc/sam3u/sysclk.h ****  * EXPRESSLY AND SPECIFICALLY DISCLAIMED. IN NO EVENT SHALL ATMEL BE LIABLE FOR
  32:.././hal/sam3u1c/inc/sam3u/sysclk.h ****  * ANY DIRECT, INDIRECT, INCIDENTAL, SPECIAL, EXEMPLARY, OR CONSEQUENTIAL
  33:.././hal/sam3u1c/inc/sam3u/sysclk.h ****  * DAMAGES (INCLUDING, BUT NOT LIMITED TO, PROCUREMENT OF SUBSTITUTE GOODS
  34:.././hal/sam3u1c/inc/sam3u/sysclk.h ****  * OR SERVICES; LOSS OF USE, DATA, OR PROFITS; OR BUSINESS INTERRUPTION)
  35:.././hal/sam3u1c/inc/sam3u/sysclk.h ****  * HOWEVER CAUSED AND ON ANY THEORY OF LIABILITY, WHETHER IN CONTRACT,
  36:.././hal/sam3u1c/inc/sam3u/sysclk.h ****  * STRICT LIABILITY, OR TORT (INCLUDING NEGLIGENCE OR OTHERWISE) ARISING IN
  37:.././hal/sam3u1c/inc/sam3u/sysclk.h ****  * ANY WAY OUT OF THE USE OF THIS SOFTWARE, EVEN IF ADVISED OF THE
  38:.././hal/sam3u1c/inc/sam3u/sysclk.h ****  * POSSIBILITY OF SUCH DAMAGE.
  39:.././hal/sam3u1c/inc/sam3u/sysclk.h ****  *
  40:.././hal/sam3u1c/inc/sam3u/sysclk.h ****  * \asf_license_stop
  41:.././hal/sam3u1c/inc/sam3u/sysclk.h ****  *
  42:.././hal/sam3u1c/inc/sam3u/sysclk.h ****  */
  43:.././hal/sam3u1c/inc/sam3u/sysclk.h **** 
  44:.././hal/sam3u1c/inc/sam3u/sysclk.h **** #ifndef CHIP_SYSCLK_H_INCLUDED
  45:.././hal/sam3u1c/inc/sam3u/sysclk.h **** #define CHIP_SYSCLK_H_INCLUDED
  46:.././hal/sam3u1c/inc/sam3u/sysclk.h **** 
  47:.././hal/sam3u1c/inc/sam3u/sysclk.h **** #include <osc.h>
  48:.././hal/sam3u1c/inc/sam3u/sysclk.h **** #include <pll.h>
  49:.././hal/sam3u1c/inc/sam3u/sysclk.h **** 
  50:.././hal/sam3u1c/inc/sam3u/sysclk.h **** /**
  51:.././hal/sam3u1c/inc/sam3u/sysclk.h ****  * \page sysclk_quickstart Quick Start Guide for the System Clock Management service (SAM3U)
  52:.././hal/sam3u1c/inc/sam3u/sysclk.h ****  *
  53:.././hal/sam3u1c/inc/sam3u/sysclk.h ****  * This is the quick start guide for the \ref sysclk_group "System Clock Management"
  54:.././hal/sam3u1c/inc/sam3u/sysclk.h ****  * service, with step-by-step instructions on how to configure and use the service for
  55:.././hal/sam3u1c/inc/sam3u/sysclk.h ****  * specific use cases.
  56:.././hal/sam3u1c/inc/sam3u/sysclk.h ****  *
  57:.././hal/sam3u1c/inc/sam3u/sysclk.h ****  * \section sysclk_quickstart_usecases System Clock Management use cases
  58:.././hal/sam3u1c/inc/sam3u/sysclk.h ****  * - \ref sysclk_quickstart_basic
  59:.././hal/sam3u1c/inc/sam3u/sysclk.h ****  *
  60:.././hal/sam3u1c/inc/sam3u/sysclk.h ****  * \section sysclk_quickstart_basic Basic usage of the System Clock Management service
  61:.././hal/sam3u1c/inc/sam3u/sysclk.h ****  * This section will present a basic use case for the System Clock Management service.
  62:.././hal/sam3u1c/inc/sam3u/sysclk.h ****  * This use case will configure the main system clock to 96MHz, using an internal PLL
  63:.././hal/sam3u1c/inc/sam3u/sysclk.h ****  * module to multiply the frequency of a crystal attached to the microcontroller.
  64:.././hal/sam3u1c/inc/sam3u/sysclk.h ****  *
  65:.././hal/sam3u1c/inc/sam3u/sysclk.h ****  * \subsection sysclk_quickstart_use_case_1_prereq Prerequisites
  66:.././hal/sam3u1c/inc/sam3u/sysclk.h ****  *  - None
  67:.././hal/sam3u1c/inc/sam3u/sysclk.h ****  *
  68:.././hal/sam3u1c/inc/sam3u/sysclk.h ****  * \subsection sysclk_quickstart_use_case_1_setup_steps Initialization code
  69:.././hal/sam3u1c/inc/sam3u/sysclk.h ****  * Add to the application initialization code:
  70:.././hal/sam3u1c/inc/sam3u/sysclk.h ****  * \code
  71:.././hal/sam3u1c/inc/sam3u/sysclk.h **** 	sysclk_init();
  72:.././hal/sam3u1c/inc/sam3u/sysclk.h **** \endcode
  73:.././hal/sam3u1c/inc/sam3u/sysclk.h ****  *
  74:.././hal/sam3u1c/inc/sam3u/sysclk.h ****  * \subsection sysclk_quickstart_use_case_1_setup_steps_workflow Workflow
  75:.././hal/sam3u1c/inc/sam3u/sysclk.h ****  * -# Configure the system clocks according to the settings in conf_clock.h:
  76:.././hal/sam3u1c/inc/sam3u/sysclk.h ****  *    \code sysclk_init(); \endcode
  77:.././hal/sam3u1c/inc/sam3u/sysclk.h ****  *
  78:.././hal/sam3u1c/inc/sam3u/sysclk.h ****  * \subsection sysclk_quickstart_use_case_1_example_code Example code
  79:.././hal/sam3u1c/inc/sam3u/sysclk.h ****  *   Add or uncomment the following in your conf_clock.h header file, commenting out all other
  80:.././hal/sam3u1c/inc/sam3u/sysclk.h ****  *   definitions of the same symbol(s):
  81:.././hal/sam3u1c/inc/sam3u/sysclk.h ****  *   \code
  82:.././hal/sam3u1c/inc/sam3u/sysclk.h **** 	   #define CONFIG_SYSCLK_SOURCE        SYSCLK_SRC_PLLACK
  83:.././hal/sam3u1c/inc/sam3u/sysclk.h **** 
  84:.././hal/sam3u1c/inc/sam3u/sysclk.h **** 	   // Fpll0 = (Fclk * PLL_mul) / PLL_div
  85:.././hal/sam3u1c/inc/sam3u/sysclk.h **** 	   #define CONFIG_PLL0_SOURCE          PLL_SRC_MAINCK_XTAL
  86:.././hal/sam3u1c/inc/sam3u/sysclk.h **** 	   #define CONFIG_PLL0_MUL             (96000000UL / BOARD_FREQ_MAINCK_XTAL)
  87:.././hal/sam3u1c/inc/sam3u/sysclk.h **** 	   #define CONFIG_PLL0_DIV             1
  88:.././hal/sam3u1c/inc/sam3u/sysclk.h **** 
  89:.././hal/sam3u1c/inc/sam3u/sysclk.h **** 	   // Fbus = Fsys / BUS_div
  90:.././hal/sam3u1c/inc/sam3u/sysclk.h **** 	   #define CONFIG_SYSCLK_PRES          SYSCLK_PRES_1
  91:.././hal/sam3u1c/inc/sam3u/sysclk.h **** \endcode
  92:.././hal/sam3u1c/inc/sam3u/sysclk.h ****  *
  93:.././hal/sam3u1c/inc/sam3u/sysclk.h ****  * \subsection sysclk_quickstart_use_case_1_example_workflow Workflow
  94:.././hal/sam3u1c/inc/sam3u/sysclk.h ****  *  -# Configure the main system clock to use the output of the PLL module as its source:
  95:.././hal/sam3u1c/inc/sam3u/sysclk.h ****  *   \code #define CONFIG_SYSCLK_SOURCE          SYSCLK_SRC_PLLACK \endcode
  96:.././hal/sam3u1c/inc/sam3u/sysclk.h ****  *  -# Configure the PLL module to use the fast external fast crystal oscillator as its source:
  97:.././hal/sam3u1c/inc/sam3u/sysclk.h ****  *   \code #define CONFIG_PLL0_SOURCE            PLL_SRC_MAINCK_XTAL \endcode
  98:.././hal/sam3u1c/inc/sam3u/sysclk.h ****  *  -# Configure the PLL module to multiply the external fast crystal oscillator frequency up to 96
  99:.././hal/sam3u1c/inc/sam3u/sysclk.h ****  *   \code
 100:.././hal/sam3u1c/inc/sam3u/sysclk.h **** 	#define CONFIG_PLL0_MUL             (96000000UL / BOARD_FREQ_MAINCK_XTAL)
 101:.././hal/sam3u1c/inc/sam3u/sysclk.h **** 	#define CONFIG_PLL0_DIV             1
 102:.././hal/sam3u1c/inc/sam3u/sysclk.h **** \endcode
 103:.././hal/sam3u1c/inc/sam3u/sysclk.h ****  *   \note For user boards, \c BOARD_FREQ_MAINCK_XTAL should be defined in the board \c conf_board.
 104:.././hal/sam3u1c/inc/sam3u/sysclk.h ****  *         file as the frequency of the fast crystal attached to the microcontroller.
 105:.././hal/sam3u1c/inc/sam3u/sysclk.h ****  *  -# Configure the main clock to run at the full 96MHz, disable scaling of the main system clock 
 106:.././hal/sam3u1c/inc/sam3u/sysclk.h ****  *    \code
 107:.././hal/sam3u1c/inc/sam3u/sysclk.h **** 	#define CONFIG_SYSCLK_PRES         SYSCLK_PRES_1
 108:.././hal/sam3u1c/inc/sam3u/sysclk.h **** \endcode
 109:.././hal/sam3u1c/inc/sam3u/sysclk.h ****  *    \note Some dividers are powers of two, while others are integer division factors. Refer to th
 110:.././hal/sam3u1c/inc/sam3u/sysclk.h ****  *          formulas in the conf_clock.h template commented above each division define.
 111:.././hal/sam3u1c/inc/sam3u/sysclk.h ****  */
 112:.././hal/sam3u1c/inc/sam3u/sysclk.h **** 
 113:.././hal/sam3u1c/inc/sam3u/sysclk.h **** /// @cond 0
 114:.././hal/sam3u1c/inc/sam3u/sysclk.h **** /**INDENT-OFF**/
 115:.././hal/sam3u1c/inc/sam3u/sysclk.h **** #ifdef __cplusplus
 116:.././hal/sam3u1c/inc/sam3u/sysclk.h **** extern "C" {
 117:.././hal/sam3u1c/inc/sam3u/sysclk.h **** #endif
 118:.././hal/sam3u1c/inc/sam3u/sysclk.h **** /**INDENT-ON**/
 119:.././hal/sam3u1c/inc/sam3u/sysclk.h **** /// @endcond
 120:.././hal/sam3u1c/inc/sam3u/sysclk.h **** 
 121:.././hal/sam3u1c/inc/sam3u/sysclk.h **** /**
 122:.././hal/sam3u1c/inc/sam3u/sysclk.h ****  * \weakgroup sysclk_group
 123:.././hal/sam3u1c/inc/sam3u/sysclk.h ****  * @{
 124:.././hal/sam3u1c/inc/sam3u/sysclk.h ****  */
 125:.././hal/sam3u1c/inc/sam3u/sysclk.h **** 
 126:.././hal/sam3u1c/inc/sam3u/sysclk.h **** //! \name Configuration Symbols
 127:.././hal/sam3u1c/inc/sam3u/sysclk.h **** //@{
 128:.././hal/sam3u1c/inc/sam3u/sysclk.h **** /**
 129:.././hal/sam3u1c/inc/sam3u/sysclk.h ****  * \def CONFIG_SYSCLK_SOURCE
 130:.././hal/sam3u1c/inc/sam3u/sysclk.h ****  * \brief Initial/static main system clock source
 131:.././hal/sam3u1c/inc/sam3u/sysclk.h ****  *
 132:.././hal/sam3u1c/inc/sam3u/sysclk.h ****  * The main system clock will be configured to use this clock during
 133:.././hal/sam3u1c/inc/sam3u/sysclk.h ****  * initialization.
 134:.././hal/sam3u1c/inc/sam3u/sysclk.h ****  */
 135:.././hal/sam3u1c/inc/sam3u/sysclk.h **** #ifndef CONFIG_SYSCLK_SOURCE
 136:.././hal/sam3u1c/inc/sam3u/sysclk.h **** # define CONFIG_SYSCLK_SOURCE   SYSCLK_SRC_MAINCK_4M_RC
 137:.././hal/sam3u1c/inc/sam3u/sysclk.h **** #endif
 138:.././hal/sam3u1c/inc/sam3u/sysclk.h **** /**
 139:.././hal/sam3u1c/inc/sam3u/sysclk.h ****  * \def CONFIG_SYSCLK_PRES
 140:.././hal/sam3u1c/inc/sam3u/sysclk.h ****  * \brief Initial CPU clock divider (mck)
 141:.././hal/sam3u1c/inc/sam3u/sysclk.h ****  *
 142:.././hal/sam3u1c/inc/sam3u/sysclk.h ****  * The MCK will run at
 143:.././hal/sam3u1c/inc/sam3u/sysclk.h ****  * \f[
 144:.././hal/sam3u1c/inc/sam3u/sysclk.h ****  *   f_{MCK} = \frac{f_{sys}}{\mathrm{CONFIG\_SYSCLK\_PRES}}\,\mbox{Hz}
 145:.././hal/sam3u1c/inc/sam3u/sysclk.h ****  * \f]
 146:.././hal/sam3u1c/inc/sam3u/sysclk.h ****  * after initialization.
 147:.././hal/sam3u1c/inc/sam3u/sysclk.h ****  */
 148:.././hal/sam3u1c/inc/sam3u/sysclk.h **** #ifndef CONFIG_SYSCLK_PRES
 149:.././hal/sam3u1c/inc/sam3u/sysclk.h **** # define CONFIG_SYSCLK_PRES  0
 150:.././hal/sam3u1c/inc/sam3u/sysclk.h **** #endif
 151:.././hal/sam3u1c/inc/sam3u/sysclk.h **** 
 152:.././hal/sam3u1c/inc/sam3u/sysclk.h **** //@}
 153:.././hal/sam3u1c/inc/sam3u/sysclk.h **** 
 154:.././hal/sam3u1c/inc/sam3u/sysclk.h **** //! \name Master Clock Sources (MCK)
 155:.././hal/sam3u1c/inc/sam3u/sysclk.h **** //@{
 156:.././hal/sam3u1c/inc/sam3u/sysclk.h **** #define SYSCLK_SRC_SLCK_RC              0       //!< Internal 32kHz RC oscillator as master source 
 157:.././hal/sam3u1c/inc/sam3u/sysclk.h **** #define SYSCLK_SRC_SLCK_XTAL            1       //!< External 32kHz crystal oscillator as master so
 158:.././hal/sam3u1c/inc/sam3u/sysclk.h **** #define SYSCLK_SRC_SLCK_BYPASS          2       //!< External 32kHz bypass oscillator as master sou
 159:.././hal/sam3u1c/inc/sam3u/sysclk.h **** #define SYSCLK_SRC_MAINCK_4M_RC         3       //!< Internal 4MHz RC oscillator as master source c
 160:.././hal/sam3u1c/inc/sam3u/sysclk.h **** #define SYSCLK_SRC_MAINCK_8M_RC         4       //!< Internal 8MHz RC oscillator as master source c
 161:.././hal/sam3u1c/inc/sam3u/sysclk.h **** #define SYSCLK_SRC_MAINCK_12M_RC        5       //!< Internal 12MHz RC oscillator as master source 
 162:.././hal/sam3u1c/inc/sam3u/sysclk.h **** #define SYSCLK_SRC_MAINCK_XTAL          6       //!< External crystal oscillator as master source c
 163:.././hal/sam3u1c/inc/sam3u/sysclk.h **** #define SYSCLK_SRC_MAINCK_BYPASS        7       //!< External bypass oscillator as master source cl
 164:.././hal/sam3u1c/inc/sam3u/sysclk.h **** #define SYSCLK_SRC_PLLACK               8       //!< Use PLLACK as master source clock
 165:.././hal/sam3u1c/inc/sam3u/sysclk.h **** #define SYSCLK_SRC_UPLLCK               9       //!< Use UPLLCK as master source clock
 166:.././hal/sam3u1c/inc/sam3u/sysclk.h **** //@}
 167:.././hal/sam3u1c/inc/sam3u/sysclk.h **** 
 168:.././hal/sam3u1c/inc/sam3u/sysclk.h **** //! \name Master Clock Prescalers (MCK)
 169:.././hal/sam3u1c/inc/sam3u/sysclk.h **** //@{
 170:.././hal/sam3u1c/inc/sam3u/sysclk.h **** #define SYSCLK_PRES_1           PMC_MCKR_PRES_CLK_1     //!< Set master clock prescaler to 1
 171:.././hal/sam3u1c/inc/sam3u/sysclk.h **** #define SYSCLK_PRES_2           PMC_MCKR_PRES_CLK_2     //!< Set master clock prescaler to 2
 172:.././hal/sam3u1c/inc/sam3u/sysclk.h **** #define SYSCLK_PRES_4           PMC_MCKR_PRES_CLK_4     //!< Set master clock prescaler to 4
 173:.././hal/sam3u1c/inc/sam3u/sysclk.h **** #define SYSCLK_PRES_8           PMC_MCKR_PRES_CLK_8     //!< Set master clock prescaler to 8
 174:.././hal/sam3u1c/inc/sam3u/sysclk.h **** #define SYSCLK_PRES_16          PMC_MCKR_PRES_CLK_16    //!< Set master clock prescaler to 16
 175:.././hal/sam3u1c/inc/sam3u/sysclk.h **** #define SYSCLK_PRES_32          PMC_MCKR_PRES_CLK_32    //!< Set master clock prescaler to 32
 176:.././hal/sam3u1c/inc/sam3u/sysclk.h **** #define SYSCLK_PRES_64          PMC_MCKR_PRES_CLK_64    //!< Set master clock prescaler to 64
 177:.././hal/sam3u1c/inc/sam3u/sysclk.h **** #define SYSCLK_PRES_3           PMC_MCKR_PRES_CLK_3     //!< Set master clock prescaler to 3
 178:.././hal/sam3u1c/inc/sam3u/sysclk.h **** //@}
 179:.././hal/sam3u1c/inc/sam3u/sysclk.h **** 
 180:.././hal/sam3u1c/inc/sam3u/sysclk.h **** /**
 181:.././hal/sam3u1c/inc/sam3u/sysclk.h ****  * \def CONFIG_USBCLK_SOURCE
 182:.././hal/sam3u1c/inc/sam3u/sysclk.h ****  * \brief Configuration symbol for the USB generic clock source
 183:.././hal/sam3u1c/inc/sam3u/sysclk.h ****  *
 184:.././hal/sam3u1c/inc/sam3u/sysclk.h ****  * Sets the clock source to use for the USB. The source must also be properly
 185:.././hal/sam3u1c/inc/sam3u/sysclk.h ****  * configured.
 186:.././hal/sam3u1c/inc/sam3u/sysclk.h ****  *
 187:.././hal/sam3u1c/inc/sam3u/sysclk.h ****  * Define this to one of the \c USBCLK_SRC_xxx settings. Leave it undefined if
 188:.././hal/sam3u1c/inc/sam3u/sysclk.h ****  * USB is not required.
 189:.././hal/sam3u1c/inc/sam3u/sysclk.h ****  */
 190:.././hal/sam3u1c/inc/sam3u/sysclk.h **** #ifdef __DOXYGEN__
 191:.././hal/sam3u1c/inc/sam3u/sysclk.h **** # define CONFIG_USBCLK_SOURCE
 192:.././hal/sam3u1c/inc/sam3u/sysclk.h **** #endif
 193:.././hal/sam3u1c/inc/sam3u/sysclk.h **** 
 194:.././hal/sam3u1c/inc/sam3u/sysclk.h **** /**
 195:.././hal/sam3u1c/inc/sam3u/sysclk.h ****  * \def CONFIG_USBCLK_DIV
 196:.././hal/sam3u1c/inc/sam3u/sysclk.h ****  * \brief Configuration symbol for the USB generic clock divider setting
 197:.././hal/sam3u1c/inc/sam3u/sysclk.h ****  *
 198:.././hal/sam3u1c/inc/sam3u/sysclk.h ****  * Sets the clock division for the USB generic clock. If a USB clock source is
 199:.././hal/sam3u1c/inc/sam3u/sysclk.h ****  * selected with CONFIG_USBCLK_SOURCE, this configuration symbol must also be
 200:.././hal/sam3u1c/inc/sam3u/sysclk.h ****  * defined.
 201:.././hal/sam3u1c/inc/sam3u/sysclk.h ****  */
 202:.././hal/sam3u1c/inc/sam3u/sysclk.h **** #ifdef __DOXYGEN__
 203:.././hal/sam3u1c/inc/sam3u/sysclk.h **** # define CONFIG_USBCLK_DIV
 204:.././hal/sam3u1c/inc/sam3u/sysclk.h **** #endif
 205:.././hal/sam3u1c/inc/sam3u/sysclk.h **** 
 206:.././hal/sam3u1c/inc/sam3u/sysclk.h **** /**
 207:.././hal/sam3u1c/inc/sam3u/sysclk.h ****  * \name Querying the system clock
 208:.././hal/sam3u1c/inc/sam3u/sysclk.h ****  *
 209:.././hal/sam3u1c/inc/sam3u/sysclk.h ****  * The following functions may be used to query the current frequency of
 210:.././hal/sam3u1c/inc/sam3u/sysclk.h ****  * the system clock and the CPU and bus clocks derived from it.
 211:.././hal/sam3u1c/inc/sam3u/sysclk.h ****  * sysclk_get_main_hz() and sysclk_get_cpu_hz() can be assumed to be
 212:.././hal/sam3u1c/inc/sam3u/sysclk.h ****  * available on all platforms, although some platforms may define
 213:.././hal/sam3u1c/inc/sam3u/sysclk.h ****  * additional accessors for various chip-internal bus clocks. These are
 214:.././hal/sam3u1c/inc/sam3u/sysclk.h ****  * usually not intended to be queried directly by generic code.
 215:.././hal/sam3u1c/inc/sam3u/sysclk.h ****  */
 216:.././hal/sam3u1c/inc/sam3u/sysclk.h **** //@{
 217:.././hal/sam3u1c/inc/sam3u/sysclk.h **** 
 218:.././hal/sam3u1c/inc/sam3u/sysclk.h **** /**
 219:.././hal/sam3u1c/inc/sam3u/sysclk.h ****  * \brief Return the current rate in Hz of the main system clock
 220:.././hal/sam3u1c/inc/sam3u/sysclk.h ****  *
 221:.././hal/sam3u1c/inc/sam3u/sysclk.h ****  * \todo This function assumes that the main clock source never changes
 222:.././hal/sam3u1c/inc/sam3u/sysclk.h ****  * once it's been set up, and that PLL0 always runs at the compile-time
 223:.././hal/sam3u1c/inc/sam3u/sysclk.h ****  * configured default rate. While this is probably the most common
 224:.././hal/sam3u1c/inc/sam3u/sysclk.h ****  * configuration, which we want to support as a special case for
 225:.././hal/sam3u1c/inc/sam3u/sysclk.h ****  * performance reasons, we will at some point need to support more
 226:.././hal/sam3u1c/inc/sam3u/sysclk.h ****  * dynamic setups as well.
 227:.././hal/sam3u1c/inc/sam3u/sysclk.h ****  */
 228:.././hal/sam3u1c/inc/sam3u/sysclk.h **** #if (defined CONFIG_SYSCLK_DEFAULT_RETURNS_SLOW_OSC)
 229:.././hal/sam3u1c/inc/sam3u/sysclk.h **** extern uint32_t sysclk_initialized;
 230:.././hal/sam3u1c/inc/sam3u/sysclk.h **** #endif
 231:.././hal/sam3u1c/inc/sam3u/sysclk.h **** static inline uint32_t sysclk_get_main_hz(void)
 232:.././hal/sam3u1c/inc/sam3u/sysclk.h **** {
 138              	 .loc 2 232 0
 139              	 .cfi_startproc
 140              	 
 141              	 
 142 0000 80B5     	 push {r7,lr}
 143              	.LCFI6:
 144              	 .cfi_def_cfa_offset 8
 145              	 .cfi_offset 7,-8
 146              	 .cfi_offset 14,-4
 147 0002 00AF     	 add r7,sp,#0
 148              	.LCFI7:
 149              	 .cfi_def_cfa_register 7
 233:.././hal/sam3u1c/inc/sam3u/sysclk.h **** #if (defined CONFIG_SYSCLK_DEFAULT_RETURNS_SLOW_OSC)
 234:.././hal/sam3u1c/inc/sam3u/sysclk.h **** 	if (!sysclk_initialized ) {
 235:.././hal/sam3u1c/inc/sam3u/sysclk.h **** 		return OSC_MAINCK_4M_RC_HZ;
 236:.././hal/sam3u1c/inc/sam3u/sysclk.h **** 	}
 237:.././hal/sam3u1c/inc/sam3u/sysclk.h **** #endif
 238:.././hal/sam3u1c/inc/sam3u/sysclk.h **** 
 239:.././hal/sam3u1c/inc/sam3u/sysclk.h **** 	/* Config system clock setting */
 240:.././hal/sam3u1c/inc/sam3u/sysclk.h **** 	if (CONFIG_SYSCLK_SOURCE == SYSCLK_SRC_SLCK_RC) {
 241:.././hal/sam3u1c/inc/sam3u/sysclk.h **** 		return OSC_SLCK_32K_RC_HZ;
 242:.././hal/sam3u1c/inc/sam3u/sysclk.h **** 	} else if (CONFIG_SYSCLK_SOURCE == SYSCLK_SRC_SLCK_XTAL) {
 243:.././hal/sam3u1c/inc/sam3u/sysclk.h **** 		return OSC_SLCK_32K_XTAL_HZ;
 244:.././hal/sam3u1c/inc/sam3u/sysclk.h **** 	} else if (CONFIG_SYSCLK_SOURCE == SYSCLK_SRC_SLCK_BYPASS) {
 245:.././hal/sam3u1c/inc/sam3u/sysclk.h **** 		return OSC_SLCK_32K_BYPASS_HZ;
 246:.././hal/sam3u1c/inc/sam3u/sysclk.h **** 	} else if (CONFIG_SYSCLK_SOURCE == SYSCLK_SRC_MAINCK_4M_RC) {
 247:.././hal/sam3u1c/inc/sam3u/sysclk.h **** 		return OSC_MAINCK_4M_RC_HZ;
 248:.././hal/sam3u1c/inc/sam3u/sysclk.h **** 	} else if (CONFIG_SYSCLK_SOURCE == SYSCLK_SRC_MAINCK_8M_RC) {
 249:.././hal/sam3u1c/inc/sam3u/sysclk.h **** 		return OSC_MAINCK_8M_RC_HZ;
 250:.././hal/sam3u1c/inc/sam3u/sysclk.h **** 	} else if (CONFIG_SYSCLK_SOURCE == SYSCLK_SRC_MAINCK_12M_RC) {
 251:.././hal/sam3u1c/inc/sam3u/sysclk.h **** 		return OSC_MAINCK_12M_RC_HZ;
 252:.././hal/sam3u1c/inc/sam3u/sysclk.h **** 	} else if (CONFIG_SYSCLK_SOURCE == SYSCLK_SRC_MAINCK_XTAL) {
 253:.././hal/sam3u1c/inc/sam3u/sysclk.h **** 		return OSC_MAINCK_XTAL_HZ;
 254:.././hal/sam3u1c/inc/sam3u/sysclk.h **** 	} else if (CONFIG_SYSCLK_SOURCE == SYSCLK_SRC_MAINCK_BYPASS) {
 255:.././hal/sam3u1c/inc/sam3u/sysclk.h **** 		return OSC_MAINCK_BYPASS_HZ;
 256:.././hal/sam3u1c/inc/sam3u/sysclk.h **** 	}
 257:.././hal/sam3u1c/inc/sam3u/sysclk.h **** #ifdef CONFIG_PLL0_SOURCE
 258:.././hal/sam3u1c/inc/sam3u/sysclk.h **** 	else if (CONFIG_SYSCLK_SOURCE == SYSCLK_SRC_PLLACK) {
 259:.././hal/sam3u1c/inc/sam3u/sysclk.h **** 		return pll_get_default_rate(0);
 150              	 .loc 2 259 0
 151 0004 0620     	 movs r0,#6
 152 0006 034B     	 ldr r3,.L17
 153 0008 9847     	 blx r3
 154              	.LVL0:
 155 000a 0346     	 mov r3,r0
 156 000c 1B01     	 lsls r3,r3,#4
 260:.././hal/sam3u1c/inc/sam3u/sysclk.h **** 	}
 261:.././hal/sam3u1c/inc/sam3u/sysclk.h **** #endif
 262:.././hal/sam3u1c/inc/sam3u/sysclk.h **** 
 263:.././hal/sam3u1c/inc/sam3u/sysclk.h **** #ifdef CONFIG_PLL1_SOURCE
 264:.././hal/sam3u1c/inc/sam3u/sysclk.h **** 	else if (CONFIG_SYSCLK_SOURCE == SYSCLK_SRC_UPLLCK) {
 265:.././hal/sam3u1c/inc/sam3u/sysclk.h **** 		return PLL_UPLL_HZ;
 266:.././hal/sam3u1c/inc/sam3u/sysclk.h **** 	}
 267:.././hal/sam3u1c/inc/sam3u/sysclk.h **** #endif
 268:.././hal/sam3u1c/inc/sam3u/sysclk.h **** 	else {
 269:.././hal/sam3u1c/inc/sam3u/sysclk.h **** 		/* unhandled_case(CONFIG_SYSCLK_SOURCE); */
 270:.././hal/sam3u1c/inc/sam3u/sysclk.h **** 		return 0;
 271:.././hal/sam3u1c/inc/sam3u/sysclk.h **** 	}
 272:.././hal/sam3u1c/inc/sam3u/sysclk.h **** }
 157              	 .loc 2 272 0
 158 000e 1846     	 mov r0,r3
 159 0010 80BD     	 pop {r7,pc}
 160              	.L18:
 161 0012 00BF     	 .align 2
 162              	.L17:
 163 0014 00000000 	 .word osc_get_rate
 164              	 .cfi_endproc
 165              	.LFE81:
 167              	 .section .text.sysclk_get_cpu_hz,"ax",%progbits
 168              	 .align 1
 169              	 .syntax unified
 170              	 .thumb
 171              	 .thumb_func
 172              	 .fpu softvfp
 174              	sysclk_get_cpu_hz:
 175              	.LFB82:
 273:.././hal/sam3u1c/inc/sam3u/sysclk.h **** 
 274:.././hal/sam3u1c/inc/sam3u/sysclk.h **** /**
 275:.././hal/sam3u1c/inc/sam3u/sysclk.h ****  * \brief Return the current rate in Hz of the CPU clock
 276:.././hal/sam3u1c/inc/sam3u/sysclk.h ****  *
 277:.././hal/sam3u1c/inc/sam3u/sysclk.h ****  * \todo This function assumes that the CPU always runs at the system
 278:.././hal/sam3u1c/inc/sam3u/sysclk.h ****  * clock frequency. We want to support at least two more scenarios:
 279:.././hal/sam3u1c/inc/sam3u/sysclk.h ****  * Fixed CPU/bus clock dividers (config symbols) and dynamic CPU/bus
 280:.././hal/sam3u1c/inc/sam3u/sysclk.h ****  * clock dividers (which may change at run time). Ditto for all the bus
 281:.././hal/sam3u1c/inc/sam3u/sysclk.h ****  * clocks.
 282:.././hal/sam3u1c/inc/sam3u/sysclk.h ****  *
 283:.././hal/sam3u1c/inc/sam3u/sysclk.h ****  * \return Frequency of the CPU clock, in Hz.
 284:.././hal/sam3u1c/inc/sam3u/sysclk.h ****  */
 285:.././hal/sam3u1c/inc/sam3u/sysclk.h **** static inline uint32_t sysclk_get_cpu_hz(void)
 286:.././hal/sam3u1c/inc/sam3u/sysclk.h **** {
 176              	 .loc 2 286 0
 177              	 .cfi_startproc
 178              	 
 179              	 
 180 0000 80B5     	 push {r7,lr}
 181              	.LCFI8:
 182              	 .cfi_def_cfa_offset 8
 183              	 .cfi_offset 7,-8
 184              	 .cfi_offset 14,-4
 185 0002 00AF     	 add r7,sp,#0
 186              	.LCFI9:
 187              	 .cfi_def_cfa_register 7
 287:.././hal/sam3u1c/inc/sam3u/sysclk.h **** 	/* CONFIG_SYSCLK_PRES is the register value for setting the expected */
 288:.././hal/sam3u1c/inc/sam3u/sysclk.h **** 	/* prescaler, not an immediate value. */
 289:.././hal/sam3u1c/inc/sam3u/sysclk.h **** 	return sysclk_get_main_hz() /
 188              	 .loc 2 289 0
 189 0004 024B     	 ldr r3,.L21
 190 0006 9847     	 blx r3
 191              	.LVL1:
 192 0008 0346     	 mov r3,r0
 193 000a 5B08     	 lsrs r3,r3,#1
 290:.././hal/sam3u1c/inc/sam3u/sysclk.h **** 		((CONFIG_SYSCLK_PRES == SYSCLK_PRES_3) ? 3 :
 291:.././hal/sam3u1c/inc/sam3u/sysclk.h **** 			(1 << (CONFIG_SYSCLK_PRES >> PMC_MCKR_PRES_Pos)));
 292:.././hal/sam3u1c/inc/sam3u/sysclk.h **** }
 194              	 .loc 2 292 0
 195 000c 1846     	 mov r0,r3
 196 000e 80BD     	 pop {r7,pc}
 197              	.L22:
 198              	 .align 2
 199              	.L21:
 200 0010 00000000 	 .word sysclk_get_main_hz
 201              	 .cfi_endproc
 202              	.LFE82:
 204              	 .section .text.sysclk_enable_peripheral_clock,"ax",%progbits
 205              	 .align 1
 206              	 .syntax unified
 207              	 .thumb
 208              	 .thumb_func
 209              	 .fpu softvfp
 211              	sysclk_enable_peripheral_clock:
 212              	.LFB85:
 293:.././hal/sam3u1c/inc/sam3u/sysclk.h **** 
 294:.././hal/sam3u1c/inc/sam3u/sysclk.h **** /**
 295:.././hal/sam3u1c/inc/sam3u/sysclk.h ****  * \brief Retrieves the current rate in Hz of the peripheral clocks.
 296:.././hal/sam3u1c/inc/sam3u/sysclk.h ****  *
 297:.././hal/sam3u1c/inc/sam3u/sysclk.h ****  * \return Frequency of the peripheral clocks, in Hz.
 298:.././hal/sam3u1c/inc/sam3u/sysclk.h ****  */
 299:.././hal/sam3u1c/inc/sam3u/sysclk.h **** static inline uint32_t sysclk_get_peripheral_hz(void)
 300:.././hal/sam3u1c/inc/sam3u/sysclk.h **** {
 301:.././hal/sam3u1c/inc/sam3u/sysclk.h **** 	/* CONFIG_SYSCLK_PRES is the register value for setting the expected */
 302:.././hal/sam3u1c/inc/sam3u/sysclk.h **** 	/* prescaler, not an immediate value. */
 303:.././hal/sam3u1c/inc/sam3u/sysclk.h **** 	return sysclk_get_main_hz() /
 304:.././hal/sam3u1c/inc/sam3u/sysclk.h **** 		((CONFIG_SYSCLK_PRES == SYSCLK_PRES_3) ? 3 :
 305:.././hal/sam3u1c/inc/sam3u/sysclk.h **** 			(1 << (CONFIG_SYSCLK_PRES >> PMC_MCKR_PRES_Pos)));
 306:.././hal/sam3u1c/inc/sam3u/sysclk.h **** }
 307:.././hal/sam3u1c/inc/sam3u/sysclk.h **** 
 308:.././hal/sam3u1c/inc/sam3u/sysclk.h **** /**
 309:.././hal/sam3u1c/inc/sam3u/sysclk.h ****  * \brief Retrieves the current rate in Hz of the Peripheral Bus clock attached
 310:.././hal/sam3u1c/inc/sam3u/sysclk.h ****  *        to the specified peripheral.
 311:.././hal/sam3u1c/inc/sam3u/sysclk.h ****  *
 312:.././hal/sam3u1c/inc/sam3u/sysclk.h ****  * \param module Pointer to the module's base address.
 313:.././hal/sam3u1c/inc/sam3u/sysclk.h ****  *
 314:.././hal/sam3u1c/inc/sam3u/sysclk.h ****  * \return Frequency of the bus attached to the specified peripheral, in Hz.
 315:.././hal/sam3u1c/inc/sam3u/sysclk.h ****  */
 316:.././hal/sam3u1c/inc/sam3u/sysclk.h **** static inline uint32_t sysclk_get_peripheral_bus_hz(const volatile void *module)
 317:.././hal/sam3u1c/inc/sam3u/sysclk.h **** {
 318:.././hal/sam3u1c/inc/sam3u/sysclk.h **** 	UNUSED(module);
 319:.././hal/sam3u1c/inc/sam3u/sysclk.h **** 	return sysclk_get_peripheral_hz();
 320:.././hal/sam3u1c/inc/sam3u/sysclk.h **** }
 321:.././hal/sam3u1c/inc/sam3u/sysclk.h **** //@}
 322:.././hal/sam3u1c/inc/sam3u/sysclk.h **** 
 323:.././hal/sam3u1c/inc/sam3u/sysclk.h **** //! \name Enabling and disabling synchronous clocks
 324:.././hal/sam3u1c/inc/sam3u/sysclk.h **** //@{
 325:.././hal/sam3u1c/inc/sam3u/sysclk.h **** 
 326:.././hal/sam3u1c/inc/sam3u/sysclk.h **** /**
 327:.././hal/sam3u1c/inc/sam3u/sysclk.h ****  * \brief Enable a peripheral's clock.
 328:.././hal/sam3u1c/inc/sam3u/sysclk.h ****  *
 329:.././hal/sam3u1c/inc/sam3u/sysclk.h ****  * \param ul_id Id (number) of the peripheral clock.
 330:.././hal/sam3u1c/inc/sam3u/sysclk.h ****  */
 331:.././hal/sam3u1c/inc/sam3u/sysclk.h **** static inline void sysclk_enable_peripheral_clock(uint32_t ul_id)
 332:.././hal/sam3u1c/inc/sam3u/sysclk.h **** {
 213              	 .loc 2 332 0
 214              	 .cfi_startproc
 215              	 
 216              	 
 217 0000 80B5     	 push {r7,lr}
 218              	.LCFI10:
 219              	 .cfi_def_cfa_offset 8
 220              	 .cfi_offset 7,-8
 221              	 .cfi_offset 14,-4
 222 0002 82B0     	 sub sp,sp,#8
 223              	.LCFI11:
 224              	 .cfi_def_cfa_offset 16
 225 0004 00AF     	 add r7,sp,#0
 226              	.LCFI12:
 227              	 .cfi_def_cfa_register 7
 228 0006 7860     	 str r0,[r7,#4]
 333:.././hal/sam3u1c/inc/sam3u/sysclk.h **** 	pmc_enable_periph_clk(ul_id);
 229              	 .loc 2 333 0
 230 0008 7868     	 ldr r0,[r7,#4]
 231 000a 034B     	 ldr r3,.L24
 232 000c 9847     	 blx r3
 233              	.LVL2:
 334:.././hal/sam3u1c/inc/sam3u/sysclk.h **** }
 234              	 .loc 2 334 0
 235 000e 00BF     	 nop
 236 0010 0837     	 adds r7,r7,#8
 237              	.LCFI13:
 238              	 .cfi_def_cfa_offset 8
 239 0012 BD46     	 mov sp,r7
 240              	.LCFI14:
 241              	 .cfi_def_cfa_register 13
 242              	 
 243 0014 80BD     	 pop {r7,pc}
 244              	.L25:
 245 0016 00BF     	 .align 2
 246              	.L24:
 247 0018 00000000 	 .word pmc_enable_periph_clk
 248              	 .cfi_endproc
 249              	.LFE85:
 251              	 .section .text.fpga_program_init,"ax",%progbits
 252              	 .align 1
 253              	 .global fpga_program_init
 254              	 .syntax unified
 255              	 .thumb
 256              	 .thumb_func
 257              	 .fpu softvfp
 259              	fpga_program_init:
 260              	.LFB179:
 261              	 .file 3 "fpga_program.c"
   1:fpga_program.c **** /*
   2:fpga_program.c ****   Xilinx Spartan 6 FPGA Programming Routines
   3:fpga_program.c **** 
   4:fpga_program.c ****   Copyright (c) 2014-2015 NewAE Technology Inc.  All rights reserved.
   5:fpga_program.c ****   Author: Colin O'Flynn, <coflynn@newae.com>
   6:fpga_program.c **** 
   7:fpga_program.c ****   This program is free software: you can redistribute it and/or modify
   8:fpga_program.c ****   it under the terms of the GNU General Public License as published by
   9:fpga_program.c ****   the Free Software Foundation, either version 3 of the License, or
  10:fpga_program.c ****   (at your option) any later version.
  11:fpga_program.c ****   This program is distributed in the hope that it will be useful,
  12:fpga_program.c ****   but WITHOUT ANY WARRANTY; without even the implied warranty of
  13:fpga_program.c ****   MERCHANTABILITY or FITNESS FOR A PARTICULAR PURPOSE.  See the
  14:fpga_program.c ****   GNU General Public License for more details.
  15:fpga_program.c ****   You should have received a copy of the GNU General Public License
  16:fpga_program.c ****   along with this program.  If not, see <http://www.gnu.org/licenses/>.
  17:fpga_program.c **** */
  18:fpga_program.c **** 
  19:fpga_program.c **** #include <asf.h>
  20:fpga_program.c **** #include "fpga_program.h"
  21:fpga_program.c **** #include "spi.h"
  22:fpga_program.c **** 
  23:fpga_program.c **** /* FPGA Programming: Init pins, set to standby state */
  24:fpga_program.c **** void fpga_program_init(void)
  25:fpga_program.c **** {
 262              	 .loc 3 25 0
 263              	 .cfi_startproc
 264              	 
 265              	 
 266 0000 80B5     	 push {r7,lr}
 267              	.LCFI15:
 268              	 .cfi_def_cfa_offset 8
 269              	 .cfi_offset 7,-8
 270              	 .cfi_offset 14,-4
 271 0002 00AF     	 add r7,sp,#0
 272              	.LCFI16:
 273              	 .cfi_def_cfa_register 7
  26:fpga_program.c ****     FPGA_NPROG_SETUP();
 274              	 .loc 3 26 0
 275 0004 4FF06051 	 mov r1,#939524096
 276 0008 1420     	 movs r0,#20
 277 000a 034B     	 ldr r3,.L27
 278 000c 9847     	 blx r3
 279              	.LVL3:
  27:fpga_program.c ****     FPGA_NPROG_HIGH();
 280              	 .loc 3 27 0
 281 000e 1420     	 movs r0,#20
 282 0010 024B     	 ldr r3,.L27+4
 283 0012 9847     	 blx r3
 284              	.LVL4:
  28:fpga_program.c **** }
 285              	 .loc 3 28 0
 286 0014 00BF     	 nop
 287 0016 80BD     	 pop {r7,pc}
 288              	.L28:
 289              	 .align 2
 290              	.L27:
 291 0018 00000000 	 .word pio_configure_pin
 292 001c 00000000 	 .word pio_set_pin_high
 293              	 .cfi_endproc
 294              	.LFE179:
 296              	 .section .text.fpga_program_setup1,"ax",%progbits
 297              	 .align 1
 298              	 .global fpga_program_setup1
 299              	 .syntax unified
 300              	 .thumb
 301              	 .thumb_func
 302              	 .fpu softvfp
 304              	fpga_program_setup1:
 305              	.LFB180:
  29:fpga_program.c **** 
  30:fpga_program.c **** /* FPGA Programming Step 1: Erase FPGA, setup SPI interface */
  31:fpga_program.c **** void fpga_program_setup1(void)
  32:fpga_program.c **** {
 306              	 .loc 3 32 0
 307              	 .cfi_startproc
 308              	 
 309              	 
 310 0000 80B5     	 push {r7,lr}
 311              	.LCFI17:
 312              	 .cfi_def_cfa_offset 8
 313              	 .cfi_offset 7,-8
 314              	 .cfi_offset 14,-4
 315 0002 84B0     	 sub sp,sp,#16
 316              	.LCFI18:
 317              	 .cfi_def_cfa_offset 24
 318 0004 00AF     	 add r7,sp,#0
 319              	.LCFI19:
 320              	 .cfi_def_cfa_register 7
  33:fpga_program.c ****     /* Init - set program low to erase FPGA */
  34:fpga_program.c ****     FPGA_NPROG_LOW();
 321              	 .loc 3 34 0
 322 0006 1420     	 movs r0,#20
 323 0008 144B     	 ldr r3,.L30
 324 000a 9847     	 blx r3
 325              	.LVL5:
  35:fpga_program.c **** 
  36:fpga_program.c ****     usart_spi_opt_t spiopts;
  37:fpga_program.c ****     spiopts.baudrate = 10000000UL;
 326              	 .loc 3 37 0
 327 000c 144B     	 ldr r3,.L30+4
 328 000e 3B60     	 str r3,[r7]
  38:fpga_program.c ****     spiopts.char_length = US_MR_CHRL_8_BIT;
 329              	 .loc 3 38 0
 330 0010 C023     	 movs r3,#192
 331 0012 7B60     	 str r3,[r7,#4]
  39:fpga_program.c ****     spiopts.channel_mode = US_MR_CHMODE_NORMAL;
 332              	 .loc 3 39 0
 333 0014 0023     	 movs r3,#0
 334 0016 FB60     	 str r3,[r7,#12]
  40:fpga_program.c ****     spiopts.spi_mode = SPI_MODE_0;
 335              	 .loc 3 40 0
 336 0018 0023     	 movs r3,#0
 337 001a BB60     	 str r3,[r7,#8]
  41:fpga_program.c **** 
  42:fpga_program.c ****     sysclk_enable_peripheral_clock(FPGA_PROG_USART_ID);
 338              	 .loc 3 42 0
 339 001c 0D20     	 movs r0,#13
 340 001e 114B     	 ldr r3,.L30+8
 341 0020 9847     	 blx r3
 342              	.LVL6:
  43:fpga_program.c ****     usart_init_spi_master(FPGA_PROG_USART, &spiopts, sysclk_get_cpu_hz());
 343              	 .loc 3 43 0
 344 0022 114B     	 ldr r3,.L30+12
 345 0024 9847     	 blx r3
 346              	.LVL7:
 347 0026 0246     	 mov r2,r0
 348 0028 3B46     	 mov r3,r7
 349 002a 1946     	 mov r1,r3
 350 002c 0F48     	 ldr r0,.L30+16
 351 002e 104B     	 ldr r3,.L30+20
 352 0030 9847     	 blx r3
 353              	.LVL8:
  44:fpga_program.c ****     FPGA_DO_SETUP();
 354              	 .loc 3 44 0
 355 0032 4FF04051 	 mov r1,#805306368
 356 0036 1220     	 movs r0,#18
 357 0038 0E4B     	 ldr r3,.L30+24
 358 003a 9847     	 blx r3
 359              	.LVL9:
  45:fpga_program.c ****     FPGA_CCLK_SETUP();
 360              	 .loc 3 45 0
 361 003c 4FF04051 	 mov r1,#805306368
 362 0040 1120     	 movs r0,#17
 363 0042 0C4B     	 ldr r3,.L30+24
 364 0044 9847     	 blx r3
 365              	.LVL10:
  46:fpga_program.c **** 
  47:fpga_program.c ****     //pin setup doesn't transfer control over to USART, so have to do it manually
  48:fpga_program.c ****     PIOA->PIO_PDR = (1 << PIN_FPGA_DO_GPIO) | (1 << PIN_FPGA_CCLK_GPIO);
 366              	 .loc 3 48 0
 367 0046 0C4B     	 ldr r3,.L30+28
 368 0048 4FF4C022 	 mov r2,#393216
 369 004c 5A60     	 str r2,[r3,#4]
  49:fpga_program.c ****     usart_enable_tx(FPGA_PROG_USART);
 370              	 .loc 3 49 0
 371 004e 0748     	 ldr r0,.L30+16
 372 0050 0A4B     	 ldr r3,.L30+32
 373 0052 9847     	 blx r3
 374              	.LVL11:
  50:fpga_program.c **** }
 375              	 .loc 3 50 0
 376 0054 00BF     	 nop
 377 0056 1037     	 adds r7,r7,#16
 378              	.LCFI20:
 379              	 .cfi_def_cfa_offset 8
 380 0058 BD46     	 mov sp,r7
 381              	.LCFI21:
 382              	 .cfi_def_cfa_register 13
 383              	 
 384 005a 80BD     	 pop {r7,pc}
 385              	.L31:
 386              	 .align 2
 387              	.L30:
 388 005c 00000000 	 .word pio_set_pin_low
 389 0060 80969800 	 .word 10000000
 390 0064 00000000 	 .word sysclk_enable_peripheral_clock
 391 0068 00000000 	 .word sysclk_get_cpu_hz
 392 006c 00000940 	 .word 1074331648
 393 0070 00000000 	 .word usart_init_spi_master
 394 0074 00000000 	 .word pio_configure_pin
 395 0078 000C0E40 	 .word 1074662400
 396 007c 00000000 	 .word usart_enable_tx
 397              	 .cfi_endproc
 398              	.LFE180:
 400              	 .section .text.fpga_program_setup2,"ax",%progbits
 401              	 .align 1
 402              	 .global fpga_program_setup2
 403              	 .syntax unified
 404              	 .thumb
 405              	 .thumb_func
 406              	 .fpu softvfp
 408              	fpga_program_setup2:
 409              	.LFB181:
  51:fpga_program.c **** 
  52:fpga_program.c **** /* FPGA Programming Step 2: Prepare FPGA for receiving programming data */
  53:fpga_program.c **** void fpga_program_setup2(void)
  54:fpga_program.c **** {
 410              	 .loc 3 54 0
 411              	 .cfi_startproc
 412              	 
 413              	 
 414 0000 80B5     	 push {r7,lr}
 415              	.LCFI22:
 416              	 .cfi_def_cfa_offset 8
 417              	 .cfi_offset 7,-8
 418              	 .cfi_offset 14,-4
 419 0002 00AF     	 add r7,sp,#0
 420              	.LCFI23:
 421              	 .cfi_def_cfa_register 7
  55:fpga_program.c ****     FPGA_NPROG_HIGH();
 422              	 .loc 3 55 0
 423 0004 1420     	 movs r0,#20
 424 0006 024B     	 ldr r3,.L33
 425 0008 9847     	 blx r3
 426              	.LVL12:
  56:fpga_program.c **** }
 427              	 .loc 3 56 0
 428 000a 00BF     	 nop
 429 000c 80BD     	 pop {r7,pc}
 430              	.L34:
 431 000e 00BF     	 .align 2
 432              	.L33:
 433 0010 00000000 	 .word pio_set_pin_high
 434              	 .cfi_endproc
 435              	.LFE181:
 437              	 .section .text.fpga_program_sendbyte,"ax",%progbits
 438              	 .align 1
 439              	 .global fpga_program_sendbyte
 440              	 .syntax unified
 441              	 .thumb
 442              	 .thumb_func
 443              	 .fpu softvfp
 445              	fpga_program_sendbyte:
 446              	.LFB182:
  57:fpga_program.c **** 
  58:fpga_program.c **** //For debug only
  59:fpga_program.c **** //uint32_t fpga_total_bs_len;
  60:fpga_program.c **** 
  61:fpga_program.c **** /* FPGA Programming Step 3: Send data until done */
  62:fpga_program.c **** void fpga_program_sendbyte(uint8_t databyte)
  63:fpga_program.c **** {
 447              	 .loc 3 63 0
 448              	 .cfi_startproc
 449              	 
 450              	 
 451 0000 80B5     	 push {r7,lr}
 452              	.LCFI24:
 453              	 .cfi_def_cfa_offset 8
 454              	 .cfi_offset 7,-8
 455              	 .cfi_offset 14,-4
 456 0002 82B0     	 sub sp,sp,#8
 457              	.LCFI25:
 458              	 .cfi_def_cfa_offset 16
 459 0004 00AF     	 add r7,sp,#0
 460              	.LCFI26:
 461              	 .cfi_def_cfa_register 7
 462 0006 0346     	 mov r3,r0
 463 0008 FB71     	 strb r3,[r7,#7]
  64:fpga_program.c ****     //For debug only
  65:fpga_program.c ****     //fpga_total_bs_len++;
  66:fpga_program.c ****     usart_putchar(FPGA_PROG_USART, databyte);
 464              	 .loc 3 66 0
 465 000a FB79     	 ldrb r3,[r7,#7]
 466 000c 1946     	 mov r1,r3
 467 000e 0348     	 ldr r0,.L36
 468 0010 034B     	 ldr r3,.L36+4
 469 0012 9847     	 blx r3
 470              	.LVL13:
  67:fpga_program.c **** }
 471              	 .loc 3 67 0
 472 0014 00BF     	 nop
 473 0016 0837     	 adds r7,r7,#8
 474              	.LCFI27:
 475              	 .cfi_def_cfa_offset 8
 476 0018 BD46     	 mov sp,r7
 477              	.LCFI28:
 478              	 .cfi_def_cfa_register 13
 479              	 
 480 001a 80BD     	 pop {r7,pc}
 481              	.L37:
 482              	 .align 2
 483              	.L36:
 484 001c 00000940 	 .word 1074331648
 485 0020 00000000 	 .word usart_putchar
 486              	 .cfi_endproc
 487              	.LFE182:
 489              	 .text
 490              	.Letext0:
 491              	 .file 4 "c:\\program files (x86)\\atmel\\studio\\7.0\\toolchain\\arm\\arm-gnu-toolchain\\arm-none-eabi\\include\\machine\\_default_types.h"
 492              	 .file 5 "c:\\program files (x86)\\atmel\\studio\\7.0\\toolchain\\arm\\arm-gnu-toolchain\\arm-none-eabi\\include\\sys\\_stdint.h"
 493              	 .file 6 ".././hal/sam3u1c/inc/sam3u1c.h"
 494              	 .file 7 ".././hal/sam3u1c/inc/core_cm3.h"
 495              	 .file 8 ".././hal/sam3u1c/inc/system_sam3u.h"
 496              	 .file 9 ".././hal/sam3u1c/inc/component/component_pio.h"
 497              	 .file 10 ".././hal/sam3u1c/inc/component/component_usart.h"
 498              	 .file 11 "c:\\program files (x86)\\atmel\\studio\\7.0\\toolchain\\arm\\arm-gnu-toolchain\\arm-none-eabi\\include\\sys\\lock.h"
 499              	 .file 12 "c:\\program files (x86)\\atmel\\studio\\7.0\\toolchain\\arm\\arm-gnu-toolchain\\arm-none-eabi\\include\\sys\\_types.h"
 500              	 .file 13 "c:\\program files (x86)\\atmel\\studio\\7.0\\toolchain\\arm\\arm-gnu-toolchain\\lib\\gcc\\arm-none-eabi\\6.3.1\\include\\stddef.h"
 501              	 .file 14 "c:\\program files (x86)\\atmel\\studio\\7.0\\toolchain\\arm\\arm-gnu-toolchain\\arm-none-eabi\\include\\sys\\reent.h"
 502              	 .file 15 "c:\\program files (x86)\\atmel\\studio\\7.0\\toolchain\\arm\\arm-gnu-toolchain\\arm-none-eabi\\include\\stdlib.h"
 503              	 .file 16 ".././hal/sam3u1c/inc/interrupt/interrupt_sam_nvic.h"
 504              	 .file 17 ".././hal/sam3u1c/inc/compiler.h"
 505              	 .file 18 ".././hal/sam3u1c/inc/sam/sleepmgr.h"
 506              	 .file 19 ".././hal/sam3u1c/inc/usart.h"
 507              	 .file 20 "./conf_usb.h"
 508              	 .file 21 ".././hal/sam3u1c/inc/usb_protocol.h"
 509              	 .file 22 ".././hal/sam3u1c/inc/udi.h"
 510              	 .file 23 ".././hal/sam3u1c/inc/udc_desc.h"
 511              	 .file 24 ".././hal/sam3u1c/inc/udd.h"
 512              	 .file 25 ".././hal/sam3u1c/inc/udi_vendor.h"
 513              	 .file 26 "fpga_program.h"
 514              	 .file 27 ".././hal/sam3u1c/inc/pio.h"
 515              	 .file 28 ".././hal/sam3u1c/inc/pmc.h"
 516              	 .file 29 ".././hal/sam3u1c/inc/sam3u/pll.h"