   1              	 .cpu cortex-m3
   2              	 .eabi_attribute 20,1
   3              	 .eabi_attribute 21,1
   4              	 .eabi_attribute 23,3
   5              	 .eabi_attribute 24,1
   6              	 .eabi_attribute 25,1
   7              	 .eabi_attribute 26,1
   8              	 .eabi_attribute 30,6
   9              	 .eabi_attribute 34,1
  10              	 .eabi_attribute 18,4
  11              	 .file "ui_cw305.c"
  12              	 .text
  13              	.Ltext0:
  14              	 .cfi_sections .debug_frame
  15              	 .section .bss.cpu_irq_critical_section_counter,"aw",%nobits
  16              	 .align 2
  19              	cpu_irq_critical_section_counter:
  20 0000 00000000 	 .space 4
  21              	 .section .bss.cpu_irq_prev_interrupt_state,"aw",%nobits
  24              	cpu_irq_prev_interrupt_state:
  25 0000 00       	 .space 1
  26              	 .section .text.ui_init,"ax",%progbits
  27              	 .align 1
  28              	 .global ui_init
  29              	 .syntax unified
  30              	 .thumb
  31              	 .thumb_func
  32              	 .fpu softvfp
  34              	ui_init:
  35              	.LFB179:
  36              	 .file 1 ".././hal/sam3u1c/ui_cw305.c"
   1:.././hal/sam3u1c/ui_cw305.c **** /**
   2:.././hal/sam3u1c/ui_cw305.c ****  * \file
   3:.././hal/sam3u1c/ui_cw305.c ****  *
   4:.././hal/sam3u1c/ui_cw305.c ****  * \brief User Interface
   5:.././hal/sam3u1c/ui_cw305.c ****  *
   6:.././hal/sam3u1c/ui_cw305.c ****  * Copyright (c) 2012 Atmel Corporation. All rights reserved.
   7:.././hal/sam3u1c/ui_cw305.c ****  *
   8:.././hal/sam3u1c/ui_cw305.c ****  * \asf_license_start
   9:.././hal/sam3u1c/ui_cw305.c ****  *
  10:.././hal/sam3u1c/ui_cw305.c ****  * \page License
  11:.././hal/sam3u1c/ui_cw305.c ****  *
  12:.././hal/sam3u1c/ui_cw305.c ****  * Redistribution and use in source and binary forms, with or without
  13:.././hal/sam3u1c/ui_cw305.c ****  * modification, are permitted provided that the following conditions are met:
  14:.././hal/sam3u1c/ui_cw305.c ****  *
  15:.././hal/sam3u1c/ui_cw305.c ****  * 1. Redistributions of source code must retain the above copyright notice,
  16:.././hal/sam3u1c/ui_cw305.c ****  *    this list of conditions and the following disclaimer.
  17:.././hal/sam3u1c/ui_cw305.c ****  *
  18:.././hal/sam3u1c/ui_cw305.c ****  * 2. Redistributions in binary form must reproduce the above copyright notice,
  19:.././hal/sam3u1c/ui_cw305.c ****  *    this list of conditions and the following disclaimer in the documentation
  20:.././hal/sam3u1c/ui_cw305.c ****  *    and/or other materials provided with the distribution.
  21:.././hal/sam3u1c/ui_cw305.c ****  *
  22:.././hal/sam3u1c/ui_cw305.c ****  * 3. The name of Atmel may not be used to endorse or promote products derived
  23:.././hal/sam3u1c/ui_cw305.c ****  *    from this software without specific prior written permission.
  24:.././hal/sam3u1c/ui_cw305.c ****  *
  25:.././hal/sam3u1c/ui_cw305.c ****  * 4. This software may only be redistributed and used in connection with an
  26:.././hal/sam3u1c/ui_cw305.c ****  *    Atmel microcontroller product.
  27:.././hal/sam3u1c/ui_cw305.c ****  *
  28:.././hal/sam3u1c/ui_cw305.c ****  * THIS SOFTWARE IS PROVIDED BY ATMEL "AS IS" AND ANY EXPRESS OR IMPLIED
  29:.././hal/sam3u1c/ui_cw305.c ****  * WARRANTIES, INCLUDING, BUT NOT LIMITED TO, THE IMPLIED WARRANTIES OF
  30:.././hal/sam3u1c/ui_cw305.c ****  * MERCHANTABILITY, FITNESS FOR A PARTICULAR PURPOSE AND NON-INFRINGEMENT ARE
  31:.././hal/sam3u1c/ui_cw305.c ****  * EXPRESSLY AND SPECIFICALLY DISCLAIMED. IN NO EVENT SHALL ATMEL BE LIABLE FOR
  32:.././hal/sam3u1c/ui_cw305.c ****  * ANY DIRECT, INDIRECT, INCIDENTAL, SPECIAL, EXEMPLARY, OR CONSEQUENTIAL
  33:.././hal/sam3u1c/ui_cw305.c ****  * DAMAGES (INCLUDING, BUT NOT LIMITED TO, PROCUREMENT OF SUBSTITUTE GOODS
  34:.././hal/sam3u1c/ui_cw305.c ****  * OR SERVICES; LOSS OF USE, DATA, OR PROFITS; OR BUSINESS INTERRUPTION)
  35:.././hal/sam3u1c/ui_cw305.c ****  * HOWEVER CAUSED AND ON ANY THEORY OF LIABILITY, WHETHER IN CONTRACT,
  36:.././hal/sam3u1c/ui_cw305.c ****  * STRICT LIABILITY, OR TORT (INCLUDING NEGLIGENCE OR OTHERWISE) ARISING IN
  37:.././hal/sam3u1c/ui_cw305.c ****  * ANY WAY OUT OF THE USE OF THIS SOFTWARE, EVEN IF ADVISED OF THE
  38:.././hal/sam3u1c/ui_cw305.c ****  * POSSIBILITY OF SUCH DAMAGE.
  39:.././hal/sam3u1c/ui_cw305.c ****  *
  40:.././hal/sam3u1c/ui_cw305.c ****  * \asf_license_stop
  41:.././hal/sam3u1c/ui_cw305.c ****  *
  42:.././hal/sam3u1c/ui_cw305.c ****  */
  43:.././hal/sam3u1c/ui_cw305.c **** 
  44:.././hal/sam3u1c/ui_cw305.c **** #include <asf.h>
  45:.././hal/sam3u1c/ui_cw305.c **** #include "ui.h"
  46:.././hal/sam3u1c/ui_cw305.c **** #include "tasks.h"
  47:.././hal/sam3u1c/ui_cw305.c **** 
  48:.././hal/sam3u1c/ui_cw305.c **** void ui_init(void)
  49:.././hal/sam3u1c/ui_cw305.c **** {
  37              	 .loc 1 49 0
  38              	 .cfi_startproc
  39              	 
  40              	 
  41 0000 80B5     	 push {r7,lr}
  42              	.LCFI0:
  43              	 .cfi_def_cfa_offset 8
  44              	 .cfi_offset 7,-8
  45              	 .cfi_offset 14,-4
  46 0002 00AF     	 add r7,sp,#0
  47              	.LCFI1:
  48              	 .cfi_def_cfa_register 7
  50:.././hal/sam3u1c/ui_cw305.c **** 	// Initialize LEDs
  51:.././hal/sam3u1c/ui_cw305.c **** 	LED_Off(LED0_GPIO);
  49              	 .loc 1 51 0
  50 0004 1D20     	 movs r0,#29
  51 0006 034B     	 ldr r3,.L2
  52 0008 9847     	 blx r3
  53              	.LVL0:
  52:.././hal/sam3u1c/ui_cw305.c **** 	LED_Off(LED1_GPIO);
  54              	 .loc 1 52 0
  55 000a 1F20     	 movs r0,#31
  56 000c 014B     	 ldr r3,.L2
  57 000e 9847     	 blx r3
  58              	.LVL1:
  53:.././hal/sam3u1c/ui_cw305.c **** 	//LED_Off(LED2_GPIO);
  54:.././hal/sam3u1c/ui_cw305.c **** }
  59              	 .loc 1 54 0
  60 0010 00BF     	 nop
  61 0012 80BD     	 pop {r7,pc}
  62              	.L3:
  63              	 .align 2
  64              	.L2:
  65 0014 00000000 	 .word LED_Off
  66              	 .cfi_endproc
  67              	.LFE179:
  69              	 .section .text.ui_powerdown,"ax",%progbits
  70              	 .align 1
  71              	 .global ui_powerdown
  72              	 .syntax unified
  73              	 .thumb
  74              	 .thumb_func
  75              	 .fpu softvfp
  77              	ui_powerdown:
  78              	.LFB180:
  55:.././hal/sam3u1c/ui_cw305.c **** 
  56:.././hal/sam3u1c/ui_cw305.c **** void ui_powerdown(void)
  57:.././hal/sam3u1c/ui_cw305.c **** {
  79              	 .loc 1 57 0
  80              	 .cfi_startproc
  81              	 
  82              	 
  83 0000 80B5     	 push {r7,lr}
  84              	.LCFI2:
  85              	 .cfi_def_cfa_offset 8
  86              	 .cfi_offset 7,-8
  87              	 .cfi_offset 14,-4
  88 0002 00AF     	 add r7,sp,#0
  89              	.LCFI3:
  90              	 .cfi_def_cfa_register 7
  58:.././hal/sam3u1c/ui_cw305.c **** 	LED_Off(LED0_GPIO);
  91              	 .loc 1 58 0
  92 0004 1D20     	 movs r0,#29
  93 0006 034B     	 ldr r3,.L5
  94 0008 9847     	 blx r3
  95              	.LVL2:
  59:.././hal/sam3u1c/ui_cw305.c **** 	LED_Off(LED1_GPIO);
  96              	 .loc 1 59 0
  97 000a 1F20     	 movs r0,#31
  98 000c 014B     	 ldr r3,.L5
  99 000e 9847     	 blx r3
 100              	.LVL3:
  60:.././hal/sam3u1c/ui_cw305.c **** 	//LED_Off(LED2_GPIO);
  61:.././hal/sam3u1c/ui_cw305.c **** 	
  62:.././hal/sam3u1c/ui_cw305.c **** 	// Power off FPGA
  63:.././hal/sam3u1c/ui_cw305.c **** 	//board_sram_pwroff();
  64:.././hal/sam3u1c/ui_cw305.c **** 		
  65:.././hal/sam3u1c/ui_cw305.c **** }
 101              	 .loc 1 65 0
 102 0010 00BF     	 nop
 103 0012 80BD     	 pop {r7,pc}
 104              	.L6:
 105              	 .align 2
 106              	.L5:
 107 0014 00000000 	 .word LED_Off
 108              	 .cfi_endproc
 109              	.LFE180:
 111              	 .section .text.ui_wakeup,"ax",%progbits
 112              	 .align 1
 113              	 .global ui_wakeup
 114              	 .syntax unified
 115              	 .thumb
 116              	 .thumb_func
 117              	 .fpu softvfp
 119              	ui_wakeup:
 120              	.LFB181:
  66:.././hal/sam3u1c/ui_cw305.c **** 
  67:.././hal/sam3u1c/ui_cw305.c **** void ui_wakeup(void)
  68:.././hal/sam3u1c/ui_cw305.c **** {
 121              	 .loc 1 68 0
 122              	 .cfi_startproc
 123              	 
 124              	 
 125 0000 80B5     	 push {r7,lr}
 126              	.LCFI4:
 127              	 .cfi_def_cfa_offset 8
 128              	 .cfi_offset 7,-8
 129              	 .cfi_offset 14,-4
 130 0002 00AF     	 add r7,sp,#0
 131              	.LCFI5:
 132              	 .cfi_def_cfa_register 7
  69:.././hal/sam3u1c/ui_cw305.c **** 	LED_On(LED0_GPIO);
 133              	 .loc 1 69 0
 134 0004 1D20     	 movs r0,#29
 135 0006 024B     	 ldr r3,.L8
 136 0008 9847     	 blx r3
 137              	.LVL4:
  70:.././hal/sam3u1c/ui_cw305.c **** 	//board_sram_pwron();
  71:.././hal/sam3u1c/ui_cw305.c **** }
 138              	 .loc 1 71 0
 139 000a 00BF     	 nop
 140 000c 80BD     	 pop {r7,pc}
 141              	.L9:
 142 000e 00BF     	 .align 2
 143              	.L8:
 144 0010 00000000 	 .word LED_On
 145              	 .cfi_endproc
 146              	.LFE181:
 148              	 .section .text.ui_process,"ax",%progbits
 149              	 .align 1
 150              	 .global ui_process
 151              	 .syntax unified
 152              	 .thumb
 153              	 .thumb_func
 154              	 .fpu softvfp
 156              	ui_process:
 157              	.LFB182:
  72:.././hal/sam3u1c/ui_cw305.c **** 
  73:.././hal/sam3u1c/ui_cw305.c **** void ui_process(uint16_t framenumber)
  74:.././hal/sam3u1c/ui_cw305.c **** {
 158              	 .loc 1 74 0
 159              	 .cfi_startproc
 160              	 
 161              	 
 162 0000 80B5     	 push {r7,lr}
 163              	.LCFI6:
 164              	 .cfi_def_cfa_offset 8
 165              	 .cfi_offset 7,-8
 166              	 .cfi_offset 14,-4
 167 0002 82B0     	 sub sp,sp,#8
 168              	.LCFI7:
 169              	 .cfi_def_cfa_offset 16
 170 0004 00AF     	 add r7,sp,#0
 171              	.LCFI8:
 172              	 .cfi_def_cfa_register 7
 173 0006 0346     	 mov r3,r0
 174 0008 FB80     	 strh r3,[r7,#6]
  75:.././hal/sam3u1c/ui_cw305.c **** 	if ((framenumber % 1000) == 0) {
 175              	 .loc 1 75 0
 176 000a FB88     	 ldrh r3,[r7,#6]
 177 000c 164A     	 ldr r2,.L15
 178 000e A2FB0312 	 umull r1,r2,r2,r3
 179 0012 9209     	 lsrs r2,r2,#6
 180 0014 4FF47A71 	 mov r1,#1000
 181 0018 01FB02F2 	 mul r2,r1,r2
 182 001c 9B1A     	 subs r3,r3,r2
 183 001e 9BB2     	 uxth r3,r3
 184 0020 002B     	 cmp r3,#0
 185 0022 02D1     	 bne .L11
  76:.././hal/sam3u1c/ui_cw305.c **** 		LED_On(LED0_GPIO);
 186              	 .loc 1 76 0
 187 0024 1D20     	 movs r0,#29
 188 0026 114B     	 ldr r3,.L15+4
 189 0028 9847     	 blx r3
 190              	.LVL5:
 191              	.L11:
  77:.././hal/sam3u1c/ui_cw305.c **** 	}
  78:.././hal/sam3u1c/ui_cw305.c **** 	if ((framenumber % 1000) == 500) {
 192              	 .loc 1 78 0
 193 002a FB88     	 ldrh r3,[r7,#6]
 194 002c 0E4A     	 ldr r2,.L15
 195 002e A2FB0312 	 umull r1,r2,r2,r3
 196 0032 9209     	 lsrs r2,r2,#6
 197 0034 4FF47A71 	 mov r1,#1000
 198 0038 01FB02F2 	 mul r2,r1,r2
 199 003c 9B1A     	 subs r3,r3,r2
 200 003e 9BB2     	 uxth r3,r3
 201 0040 B3F5FA7F 	 cmp r3,#500
 202 0044 02D1     	 bne .L12
  79:.././hal/sam3u1c/ui_cw305.c **** 		LED_Off(LED0_GPIO);
 203              	 .loc 1 79 0
 204 0046 1D20     	 movs r0,#29
 205 0048 094B     	 ldr r3,.L15+8
 206 004a 9847     	 blx r3
 207              	.LVL6:
 208              	.L12:
  80:.././hal/sam3u1c/ui_cw305.c **** 	}
  81:.././hal/sam3u1c/ui_cw305.c **** 	
  82:.././hal/sam3u1c/ui_cw305.c **** 	if ((framenumber % 512) == 0) {
 209              	 .loc 1 82 0
 210 004c FB88     	 ldrh r3,[r7,#6]
 211 004e C3F30803 	 ubfx r3,r3,#0,#9
 212 0052 9BB2     	 uxth r3,r3
 213 0054 002B     	 cmp r3,#0
 214 0056 02D1     	 bne .L14
  83:.././hal/sam3u1c/ui_cw305.c **** 		LED_Off(LED1_GPIO);
 215              	 .loc 1 83 0
 216 0058 1F20     	 movs r0,#31
 217 005a 054B     	 ldr r3,.L15+8
 218 005c 9847     	 blx r3
 219              	.LVL7:
 220              	.L14:
  84:.././hal/sam3u1c/ui_cw305.c **** 		//LED_Off(LED2_GPIO);
  85:.././hal/sam3u1c/ui_cw305.c **** 	}
  86:.././hal/sam3u1c/ui_cw305.c **** }
 221              	 .loc 1 86 0
 222 005e 00BF     	 nop
 223 0060 0837     	 adds r7,r7,#8
 224              	.LCFI9:
 225              	 .cfi_def_cfa_offset 8
 226 0062 BD46     	 mov sp,r7
 227              	.LCFI10:
 228              	 .cfi_def_cfa_register 13
 229              	 
 230 0064 80BD     	 pop {r7,pc}
 231              	.L16:
 232 0066 00BF     	 .align 2
 233              	.L15:
 234 0068 D34D6210 	 .word 274877907
 235 006c 00000000 	 .word LED_On
 236 0070 00000000 	 .word LED_Off
 237              	 .cfi_endproc
 238              	.LFE182:
 240              	 .text
 241              	.Letext0:
 242              	 .file 2 "c:\\program files (x86)\\atmel\\studio\\7.0\\toolchain\\arm\\arm-gnu-toolchain\\arm-none-eabi\\include\\machine\\_default_types.h"
 243              	 .file 3 "c:\\program files (x86)\\atmel\\studio\\7.0\\toolchain\\arm\\arm-gnu-toolchain\\arm-none-eabi\\include\\sys\\_stdint.h"
 244              	 .file 4 ".././hal/sam3u1c/inc/core_cm3.h"
 245              	 .file 5 ".././hal/sam3u1c/inc/system_sam3u.h"
 246              	 .file 6 "c:\\program files (x86)\\atmel\\studio\\7.0\\toolchain\\arm\\arm-gnu-toolchain\\arm-none-eabi\\include\\sys\\lock.h"
 247              	 .file 7 "c:\\program files (x86)\\atmel\\studio\\7.0\\toolchain\\arm\\arm-gnu-toolchain\\arm-none-eabi\\include\\sys\\_types.h"
 248              	 .file 8 "c:\\program files (x86)\\atmel\\studio\\7.0\\toolchain\\arm\\arm-gnu-toolchain\\lib\\gcc\\arm-none-eabi\\6.3.1\\include\\stddef.h"
 249              	 .file 9 "c:\\program files (x86)\\atmel\\studio\\7.0\\toolchain\\arm\\arm-gnu-toolchain\\arm-none-eabi\\include\\sys\\reent.h"
 250              	 .file 10 "c:\\program files (x86)\\atmel\\studio\\7.0\\toolchain\\arm\\arm-gnu-toolchain\\arm-none-eabi\\include\\stdlib.h"
 251              	 .file 11 ".././hal/sam3u1c/inc/interrupt/interrupt_sam_nvic.h"
 252              	 .file 12 ".././hal/sam3u1c/inc/compiler.h"
 253              	 .file 13 ".././hal/sam3u1c/inc/sam/sleepmgr.h"
 254              	 .file 14 "./conf_usb.h"
 255              	 .file 15 ".././hal/sam3u1c/inc/usb_protocol.h"
 256              	 .file 16 ".././hal/sam3u1c/inc/udi.h"
 257              	 .file 17 ".././hal/sam3u1c/inc/udc_desc.h"
 258              	 .file 18 ".././hal/sam3u1c/inc/udd.h"
 259              	 .file 19 ".././hal/sam3u1c/inc/udi_vendor.h"
 260              	 .file 20 ".././hal/sam3u1c/inc/tasks.h"
 261              	 .file 21 ".././hal/sam3u1c/inc/led.h"